
Audio_Player_test1.elf:     file format elf32-littlenios2
Audio_Player_test1.elf
architecture: nios2:r1, flags 0x00000112:
EXEC_P, HAS_SYMS, D_PAGED
start address 0x030401b4

Program Header:
    LOAD off    0x00001000 vaddr 0x03040000 paddr 0x03040000 align 2**12
         filesz 0x00000020 memsz 0x00000020 flags r-x
    LOAD off    0x00001020 vaddr 0x03040020 paddr 0x03040020 align 2**12
         filesz 0x00020de4 memsz 0x00020de4 flags r-x
    LOAD off    0x00021e04 vaddr 0x03060e04 paddr 0x03062b98 align 2**12
         filesz 0x00001d94 memsz 0x00001d94 flags rw-
    LOAD off    0x0000092c vaddr 0x0306492c paddr 0x0306492c align 2**12
         filesz 0x00000000 memsz 0x00001404 flags rw-

Sections:
Idx Name          Size      VMA       LMA       File off  Algn
  0 .entry        00000020  03040000  03040000  00001000  2**5
                  CONTENTS, ALLOC, LOAD, READONLY, CODE
  1 .exceptions   00000194  03040020  03040020  00001020  2**2
                  CONTENTS, ALLOC, LOAD, READONLY, CODE
  2 .text         0001f9ac  030401b4  030401b4  000011b4  2**2
                  CONTENTS, ALLOC, LOAD, READONLY, CODE
  3 .rodata       000012a4  0305fb60  0305fb60  00020b60  2**2
                  CONTENTS, ALLOC, LOAD, READONLY, DATA
  4 .rwdata       00001d94  03060e04  03062b98  00021e04  2**2
                  CONTENTS, ALLOC, LOAD, DATA, SMALL_DATA
  5 .bss          00001404  0306492c  0306492c  0002492c  2**2
                  ALLOC, SMALL_DATA
  6 .cfi_flash    00000000  02800000  02800000  00023b98  2**0
                  CONTENTS
  7 .onchip_memory2 00000000  03065d30  03065d30  00023b98  2**0
                  CONTENTS
  8 .comment      0000002d  00000000  00000000  00023b98  2**0
                  CONTENTS, READONLY
  9 .debug_aranges 00001690  00000000  00000000  00023bc8  2**3
                  CONTENTS, READONLY, DEBUGGING, OCTETS
 10 .debug_info   000431c7  00000000  00000000  00025258  2**0
                  CONTENTS, READONLY, DEBUGGING, OCTETS
 11 .debug_abbrev 000107e0  00000000  00000000  0006841f  2**0
                  CONTENTS, READONLY, DEBUGGING, OCTETS
 12 .debug_line   00022bf2  00000000  00000000  00078bff  2**0
                  CONTENTS, READONLY, DEBUGGING, OCTETS
 13 .debug_frame  000048c8  00000000  00000000  0009b7f4  2**2
                  CONTENTS, READONLY, DEBUGGING, OCTETS
 14 .debug_str    000060e8  00000000  00000000  000a00bc  2**0
                  CONTENTS, READONLY, DEBUGGING, OCTETS
 15 .debug_loc    000260a1  00000000  00000000  000a61a4  2**0
                  CONTENTS, READONLY, DEBUGGING, OCTETS
 16 .debug_alt_sim_info 00000060  00000000  00000000  000cc248  2**2
                  CONTENTS, READONLY, DEBUGGING, OCTETS
 17 .debug_ranges 00002c50  00000000  00000000  000cc2a8  2**3
                  CONTENTS, READONLY, DEBUGGING, OCTETS
 18 .thread_model 00000003  00000000  00000000  000d4603  2**0
                  CONTENTS, READONLY
 19 .cpu          00000003  00000000  00000000  000d4606  2**0
                  CONTENTS, READONLY
 20 .simulation_enabled 00000001  00000000  00000000  000d4609  2**0
                  CONTENTS, READONLY
 21 .sysid_hash   00000004  00000000  00000000  000d460a  2**0
                  CONTENTS, READONLY
 22 .sysid_base   00000004  00000000  00000000  000d460e  2**0
                  CONTENTS, READONLY
 23 .sysid_time   00000004  00000000  00000000  000d4612  2**0
                  CONTENTS, READONLY
 24 .stderr_dev   00000009  00000000  00000000  000d4616  2**0
                  CONTENTS, READONLY
 25 .stdin_dev    00000009  00000000  00000000  000d461f  2**0
                  CONTENTS, READONLY
 26 .stdout_dev   00000009  00000000  00000000  000d4628  2**0
                  CONTENTS, READONLY
 27 .sopc_system_name 0000000c  00000000  00000000  000d4631  2**0
                  CONTENTS, READONLY
 28 .quartus_project_dir 0000008f  00000000  00000000  000d463d  2**0
                  CONTENTS, READONLY
 29 .sopcinfo     000b7fc5  00000000  00000000  000d46cc  2**0
                  CONTENTS, READONLY
SYMBOL TABLE:
03040000 l    d  .entry	00000000 .entry
03040020 l    d  .exceptions	00000000 .exceptions
030401b4 l    d  .text	00000000 .text
0305fb60 l    d  .rodata	00000000 .rodata
03060e04 l    d  .rwdata	00000000 .rwdata
0306492c l    d  .bss	00000000 .bss
02800000 l    d  .cfi_flash	00000000 .cfi_flash
03065d30 l    d  .onchip_memory2	00000000 .onchip_memory2
00000000 l    d  .comment	00000000 .comment
00000000 l    d  .debug_aranges	00000000 .debug_aranges
00000000 l    d  .debug_info	00000000 .debug_info
00000000 l    d  .debug_abbrev	00000000 .debug_abbrev
00000000 l    d  .debug_line	00000000 .debug_line
00000000 l    d  .debug_frame	00000000 .debug_frame
00000000 l    d  .debug_str	00000000 .debug_str
00000000 l    d  .debug_loc	00000000 .debug_loc
00000000 l    d  .debug_alt_sim_info	00000000 .debug_alt_sim_info
00000000 l    d  .debug_ranges	00000000 .debug_ranges
00000000 l    df *ABS*	00000000 c:/Users/Robin/Documents/NHLStenden/FPGA/QuartusPrimeProjects/DE2-115_V.1.0.6_SystemCD/DE2_115_demonstrations/DE2_115_SD_Card_Audio_Player_Copy/Software/Audio_Player_test1_bsp//obj/HAL/src/crt0.o
030401fc l       .text	00000000 alt_after_alt_main
00000000 l    df *ABS*	00000000 alt_exception_entry.o
03040094 l       .exceptions	00000000 alt_exception_unknown
00000000 l    df *ABS*	00000000 alt_irq_handler.c
00000000 l    df *ABS*	00000000 AUDIO.c
0306496c l     O .bss	00000028 reg_file
00000000 l    df *ABS*	00000000 FatFileSystem.c
00000000 l    df *ABS*	00000000 FatInternal.c
00000000 l    df *ABS*	00000000 I2C.c
00000000 l    df *ABS*	00000000 LCD.c
0306492c l     O .bss	00000004 fp
00000000 l    df *ABS*	00000000 LED.c
00000000 l    df *ABS*	00000000 SEG7.c
03060e04 l     O .rwdata	00000010 szMap
00000000 l    df *ABS*	00000000 WaveLib.c
00000000 l    df *ABS*	00000000 crc16.c
03060052 l     O .rodata	00000200 crc16tab
00000000 l    df *ABS*	00000000 crc7.c
03060254 l     O .rodata	00000100 crc7_syndrome_table
00000000 l    df *ABS*	00000000 debug.c
00000000 l    df *ABS*	00000000 hello_world.c
03064994 l     O .bss	00001004 gWavePlayList
03065998 l     O .bss	00000238 gWavePlay
03064930 l     O .bss	00000004 hFat
03064934 l     O .bss	00000004 nMute_Volume
03064938 l     O .bss	00000001 bLastSwitch
03064939 l     O .bss	00000001 bNextSwitch
0306493a l     O .bss	00000001 bMuteSwitch
03062b54 l     O .rwdata	00000001 bPlaySwitch
03062b55 l     O .rwdata	00000001 bFirsTime2SetupVol.1
03062b56 l     O .rwdata	00000001 bFirsTime2SetupVol.0
00000000 l    df *ABS*	00000000 sd_hal.c
00000000 l    df *ABS*	00000000 sd_lib.c
03065bd0 l     O .bss	00000038 gSdInfo
00000000 l    df *ABS*	00000000 sd_protocol.c
00000000 l    df *ABS*	00000000 lib2-divmod.c
00000000 l    df *ABS*	00000000 divsf3.c
00000000 l    df *ABS*	00000000 mulsf3.c
00000000 l    df *ABS*	00000000 floatunsisf.c
00000000 l    df *ABS*	00000000 divdf3.c
00000000 l    df *ABS*	00000000 extendsfdf2.c
00000000 l    df *ABS*	00000000 truncdfsf2.c
00000000 l    df *ABS*	00000000 libgcc2.c
00000000 l    df *ABS*	00000000 libgcc2.c
00000000 l    df *ABS*	00000000 fclose.c
03049e9c l     F .text	000000c0 _fclose_r.part.0
00000000 l    df *ABS*	00000000 fflush.c
00000000 l    df *ABS*	00000000 findfp.c
0304a348 l     F .text	00000008 __fp_lock
0304a35c l     F .text	00000008 __fp_unlock
0304a364 l     F .text	00000168 __sinit.part.0
00000000 l    df *ABS*	00000000 fopen.c
00000000 l    df *ABS*	00000000 mallocr.c
00000000 l    df *ABS*	00000000 fseek.c
00000000 l    df *ABS*	00000000 fseeko.c
00000000 l    df *ABS*	00000000 fstatr.c
00000000 l    df *ABS*	00000000 fwalk.c
00000000 l    df *ABS*	00000000 fwrite.c
00000000 l    df *ABS*	00000000 impure.c
03060e14 l     O .rwdata	00000424 impure_data
00000000 l    df *ABS*	00000000 int_errno.c
00000000 l    df *ABS*	00000000 makebuf.c
00000000 l    df *ABS*	00000000 malloc.c
00000000 l    df *ABS*	00000000 mallocr.c
00000000 l    df *ABS*	00000000 memcpy.c
00000000 l    df *ABS*	00000000 memset.c
00000000 l    df *ABS*	00000000 openr.c
00000000 l    df *ABS*	00000000 printf.c
00000000 l    df *ABS*	00000000 putchar.c
00000000 l    df *ABS*	00000000 puts.c
00000000 l    df *ABS*	00000000 refill.c
0304c1cc l     F .text	0000001c lflush
00000000 l    df *ABS*	00000000 sbrkr.c
00000000 l    df *ABS*	00000000 sprintf.c
00000000 l    df *ABS*	00000000 stdio.c
00000000 l    df *ABS*	00000000 strcmp.c
00000000 l    df *ABS*	00000000 strcpy.c
00000000 l    df *ABS*	00000000 strlen.c
00000000 l    df *ABS*	00000000 vfprintf.c
030608b8 l     O .rodata	00000010 blanks.1
030608a8 l     O .rodata	00000010 zeroes.0
00000000 l    df *ABS*	00000000 vfprintf.c
03050794 l     F .text	000000c0 __sbprintf
030608d8 l     O .rodata	00000010 blanks.1
030608c8 l     O .rodata	00000010 zeroes.0
00000000 l    df *ABS*	00000000 vsnprintf.c
00000000 l    df *ABS*	00000000 writer.c
00000000 l    df *ABS*	00000000 wsetup.c
00000000 l    df *ABS*	00000000 closer.c
00000000 l    df *ABS*	00000000 dtoa.c
03050c00 l     F .text	000001fc quorem
00000000 l    df *ABS*	00000000 flags.c
00000000 l    df *ABS*	00000000 fvwrite.c
00000000 l    df *ABS*	00000000 isattyr.c
00000000 l    df *ABS*	00000000 localeconv.c
00000000 l    df *ABS*	00000000 lseekr.c
00000000 l    df *ABS*	00000000 memchr.c
00000000 l    df *ABS*	00000000 memmove.c
00000000 l    df *ABS*	00000000 mprec.c
03060984 l     O .rodata	0000000c p05.0
00000000 l    df *ABS*	00000000 putc.c
00000000 l    df *ABS*	00000000 readr.c
00000000 l    df *ABS*	00000000 mallocr.c
00000000 l    df *ABS*	00000000 vfprintf.c
03060ab8 l     O .rodata	00000010 blanks.1
03060aa8 l     O .rodata	00000010 zeroes.0
00000000 l    df *ABS*	00000000 vfprintf.c
030557a8 l     F .text	000000f4 __sprint_r.part.0
03056b20 l     F .text	000000c0 __sbprintf
03060ad8 l     O .rodata	00000010 blanks.1
03060ac8 l     O .rodata	00000010 zeroes.0
00000000 l    df *ABS*	00000000 wbuf.c
00000000 l    df *ABS*	00000000 assert.c
00000000 l    df *ABS*	00000000 mallocr.c
00000000 l    df *ABS*	00000000 errno.c
00000000 l    df *ABS*	00000000 fiprintf.c
00000000 l    df *ABS*	00000000 fputwc.c
00000000 l    df *ABS*	00000000 locale.c
00000000 l    df *ABS*	00000000 mbtowc_r.c
00000000 l    df *ABS*	00000000 vfiprintfr_1.c
00000000 l    df *ABS*	00000000 wcrtomb.c
00000000 l    df *ABS*	00000000 wctomb_r.c
00000000 l    df *ABS*	00000000 abort.c
00000000 l    df *ABS*	00000000 ctype_.c
00000000 l    df *ABS*	00000000 signal.c
00000000 l    df *ABS*	00000000 signalr.c
00000000 l    df *ABS*	00000000 libgcc2.c
00000000 l    df *ABS*	00000000 libgcc2.c
00000000 l    df *ABS*	00000000 adddf3.c
00000000 l    df *ABS*	00000000 eqdf2.c
00000000 l    df *ABS*	00000000 gedf2.c
00000000 l    df *ABS*	00000000 ledf2.c
00000000 l    df *ABS*	00000000 muldf3.c
00000000 l    df *ABS*	00000000 subdf3.c
00000000 l    df *ABS*	00000000 unorddf2.c
00000000 l    df *ABS*	00000000 fixdfsi.c
00000000 l    df *ABS*	00000000 floatsidf.c
00000000 l    df *ABS*	00000000 floatunsidf.c
00000000 l    df *ABS*	00000000 alt_close.c
0305a0c8 l     F .text	0000003c alt_get_errno
00000000 l    df *ABS*	00000000 alt_dev.c
0305a1d4 l     F .text	0000002c alt_dev_null_write
00000000 l    df *ABS*	00000000 alt_errno.c
00000000 l    df *ABS*	00000000 alt_exit.c
00000000 l    df *ABS*	00000000 alt_fstat.c
0305a238 l     F .text	0000003c alt_get_errno
00000000 l    df *ABS*	00000000 alt_getpid.c
00000000 l    df *ABS*	00000000 alt_irq_register.c
00000000 l    df *ABS*	00000000 alt_irq_vars.c
00000000 l    df *ABS*	00000000 alt_isatty.c
0305a4c4 l     F .text	0000003c alt_get_errno
00000000 l    df *ABS*	00000000 alt_kill.c
0305a5a4 l     F .text	0000003c alt_get_errno
00000000 l    df *ABS*	00000000 alt_load.c
0305a70c l     F .text	00000068 alt_load_section
00000000 l    df *ABS*	00000000 alt_lseek.c
0305a7f8 l     F .text	0000003c alt_get_errno
00000000 l    df *ABS*	00000000 alt_main.c
00000000 l    df *ABS*	00000000 alt_malloc_lock.c
00000000 l    df *ABS*	00000000 alt_open.c
0305a9cc l     F .text	0000003c alt_get_errno
0305aa08 l     F .text	000000b8 alt_file_locked
00000000 l    df *ABS*	00000000 alt_read.c
0305ac14 l     F .text	0000003c alt_get_errno
00000000 l    df *ABS*	00000000 alt_release_fd.c
00000000 l    df *ABS*	00000000 alt_sbrk.c
03062b84 l     O .rwdata	00000004 heap_end
00000000 l    df *ABS*	00000000 alt_tick.c
00000000 l    df *ABS*	00000000 alt_usleep.c
00000000 l    df *ABS*	00000000 alt_write.c
0305b05c l     F .text	0000003c alt_get_errno
00000000 l    df *ABS*	00000000 alt_sys_init.c
0305b190 l     F .text	00000034 alt_dev_reg
03061954 l     O .rwdata	000000dc cfi_flash
03061a30 l     O .rwdata	00001060 jtag_uart
03062a90 l     O .rwdata	000000c4 rs232
00000000 l    df *ABS*	00000000 altera_avalon_cfi_flash.c
0305b28c l     F .text	00000034 alt_flash_device_register
00000000 l    df *ABS*	00000000 altera_avalon_cfi_flash_table.c
0305c0d4 l     F .text	00000080 alt_read_16bit_query_entry
00000000 l    df *ABS*	00000000 altera_avalon_jtag_uart_fd.c
00000000 l    df *ABS*	00000000 altera_avalon_jtag_uart_init.c
0305d130 l     F .text	0000020c altera_avalon_jtag_uart_irq
0305d33c l     F .text	000000a0 altera_avalon_jtag_uart_timeout
00000000 l    df *ABS*	00000000 altera_avalon_jtag_uart_ioctl.c
00000000 l    df *ABS*	00000000 altera_avalon_jtag_uart_read.c
00000000 l    df *ABS*	00000000 altera_avalon_jtag_uart_write.c
00000000 l    df *ABS*	00000000 altera_avalon_timer_sc.c
0305d980 l     F .text	0000007c alt_avalon_timer_sc_irq
00000000 l    df *ABS*	00000000 altera_avalon_uart_fd.c
00000000 l    df *ABS*	00000000 altera_avalon_uart_init.c
0305dc3c l     F .text	0000009c altera_avalon_uart_irq
0305dcd8 l     F .text	000000e0 altera_avalon_uart_rxirq
0305ddb8 l     F .text	00000144 altera_avalon_uart_txirq
00000000 l    df *ABS*	00000000 altera_avalon_uart_read.c
0305df50 l     F .text	0000003c alt_get_errno
00000000 l    df *ABS*	00000000 altera_avalon_uart_write.c
0305e174 l     F .text	0000003c alt_get_errno
00000000 l    df *ABS*	00000000 alt_alarm_start.c
00000000 l    df *ABS*	00000000 alt_busy_sleep.c
00000000 l    df *ABS*	00000000 alt_dcache_flush.c
00000000 l    df *ABS*	00000000 alt_dcache_flush_all.c
00000000 l    df *ABS*	00000000 alt_dev_llist_insert.c
0305e6e0 l     F .text	0000003c alt_get_errno
00000000 l    df *ABS*	00000000 alt_do_ctors.c
00000000 l    df *ABS*	00000000 alt_do_dtors.c
00000000 l    df *ABS*	00000000 alt_find_dev.c
00000000 l    df *ABS*	00000000 alt_find_file.c
00000000 l    df *ABS*	00000000 alt_flash_dev.c
00000000 l    df *ABS*	00000000 alt_get_fd.c
00000000 l    df *ABS*	00000000 alt_icache_flush_all.c
00000000 l    df *ABS*	00000000 alt_iic.c
00000000 l    df *ABS*	00000000 alt_iic_isr_register.c
00000000 l    df *ABS*	00000000 alt_io_redirect.c
0305ee4c l     F .text	000000b0 alt_open_fd
00000000 l    df *ABS*	00000000 altera_nios2_irq.c
00000000 l    df *ABS*	00000000 altera_avalon_cfi_flash_amd.c
0305f338 l     F .text	000000cc alt_write_word_amd
0305f214 l     F .text	00000124 alt_wait_for_command_to_complete_amd
00000000 l    df *ABS*	00000000 altera_avalon_cfi_flash_intel.c
0305f610 l     F .text	0000017c alt_unlock_block_intel
0305f78c l     F .text	000000d4 alt_write_word_intel
00000000 l    df *ABS*	00000000 alt_icache_flush.c
00000000 l    df *ABS*	00000000 atexit.c
00000000 l    df *ABS*	00000000 exit.c
00000000 l    df *ABS*	00000000 memcmp.c
00000000 l    df *ABS*	00000000 __atexit.c
00000000 l    df *ABS*	00000000 __call_atexit.c
0304c0d8 g     F .text	00000018 putchar
03053d6c g     F .text	00000070 _mprec_log10
03043c6c g     F .text	00000128 I2C_Read
03053e58 g     F .text	00000060 __any_on
03052a80 g     F .text	00000058 _isatty_r
03060990 g     O .rodata	00000028 __mprec_tinytens
03044ed4 g     F .text	00000060 Wave_GetWaveOffset
0305a908 g     F .text	0000007c alt_main
0304c6bc g     F .text	0000008c strcpy
030454d0 g     F .text	0000003c led_display_count
0304c0f0 g     F .text	000000cc _puts_r
0305bb84 g     F .text	0000003c alt_read_query_entry_32bit
03040ff8 g     F .text	00000074 Fat_FileBrowseBegin
03065c30 g     O .bss	00000100 alt_irq
03052af8 g     F .text	00000064 _lseek_r
0305b350 g     F .text	0000029c alt_flash_cfi_write
03062b98 g       *ABS*	00000000 __flash_rwdata_start
03045f3c g     F .text	00000020 waveplay_stop
03052544 g     F .text	000000b8 __sflags
03058cdc g     F .text	00000080 .hidden __eqdf2
03047250 g     F .text	0000007c SDLIB_WriteBlock512
03065d30 g       *ABS*	00000000 __alt_heap_start
030578c4 g     F .text	00000060 _kill_r
03040200 g     F .text	00000188 AUDIO_Init
0304c098 g     F .text	00000038 printf
03057290 g     F .text	0000006c _wcrtomb_r
03048694 g     F .text	000001a8 SD_CMD24
03057434 g     F .text	00000098 _signal_r
03040444 g     F .text	00000074 AUDIO_AdcEnableHighPassFilter
0304c5a0 g     F .text	0000005c __sseek
0304a69c g     F .text	00000010 __sinit
03056be0 g     F .text	00000148 __swbuf_r
03057148 g     F .text	00000074 _setlocale_r
0304a4cc g     F .text	00000068 __sfmoreglue
0305a9a8 g     F .text	00000024 __malloc_unlock
0304106c g     F .text	00000470 Fat_FileBrowseNext
03048ae4 g     F .text	000003f8 .hidden __divsf3
03044a30 g     F .text	00000130 waveGetChunkOffset
0304680c g     F .text	0000002c SDHAL_IsSupport4Bits
03044fd4 g     F .text	00000050 crc7_byte
03042aa4 g     F .text	000000a4 fatIsValidDir
03052c2c g     F .text	0000012c memmove
0304a688 g     F .text	00000014 _cleanup
03040ccc g     F .text	000000f4 aduio_RegWrite
03040ecc g     F .text	0000002c AUDIO_FifoClear
03052d58 g     F .text	000000a4 _Balloc
03044638 g     F .text	00000030 LED_AllOff
03044560 g     F .text	000000a8 LCD_Test
03058d5c g     F .text	000000e8 .hidden __gtdf2
03056ee4 g     F .text	0000000c __errno
03040e7c g     F .text	00000050 AUDIO_AdcFifoGetData
0305bd14 g     F .text	0000004c alt_write_flash_command_32bit_device_16bit_mode
03044014 g     F .text	00000130 i2c_write
03040000 g     F .entry	0000001c __reset
03052ad8 g     F .text	00000008 __localeconv_l
0304697c g     F .text	000001ec SDHAL_GetResponse
03040020 g       *ABS*	00000000 __flash_exceptions_start
0304434c g     F .text	00000088 LCD_Clear
0304b094 g     F .text	00000060 _fstat_r
0305b838 g     F .text	000002d0 alt_flash_program_block
0306493c g     O .bss	00000004 errno
03045354 g     F .text	00000090 update_status
0304c518 g     F .text	00000008 __seofread
030547c4 g     F .text	00000fe4 ___svfiprintf_internal_r
03042468 g     F .text	0000016c fatNextCluster
03064958 g     O .bss	00000004 alt_argv
0306ab54 g       *ABS*	00000000 _gp
0305b02c g     F .text	00000030 usleep
0305a324 g     F .text	00000020 getpid
030617d4 g     O .rwdata	00000180 alt_fd_list
0304c0d0 g     F .text	00000008 _putchar_r
030455b8 g     F .text	0000009c is_supporrted_sample_rate
0305e88c g     F .text	00000090 alt_find_dev
0304be14 g     F .text	00000100 memcpy
03044668 g     F .text	0000004c LED_Display
0304a350 g     F .text	0000000c _cleanup_r
03059f80 g     F .text	000000b8 .hidden __floatsidf
03044b60 g     F .text	0000014c WAVE_IsWaveFile
0305eefc g     F .text	0000007c alt_io_redirect
03058e44 g     F .text	000000e8 .hidden __ltdf2
0305fb60 g       *ABS*	00000000 __DTOR_END__
0304178c g     F .text	000000c4 Fat_FileExist
0304c1bc g     F .text	00000010 puts
0304550c g     F .text	000000ac wait_sdcard_insert
0305ef78 g     F .text	00000024 altera_nios2_irq_init
0304784c g     F .text	00000188 SD_CMD2
03053cc4 g     F .text	000000a8 __ratio
03056b04 g     F .text	0000001c __vfiprintf_internal
0305d538 g     F .text	00000220 altera_avalon_jtag_uart_read
0304b614 g     F .text	00000010 malloc
0304c068 g     F .text	00000030 _printf_r
03048a24 g     F .text	00000064 .hidden __udivsi3
0305a500 g     F .text	000000a4 isatty
030574cc g     F .text	000000c4 _raise_r
03040bbc g     F .text	00000088 AUDIO_EnableByPass
03056d40 g     F .text	00000064 __assert_func
030609e0 g     O .rodata	000000c8 __mprec_tens
0304836c g     F .text	00000180 SD_ACMD42
03050854 g     F .text	000000c0 vsnprintf
0305f860 g     F .text	00000090 alt_icache_flush
03043d94 g     F .text	0000017c I2C_MultipleRead
03064948 g     O .bss	00000004 __malloc_top_pad
03057924 g     F .text	00000004 _getpid_r
0304099c g     F .text	00000110 AUDIO_SetLineInVol
03052ae0 g     F .text	0000000c _localeconv_r
03047ec0 g     F .text	00000180 SD_CMD7
03045464 g     F .text	00000038 lcd_display
030531a4 g     F .text	000000b0 __i2b
030525fc g     F .text	00000484 __sfvwrite_r
03057590 g     F .text	000000bc __sigtramp_r
03044738 g     F .text	00000064 SEG7_Clear
0304c3b4 g     F .text	00000058 _sbrk_r
0305f404 g     F .text	00000080 alt_program_intel
03048040 g     F .text	000001a0 SD_CMD16
030488bc g     F .text	00000074 ArrayToU32
03054064 g     F .text	00000064 _read_r
0305e61c g     F .text	00000078 alt_dcache_flush
03062b78 g     O .rwdata	00000004 alt_max_fd
0305bb08 g     F .text	0000003c alt_read_query_entry_8bit
030435b0 g     F .text	000003f0 fatMount
03049f5c g     F .text	00000070 _fclose_r
0305f484 g     F .text	0000018c alt_erase_block_intel
0304a2c4 g     F .text	00000084 fflush
03040570 g     F .text	000000d8 AUDIO_DacEnableZeroCross
03064944 g     O .bss	00000004 __malloc_max_sbrked_mem
030442ec g     F .text	00000060 LCD_TextOut
0305a344 g     F .text	00000180 alt_irq_register
03049bdc g     F .text	000000fc .hidden __extendsfdf2
030583ec g     F .text	000008f0 .hidden __adddf3
03042b48 g     F .text	00000048 fatIsUnusedDir
03045c8c g     F .text	000002b0 waveplay_execute
03053a58 g     F .text	00000108 __b2d
03057eb8 g     F .text	00000534 .hidden __umoddi3
0305a834 g     F .text	000000d4 lseek
03062b58 g     O .rwdata	00000004 _global_impure_ptr
030540c8 g     F .text	0000053c _realloc_r
03065d30 g       *ABS*	00000000 __bss_end
0305ed64 g     F .text	000000e8 alt_iic_isr_register
0305af00 g     F .text	0000012c alt_tick
03057928 g     F .text	00000590 .hidden __udivdi3
030570ac g     F .text	00000024 _fputwc_r
030609b8 g     O .rodata	00000028 __mprec_bigtens
03052f58 g     F .text	00000138 __s2b
030573c0 g     F .text	00000018 abort
0305a038 g     F .text	00000090 .hidden __floatunsidf
030403d0 g     F .text	00000074 AUDIO_MicBoost
03053778 g     F .text	00000058 __mcmp
0305db90 g     F .text	000000ac altera_avalon_uart_init
030439a0 g     F .text	0000003c SD_ReadBlock512
0304a6bc g     F .text	00000014 __fp_lock_all
0305ed18 g     F .text	0000004c alt_ic_irq_enabled
03043b6c g     F .text	00000100 I2C_Write
03041850 g     F .text	0000022c Fat_FileOpen
03044800 g     F .text	00000074 SEG7_Number
0305ae5c g     F .text	000000a4 alt_alarm_stop
030443d4 g     F .text	00000040 LCD_Close
03064950 g     O .bss	00000004 alt_irq_active
0304ac24 g     F .text	00000454 _fseeko_r
03042758 g     F .text	000001f0 fatDelClusterList
030400ec g     F .exceptions	000000c8 alt_irq_handler
030617ac g     O .rwdata	00000028 alt_dev_null
03046894 g     F .text	000000e8 SDHAL_SendCmd
0305c034 g     F .text	000000a0 alt_set_flash_algorithm_func
03043f10 g     F .text	0000008c i2c_start
0305e694 g     F .text	0000004c alt_dcache_flush_all
03053090 g     F .text	00000064 __hi0bits
03046b68 g     F .text	00000128 SDHAL_ReadData
03059f00 g     F .text	00000080 .hidden __fixdfsi
0305bbc0 g     F .text	00000044 alt_write_flash_command_8bit_device_8bit_mode
03062b98 g       *ABS*	00000000 __ram_rwdata_end
03062b70 g     O .rwdata	00000008 alt_dev_list
03040ef8 g     F .text	00000044 Fat_Mount
0305b098 g     F .text	000000f8 write
03053eb8 g     F .text	000000cc _putc_r
03060e04 g       *ABS*	00000000 __ram_rodata_end
0305a274 g     F .text	000000b0 fstat
0305a5e0 g     F .text	0000012c kill
03058e44 g     F .text	000000e8 .hidden __ledf2
030450c8 g     F .text	0000006c myprintf
0305ce38 g     F .text	000000d4 alt_check_primary_table
03045438 g     F .text	0000002c lcd_open
030534a8 g     F .text	00000148 __pow5mult
030558b4 g     F .text	00001250 ___vfiprintf_internal_r
03048a88 g     F .text	0000005c .hidden __umodsi3
0305b678 g     F .text	00000064 alt_flash_cfi_read
0305bdac g     F .text	00000038 alt_write_native_8bit
03040c44 g     F .text	00000088 AUDIO_EnableSiteTone
03065d30 g       *ABS*	00000000 end
0305bc04 g     F .text	00000078 alt_write_flash_command_16bit_device_8bit_mode
03044608 g     F .text	00000030 LED_AllOn
0304b078 g     F .text	0000001c fseeko
0305e1b0 g     F .text	000001b4 altera_avalon_uart_write
0304ac08 g     F .text	0000001c fseek
0305c154 g     F .text	0000058c alt_read_cfi_table
0305d070 g     F .text	000000c0 altera_avalon_jtag_uart_init
0305fb60 g       *ABS*	00000000 __CTOR_LIST__
03080000 g       *ABS*	00000000 __alt_stack_pointer
0305d9fc g     F .text	00000084 alt_avalon_timer_sc_init
0305dae0 g     F .text	00000060 altera_avalon_uart_write_fd
03049e48 g     F .text	00000054 .hidden __clzsi2
0305db40 g     F .text	00000050 altera_avalon_uart_close_fd
0305d758 g     F .text	00000228 altera_avalon_jtag_uart_write
03042080 g     F .text	00000048 Fat_FileClose
0305b2c0 g     F .text	00000090 alt_flash_cfi_init
0304a6ac g     F .text	00000004 __sfp_lock_acquire
030414dc g     F .text	00000074 Fat_FileCount
03052b5c g     F .text	000000d0 memchr
0304e770 g     F .text	00002008 ___vfprintf_internal_r
0304c40c g     F .text	00000054 _sprintf_r
0304a908 g     F .text	000002fc _free_r
03060c3c g     O .rodata	00000180 _ctype_b
030571bc g     F .text	0000000c __locale_mb_cur_max
0305fa40 g     F .text	00000120 __call_exitprocs
03062b60 g     O .rwdata	00000004 __malloc_sbrk_base
030401b4 g     F .text	0000004c _start
03064960 g     O .bss	00000004 _alt_tick_rate
030535f0 g     F .text	00000188 __lshift
03064964 g     O .bss	00000008 _alt_nticks
03057708 g     F .text	000000a0 signal
03047320 g     F .text	0000008c SD_CMD0
0305ac50 g     F .text	000000fc read
0305b200 g     F .text	0000008c alt_sys_init
03054604 g     F .text	000001c0 __ssprint_r
0304c004 g     F .text	00000064 _open_r
0305f9b0 g     F .text	00000090 __register_exitproc
03040648 g     F .text	00000088 AUDIO_DacEnableSoftMute
03046e3c g     F .text	00000060 SDHAL_DummyClock
03041a7c g     F .text	00000048 Fat_FileSize
0305bb44 g     F .text	00000040 alt_read_query_entry_16bit
03044f34 g     F .text	000000a0 crc16
03053254 g     F .text	00000254 __multiply
030472cc g     F .text	0000002c SD_Init
0305d3dc g     F .text	00000068 altera_avalon_jtag_uart_close
03060e04 g       *ABS*	00000000 __ram_rwdata_start
0305fb60 g       *ABS*	00000000 __ram_rodata_start
03065c08 g     O .bss	00000028 __malloc_current_mallinfo
0305be50 g     F .text	000001e4 alt_set_flash_width_func
03053b60 g     F .text	00000164 __d2b
0304549c g     F .text	00000034 led_display
0305cf0c g     F .text	00000060 altera_avalon_jtag_uart_read_fd
0305eae0 g     F .text	000000a0 alt_get_fd
0305e4c4 g     F .text	00000158 alt_busy_sleep
03050ba8 g     F .text	00000058 _close_r
0305f004 g     F .text	00000210 alt_erase_block_amd
03041ac4 g     F .text	000004a0 Fat_FileRead
0305f938 g     F .text	00000078 memcmp
0305cfcc g     F .text	00000050 altera_avalon_jtag_uart_close_fd
03065d30 g       *ABS*	00000000 __alt_stack_base
0305d01c g     F .text	00000054 altera_avalon_jtag_uart_ioctl_fd
0304b234 g     F .text	000000c4 _fwrite_r
03043488 g     F .text	00000128 fatFindUnusedDirectory
03046838 g     F .text	0000005c SDHAL_Init
03050a44 g     F .text	00000164 __swsetup_r
0305c6e0 g     F .text	00000758 alt_read_cfi_width
0304938c g     F .text	00000850 .hidden __divdf3
0304a534 g     F .text	00000154 __sfp
03053ddc g     F .text	0000007c __copybits
030404b8 g     F .text	000000b8 AUDIO_DacDeemphasisControl
03061238 g     O .rwdata	00000408 __malloc_av_
03044e40 g     F .text	00000094 Wave_GetDataByteSize
0304a6b8 g     F .text	00000004 __sinit_lock_release
03050914 g     F .text	000000cc _vsnprintf_r
03043f9c g     F .text	00000078 i2c_stop
03058f2c g     F .text	00000674 .hidden __muldf3
0304c4c4 g     F .text	00000054 __sread
030420c8 g     F .text	00000224 Fat_SpeedTest
03045244 g     F .text	00000070 welcome_display
0304479c g     F .text	00000064 SEG7_Full
0305e91c g     F .text	00000108 alt_find_file
03044944 g     F .text	000000ec SEG7_Decimal
0305e71c g     F .text	000000a8 alt_dev_llist_insert
0305a984 g     F .text	00000024 __malloc_lock
0305ada4 g     F .text	000000b8 sbrk
0304c7e0 g     F .text	00001f90 ___svfprintf_internal_r
03040830 g     F .text	0000008c AUDIO_SetInputSource
0304a264 g     F .text	00000060 _fflush_r
03056db8 g     F .text	0000012c _calloc_r
03062b90 g     O .rwdata	00000008 alt_flash_dev_list
03040388 g     F .text	00000048 AUDIO_InterfaceActive
0305bcc8 g     F .text	0000004c alt_write_flash_command_16bit_device_16bit_mode
030433d8 g     F .text	000000b0 fatFindDirectory
0304a7d4 g     F .text	00000018 fopen
0306492c g       *ABS*	00000000 __bss_start
03044414 g     F .text	0000008c LCD_Init
03044d40 g     F .text	00000080 Wave_GetChannelNum
0304bf14 g     F .text	000000f0 memset
030467c4 g     F .text	00000048 main
03043340 g     F .text	00000098 fatReadSecter
0306495c g     O .bss	00000004 alt_envp
03064940 g     O .bss	00000004 __malloc_max_total_mem
03045134 g     F .text	00000088 myprintf_hexarray
0305cf6c g     F .text	00000060 altera_avalon_jtag_uart_write_fd
03044144 g     F .text	00000158 i2c_read
03056d28 g     F .text	00000018 __swbuf
03044524 g     F .text	0000003c LCD_Line2
0304c5fc g     F .text	00000008 __sclose
03042b90 g     F .text	00000728 fatDump
03080000 g       *ABS*	00000000 __alt_heap_limit
03049fcc g     F .text	00000070 fclose
03049cd8 g     F .text	00000170 .hidden __truncdfsf2
03050dfc g     F .text	00001748 _dtoa_r
0304b634 g     F .text	000007e0 _malloc_r
03057390 g     F .text	00000030 __ascii_wctomb
0304887c g     F .text	00000040 SD_WriteData
03062b7c g     O .rwdata	00000004 alt_errno
03056ef0 g     F .text	00000020 _fiprintf_r
0305bd60 g     F .text	0000004c alt_write_flash_command_32bit_device_32bit_mode
030577a8 g     F .text	00000060 _init_signal
0304b0f4 g     F .text	00000098 _fwalk
0305b6dc g     F .text	0000015c alt_write_value_to_flash
0305723c g     F .text	0000000c _mbtowc_r
03042948 g     F .text	0000008c fatDumpDate
0305bde4 g     F .text	00000038 alt_write_native_16bit
03045024 g     F .text	00000070 crc7
03053f84 g     F .text	000000e0 putc
03041f64 g     F .text	0000011c Fat_FileSeek
03048930 g     F .text	00000080 .hidden __divsi3
0304429c g     F .text	00000050 LCD_Open
030481e0 g     F .text	0000018c SD_ACMD6
02800000 g       *ABS*	00000000 __alt_mem_cfi_flash
0304a7ec g     F .text	0000011c _malloc_trim_r
0305fb60 g       *ABS*	00000000 __CTOR_END__
03048edc g     F .text	000003b4 .hidden __mulsf3
03040758 g     F .text	000000d8 AUDIO_LineInMute
0304c604 g     F .text	000000b8 strcmp
030439dc g     F .text	0000003c SD_WriteBlock512
030406d0 g     F .text	00000088 AUDIO_MicMute
0305fb60 g       *ABS*	00000000 __flash_rodata_start
0305fb60 g       *ABS*	00000000 __DTOR_LIST__
030432b8 g     F .text	00000088 fatArray2Value
030472f8 g     F .text	00000028 SD_IsSupport4Bits
03058cdc g     F .text	00000080 .hidden __nedf2
0304239c g     F .text	000000cc fat32ClusterType
0305b1c4 g     F .text	0000003c alt_irq_init
030444a0 g     F .text	00000084 LCD_Show_Text
0305ad4c g     F .text	00000058 alt_release_fd
0304c460 g     F .text	00000064 sprintf
03060760 g     O .rodata	00000100 .hidden __clz_tab
03044874 g     F .text	000000d0 SEG7_Hex
03045094 g     F .text	00000034 debug_output
0306494c g     O .bss	00000004 _PathLocale
030476c0 g     F .text	0000018c SD_ACMD41
0305f8f0 g     F .text	00000014 atexit
030509e0 g     F .text	00000064 _write_r
030473ac g     F .text	00000190 SD_CMD8
030415e4 g     F .text	000001a8 fatComposeShortFilename
030571c8 g     F .text	00000074 setlocale
03062b5c g     O .rwdata	00000004 _impure_ptr
03064954 g     O .bss	00000004 alt_argc
0304a03c g     F .text	00000228 __sflush_r
0305e828 g     F .text	00000064 _do_dtors
03040f8c g     F .text	0000006c Fat_Type
030451bc g     F .text	00000088 myprintf_dwordarray
0304ac04 g     F .text	00000004 _fseek_r
03040e44 g     F .text	00000038 AUDIO_AdcFifoNotEmpty
0304c1e8 g     F .text	000001cc __srefill_r
03040020 g       .exceptions	00000000 alt_irq_entry
03057248 g     F .text	00000044 __ascii_mbtowc
030539fc g     F .text	0000005c __ulp
0304a6d0 g     F .text	00000014 __fp_unlock_all
0304650c g     F .text	000002b8 Fat_Test
030422ec g     F .text	000000b0 fat16ClusterType
03040df8 g     F .text	0000004c AUDIO_DacFifoSetData
03062b68 g     O .rwdata	00000008 alt_fs_list
0304753c g     F .text	00000184 SD_CMD55
0304614c g     F .text	000000a8 IRDA_init
0305bc7c g     F .text	0000004c alt_write_flash_command_32bit_device_8bit_mode
03047d10 g     F .text	000001b0 SD_CMD10
03040020 g       *ABS*	00000000 __ram_exceptions_start
030408bc g     F .text	000000e0 AUDIO_SetSampleRate
03052aec g     F .text	0000000c localeconv
03040000 g       *ABS*	00000000 __alt_mem_onchip_memory2
03041550 g     F .text	00000094 fatSameLongFilename
0304b57c g     F .text	00000098 __swhatbuf_r
03045f5c g     F .text	000001f0 handle_key
0305ebb4 g     F .text	00000050 alt_ic_isr_register
0304b2f8 g     F .text	000000d4 fwrite
03062b98 g       *ABS*	00000000 _edata
030429d4 g     F .text	0000008c fatDumpTime
0305da80 g     F .text	00000060 altera_avalon_uart_read_fd
03065d30 g       *ABS*	00000000 _end
0305ea24 g     F .text	00000068 alt_flash_open_dev
03040aac g     F .text	00000110 AUDIO_SetLineOutVol
03047b60 g     F .text	000001b0 SD_CMD9
03056f48 g     F .text	00000164 __fputwc
030401b4 g       *ABS*	00000000 __ram_exceptions_end
0305d444 g     F .text	000000f4 altera_avalon_jtag_uart_ioctl
0305ec8c g     F .text	0000008c alt_ic_irq_disable
0304c520 g     F .text	00000080 __swrite
03062b64 g     O .rwdata	00000004 __malloc_trim_threshold
03045654 g     F .text	000003d8 build_wave_play_list
0305f904 g     F .text	00000034 exit
030446b4 g     F .text	00000084 LED_LightCount
03056f10 g     F .text	00000038 fiprintf
0305728c g     F .text	00000004 _vfiprintf_r
030461f4 g     F .text	00000318 handle_IrDA
03043a18 g     F .text	00000154 fatMountSdcard
0304b18c g     F .text	000000a8 _fwalk_reent
03049290 g     F .text	000000fc .hidden __floatunsisf
030537d0 g     F .text	0000022c __mdiff
03045a2c g     F .text	00000260 waveplay_start
0305ea8c g     F .text	00000054 alt_flash_close_dev
030489b0 g     F .text	00000074 .hidden __modsi3
03080000 g       *ABS*	00000000 __alt_data_end
03040020 g     F .exceptions	00000000 alt_exception
0304a6b0 g     F .text	00000004 __sfp_lock_release
03046e9c g     F .text	00000338 SDLIB_Init
03060b38 g     O .rodata	00000101 _ctype_
03059eac g     F .text	00000054 .hidden __unorddf2
030484ec g     F .text	000001a8 SD_CMD17
0305defc g     F .text	00000054 altera_avalon_uart_close
0304a6e4 g     F .text	000000f0 _fopen_r
0305a200 g     F .text	00000038 _exit
030452b4 g     F .text	000000a0 demo_introduce
0305e364 g     F .text	00000160 alt_alarm_start
0304b3cc g     F .text	000001b0 __smakebuf_r
0305be1c g     F .text	00000034 alt_write_native_32bit
0304c748 g     F .text	00000098 strlen
030573d8 g     F .text	0000005c _init_signal_r
0305aac0 g     F .text	00000154 open
03040dc0 g     F .text	00000038 AUDIO_DacFifoNotFull
03058d5c g     F .text	000000e8 .hidden __gedf2
0305b5ec g     F .text	0000008c alt_flash_cfi_get_info
03056da4 g     F .text	00000014 __assert
0305589c g     F .text	00000018 __sprint_r
0305eb80 g     F .text	00000034 alt_icache_flush_all
03062b80 g     O .rwdata	00000004 alt_priority_mask
0305ec04 g     F .text	00000088 alt_ic_irq_enable
03046c90 g     F .text	000001ac SDHAL_WriteData
03044cac g     F .text	00000094 Wave_GetSampleRate
03050778 g     F .text	0000001c __vfprintf_internal
030425d4 g     F .text	00000184 fatFindUnusedCluster
0305df8c g     F .text	000001e8 altera_avalon_uart_read
03057384 g     F .text	0000000c _wctomb_r
03044dc0 g     F .text	00000080 Wave_GetSampleBitNum
030595a0 g     F .text	0000090c .hidden __subdf3
030453e4 g     F .text	00000054 DisplayTime
030530f4 g     F .text	000000b0 __lo0bits
03062b88 g     O .rwdata	00000008 alt_alarm_list
0305e7c4 g     F .text	00000064 _do_ctors
03057808 g     F .text	000000bc __sigtramp
0304883c g     F .text	00000040 SD_ReadData
030572fc g     F .text	00000088 wcrtomb
0305a104 g     F .text	000000d0 close
0305ef9c g     F .text	00000068 alt_program_amd
03040f3c g     F .text	00000050 Fat_Unmount
03061640 g     O .rwdata	0000016c __global_locale
0305a774 g     F .text	00000084 alt_load
030570d0 g     F .text	00000078 fputwc
0305764c g     F .text	000000bc raise
0304b624 g     F .text	00000010 free
0304a6b4 g     F .text	00000004 __sinit_lock_acquire
03052e20 g     F .text	00000138 __multadd
03042a60 g     F .text	00000044 fatIsLastDir
03052dfc g     F .text	00000024 _Bfree
030479d4 g     F .text	0000018c SD_CMD3
030471d4 g     F .text	0000007c SDLIB_ReadBlock512



Disassembly of section .entry:

03040000 <__reset>:
#if NIOS2_ICACHE_SIZE > 0 && defined(ALT_ALLOW_CODE_AT_RESET) && !defined(ALT_SIM_OPTIMIZE)
    /* Assume the instruction cache size is always a power of two. */
#if NIOS2_ICACHE_SIZE > 0x8000
    movhi r2, %hi(NIOS2_ICACHE_SIZE)
#else
    movui r2, NIOS2_ICACHE_SIZE
 3040000:	00840014 	movui	r2,4096
#endif

0:
    initi r2
 3040004:	1001483a 	initi	r2
    addi r2, r2, -NIOS2_ICACHE_LINE_SIZE
 3040008:	10bff804 	addi	r2,r2,-32
    bgt r2, zero, 0b
 304000c:	00bffd16 	blt	zero,r2,3040004 <__reset+0x4>
 * Jump to the _start entry point in the .text section if reset code
 * is allowed or if optimizing for RTL simulation.
 */
#if defined(ALT_ALLOW_CODE_AT_RESET) || defined(ALT_SIM_OPTIMIZE)
    /* Jump to the _start entry point in the .text section. */
    movhi r1, %hi(_start)
 3040010:	0040c134 	movhi	at,772
    ori r1, r1, %lo(_start)
 3040014:	08406d14 	ori	at,at,436
    jmp r1
 3040018:	0800683a 	jmp	at
 304001c:	00000000 	call	0 <__alt_mem_cfi_flash-0x2800000>

Disassembly of section .exceptions:

03040020 <alt_exception>:

#else /* ALT_EXCEPTION_STACK disabled */
        /* 
         * Reserve space on normal stack for registers about to be pushed.
         */
        addi  sp, sp, -76
 3040020:	deffed04 	addi	sp,sp,-76
         * documentation for details).
         *
         * Leave a gap in the stack frame at 4(sp) for the muldiv handler to
         * store zero into.
         */
        stw   ra,  0(sp)
 3040024:	dfc00015 	stw	ra,0(sp)
        stw   r1,   8(sp)
 3040028:	d8400215 	stw	at,8(sp)
        stw   r2,  12(sp)
 304002c:	d8800315 	stw	r2,12(sp)
        stw   r3,  16(sp)
 3040030:	d8c00415 	stw	r3,16(sp)
        stw   r4,  20(sp)
 3040034:	d9000515 	stw	r4,20(sp)
        stw   r5,  24(sp)
 3040038:	d9400615 	stw	r5,24(sp)
        stw   r6,  28(sp)
 304003c:	d9800715 	stw	r6,28(sp)
        stw   r7,  32(sp)
 3040040:	d9c00815 	stw	r7,32(sp)
        rdctl r5, estatus   /* Read early to avoid usage stall */
 3040044:	000b307a 	rdctl	r5,estatus
        stw   r8,  36(sp)
 3040048:	da000915 	stw	r8,36(sp)
        stw   r9,  40(sp)
 304004c:	da400a15 	stw	r9,40(sp)
        stw   r10, 44(sp)
 3040050:	da800b15 	stw	r10,44(sp)
        stw   r11, 48(sp)
 3040054:	dac00c15 	stw	r11,48(sp)
        stw   r12, 52(sp)
 3040058:	db000d15 	stw	r12,52(sp)
        stw   r13, 56(sp)
 304005c:	db400e15 	stw	r13,56(sp)
        stw   r14, 60(sp)
 3040060:	db800f15 	stw	r14,60(sp)
        stw   r15, 64(sp)
 3040064:	dbc01015 	stw	r15,64(sp)
        /*
         * ea-4 contains the address of the instruction being executed
         * when the exception occured. For interrupt exceptions, we will
         * will be re-issue the isntruction. Store it in 72(sp)
         */
        stw   r5,  68(sp)  /* estatus */
 3040068:	d9401115 	stw	r5,68(sp)
        addi  r15, ea, -4  /* instruction that caused exception */
 304006c:	ebffff04 	addi	r15,ea,-4
        stw   r15,  72(sp)
 3040070:	dbc01215 	stw	r15,72(sp)
#else
        /*
         * Test to see if the exception was a software exception or caused 
         * by an external interrupt, and vector accordingly.
         */
        rdctl r4, ipending
 3040074:	0009313a 	rdctl	r4,ipending
        andi  r2, r5, 1
 3040078:	2880004c 	andi	r2,r5,1
        beq   r2, zero, .Lnot_irq
 304007c:	10000326 	beq	r2,zero,304008c <alt_exception+0x6c>
        beq   r4, zero, .Lnot_irq
 3040080:	20000226 	beq	r4,zero,304008c <alt_exception+0x6c>
        /*
         * Now that all necessary registers have been preserved, call 
         * alt_irq_handler() to process the interrupts.
         */

        call alt_irq_handler
 3040084:	30400ec0 	call	30400ec <alt_irq_handler>

        .section .exceptions.irqreturn, "xa"

        br    .Lexception_exit
 3040088:	00000306 	br	3040098 <alt_exception_unknown+0x4>
         * upon completion, so we write ea (address of instruction *after*
         * the one where the exception occured) into 72(sp). The actual
         * instruction that caused the exception is written in r2, which these
         * handlers will utilize.
         */
        stw   ea,  72(sp)  /* Don't re-issue */
 304008c:	df401215 	stw	ea,72(sp)
        ldw   r2, -4(ea)   /* Instruction that caused exception */
 3040090:	e8bfff17 	ldw	r2,-4(ea)

03040094 <alt_exception_unknown>:
#ifdef NIOS2_HAS_DEBUG_STUB
       /*
        *  Either tell the user now (if there is a debugger attached) or go into
        *  the debug monitor which will loop until a debugger is attached.
        */
        break
 3040094:	003da03a 	break	0
        /* 
         * Restore the saved registers, so that all general purpose registers 
         * have been restored to their state at the time the interrupt occured.
         */

        ldw   r5,  68(sp)
 3040098:	d9401117 	ldw	r5,68(sp)
        ldw   ea,  72(sp)  /* This becomes the PC once eret is executed */
 304009c:	df401217 	ldw	ea,72(sp)
        ldw   ra,   0(sp)
 30400a0:	dfc00017 	ldw	ra,0(sp)

        wrctl estatus, r5
 30400a4:	2801707a 	wrctl	estatus,r5

        ldw   r1,   8(sp)
 30400a8:	d8400217 	ldw	at,8(sp)
        ldw   r2,  12(sp)
 30400ac:	d8800317 	ldw	r2,12(sp)
        ldw   r3,  16(sp)
 30400b0:	d8c00417 	ldw	r3,16(sp)
        ldw   r4,  20(sp)
 30400b4:	d9000517 	ldw	r4,20(sp)
        ldw   r5,  24(sp)
 30400b8:	d9400617 	ldw	r5,24(sp)
        ldw   r6,  28(sp)
 30400bc:	d9800717 	ldw	r6,28(sp)
        ldw   r7,  32(sp)
 30400c0:	d9c00817 	ldw	r7,32(sp)

#if defined(ALT_EXCEPTION_STACK) && defined(ALT_STACK_CHECK)
        ldw   et, %gprel(alt_exception_old_stack_limit)(gp)
#endif

        ldw   r8,  36(sp)
 30400c4:	da000917 	ldw	r8,36(sp)
        ldw   r9,  40(sp)
 30400c8:	da400a17 	ldw	r9,40(sp)
        ldw   r10, 44(sp)
 30400cc:	da800b17 	ldw	r10,44(sp)
        ldw   r11, 48(sp)
 30400d0:	dac00c17 	ldw	r11,48(sp)
        ldw   r12, 52(sp)
 30400d4:	db000d17 	ldw	r12,52(sp)
        ldw   r13, 56(sp)
 30400d8:	db400e17 	ldw	r13,56(sp)
        ldw   r14, 60(sp)
 30400dc:	db800f17 	ldw	r14,60(sp)
        ldw   r15, 64(sp)
 30400e0:	dbc01017 	ldw	r15,64(sp)
        stw   et, %gprel(alt_stack_limit_value)(gp)
        stw   zero, %gprel(alt_exception_old_stack_limit)(gp)
#endif /* ALT_STACK_CHECK */
        ldw   sp,  76(sp)
#else /* ALT_EXCEPTION_STACK disabled */
        addi  sp, sp, 76
 30400e4:	dec01304 	addi	sp,sp,76

        /*
         * Return to the interrupted instruction.
         */

        eret
 30400e8:	ef80083a 	eret

030400ec <alt_irq_handler>:
 * instruction is present if the macro ALT_CI_INTERRUPT_VECTOR defined.
 */

void alt_irq_handler (void) __attribute__ ((section (".exceptions")));
void alt_irq_handler (void)
{
 30400ec:	defff904 	addi	sp,sp,-28
 30400f0:	dfc00615 	stw	ra,24(sp)
 30400f4:	df000515 	stw	fp,20(sp)
 30400f8:	df000504 	addi	fp,sp,20
  
  /*
   * Notify the operating system that we are at interrupt level.
   */ 
  
  ALT_OS_INT_ENTER();
 30400fc:	0001883a 	nop
#ifndef NIOS2_EIC_PRESENT
static ALT_INLINE alt_u32 ALT_ALWAYS_INLINE alt_irq_pending (void)
{
  alt_u32 active;

  NIOS2_READ_IPENDING (active);
 3040100:	0005313a 	rdctl	r2,ipending
 3040104:	e0bffc15 	stw	r2,-16(fp)

  return active;
 3040108:	e0bffc17 	ldw	r2,-16(fp)
   * Consider the case where the high priority interupt is asserted during
   * the interrupt entry sequence for a lower priority interrupt to see why
   * this is the case.
   */

  active = alt_irq_pending ();
 304010c:	e0bfff15 	stw	r2,-4(fp)

  do
  {
    i = 0;
 3040110:	e03ffd15 	stw	zero,-12(fp)
    mask = 1;
 3040114:	00800044 	movi	r2,1
 3040118:	e0bffe15 	stw	r2,-8(fp)
     * called to clear the interrupt condition.
     */

    do
    {
      if (active & mask)
 304011c:	e0ffff17 	ldw	r3,-4(fp)
 3040120:	e0bffe17 	ldw	r2,-8(fp)
 3040124:	1884703a 	and	r2,r3,r2
 3040128:	10001126 	beq	r2,zero,3040170 <alt_irq_handler+0x84>
      { 
#ifdef ALT_ENHANCED_INTERRUPT_API_PRESENT
        alt_irq[i].handler(alt_irq[i].context); 
 304012c:	e0bffd17 	ldw	r2,-12(fp)
 3040130:	100690fa 	slli	r3,r2,3
 3040134:	0080c1b4 	movhi	r2,774
 3040138:	1885883a 	add	r2,r3,r2
 304013c:	10d70c17 	ldw	r3,23600(r2)
 3040140:	e0bffd17 	ldw	r2,-12(fp)
 3040144:	100890fa 	slli	r4,r2,3
 3040148:	0080c1b4 	movhi	r2,774
 304014c:	2085883a 	add	r2,r4,r2
 3040150:	10970d17 	ldw	r2,23604(r2)
 3040154:	1009883a 	mov	r4,r2
 3040158:	183ee83a 	callr	r3
#else
        alt_irq[i].handler(alt_irq[i].context, i); 
#endif
        break;
 304015c:	0001883a 	nop
  NIOS2_READ_IPENDING (active);
 3040160:	0005313a 	rdctl	r2,ipending
 3040164:	e0bffb15 	stw	r2,-20(fp)
  return active;
 3040168:	e0bffb17 	ldw	r2,-20(fp)
 304016c:	00000706 	br	304018c <alt_irq_handler+0xa0>
      }
      mask <<= 1;
 3040170:	e0bffe17 	ldw	r2,-8(fp)
 3040174:	1085883a 	add	r2,r2,r2
 3040178:	e0bffe15 	stw	r2,-8(fp)
      i++;
 304017c:	e0bffd17 	ldw	r2,-12(fp)
 3040180:	10800044 	addi	r2,r2,1
 3040184:	e0bffd15 	stw	r2,-12(fp)
      if (active & mask)
 3040188:	003fe406 	br	304011c <alt_irq_handler+0x30>

    } while (1);

    active = alt_irq_pending ();
 304018c:	e0bfff15 	stw	r2,-4(fp)
    
  } while (active);
 3040190:	e0bfff17 	ldw	r2,-4(fp)
 3040194:	103fde1e 	bne	r2,zero,3040110 <alt_irq_handler+0x24>

  /*
   * Notify the operating system that interrupt processing is complete.
   */ 

  ALT_OS_INT_EXIT();
 3040198:	0001883a 	nop
}
 304019c:	0001883a 	nop
 30401a0:	e037883a 	mov	sp,fp
 30401a4:	dfc00117 	ldw	ra,4(sp)
 30401a8:	df000017 	ldw	fp,0(sp)
 30401ac:	dec00204 	addi	sp,sp,8
 30401b0:	f800283a 	ret

Disassembly of section .text:

030401b4 <_start>:

    /* Assume the data cache size is always a power of two. */
#if NIOS2_DCACHE_SIZE > 0x8000
    movhi r2, %hi(NIOS2_DCACHE_SIZE)
#else
    movui r2, NIOS2_DCACHE_SIZE
 30401b4:	00820014 	movui	r2,2048
#endif

0:
    initd 0(r2)
 30401b8:	10000033 	initd	0(r2)
#ifdef NIOS2_ECC_PRESENT
    addi r2, r2, -4
#else
    addi r2, r2, -NIOS2_DCACHE_LINE_SIZE
 30401bc:	10bff804 	addi	r2,r2,-32
#endif
    bgt r2, zero, 0b
 30401c0:	00bffd16 	blt	zero,r2,30401b8 <_start+0x4>

    /*
     * Now that the caches are initialized, set up the stack pointer and global pointer.
     * The values provided by the linker are assumed to be correctly aligned.
     */
    movhi sp, %hi(__alt_stack_pointer)
 30401c4:	06c0c234 	movhi	sp,776
    ori sp, sp, %lo(__alt_stack_pointer)
 30401c8:	dec00014 	ori	sp,sp,0
    movhi gp, %hi(_gp)
 30401cc:	0680c1b4 	movhi	gp,774
    ori gp, gp, %lo(_gp)
 30401d0:	d6aad514 	ori	gp,gp,43860
 */
#ifndef ALT_SIM_OPTIMIZE
    /* Log that the BSS is about to be cleared. */
    ALT_LOG_PUTS(alt_log_msg_bss)

    movhi r2, %hi(__bss_start)
 30401d4:	0080c1b4 	movhi	r2,774
    ori r2, r2, %lo(__bss_start)
 30401d8:	10924b14 	ori	r2,r2,18732

    movhi r3, %hi(__bss_end)
 30401dc:	00c0c1b4 	movhi	r3,774
    ori r3, r3, %lo(__bss_end)
 30401e0:	18d74c14 	ori	r3,r3,23856

    beq r2, r3, 1f
 30401e4:	10c00326 	beq	r2,r3,30401f4 <_start+0x40>

0:
    stw zero, (r2)
 30401e8:	10000015 	stw	zero,0(r2)
    addi r2, r2, 4
 30401ec:	10800104 	addi	r2,r2,4
    bltu r2, r3, 0b
 30401f0:	10fffd36 	bltu	r2,r3,30401e8 <_start+0x34>
     * section aren't defined until alt_load() has been called).
     */
    mov   et, zero
#endif

    call alt_load
 30401f4:	305a7740 	call	305a774 <alt_load>

    /* Log that alt_main is about to be called. */
    ALT_LOG_PUTS(alt_log_msg_alt_main)

    /* Call the C entry point. It should never return. */
    call alt_main
 30401f8:	305a9080 	call	305a908 <alt_main>

030401fc <alt_after_alt_main>:

    /* Wait in infinite loop in case alt_main does return. */
alt_after_alt_main:
    br alt_after_alt_main
 30401fc:	003fff06 	br	30401fc <alt_after_alt_main>

03040200 <AUDIO_Init>:

/////////////////////////////////////////////////////////////////////////
///////////// External function body ////////////////////////////////////
/////////////////////////////////////////////////////////////////////////

bool AUDIO_Init(void){
 3040200:	defffd04 	addi	sp,sp,-12
 3040204:	dfc00215 	stw	ra,8(sp)
 3040208:	df000115 	stw	fp,4(sp)
 304020c:	df000104 	addi	fp,sp,4
   bool bSuccess = TRUE;
 3040210:	00800044 	movi	r2,1
 3040214:	e0bfff15 	stw	r2,-4(fp)
    AUDIO_DEBUG(("[AUDIO] AUDIO_Init...\r\n"));
 3040218:	0100c1b4 	movhi	r4,774
 304021c:	213ed804 	addi	r4,r4,-1184
 3040220:	30450c80 	call	30450c8 <myprintf>

    if (bSuccess)
 3040224:	e0bfff17 	ldw	r2,-4(fp)
 3040228:	10000426 	beq	r2,zero,304023c <AUDIO_Init+0x3c>
        bSuccess = aduio_RegWrite(15, 0x0000);  // reset
 304022c:	000b883a 	mov	r5,zero
 3040230:	010003c4 	movi	r4,15
 3040234:	3040ccc0 	call	3040ccc <aduio_RegWrite>
 3040238:	e0bfff15 	stw	r2,-4(fp)
        
    if (bSuccess)
 304023c:	e0bfff17 	ldw	r2,-4(fp)
 3040240:	10000426 	beq	r2,zero,3040254 <AUDIO_Init+0x54>
        bSuccess = aduio_RegWrite(9, 0x0000);  // inactive interface         
 3040244:	000b883a 	mov	r5,zero
 3040248:	01000244 	movi	r4,9
 304024c:	3040ccc0 	call	3040ccc <aduio_RegWrite>
 3040250:	e0bfff15 	stw	r2,-4(fp)
       
    //usleep(20*1000);    
    if (bSuccess)
 3040254:	e0bfff17 	ldw	r2,-4(fp)
 3040258:	10000426 	beq	r2,zero,304026c <AUDIO_Init+0x6c>
        bSuccess = aduio_RegWrite(0, 0x0017);  // Left Line In: set left line in volume
 304025c:	014005c4 	movi	r5,23
 3040260:	0009883a 	mov	r4,zero
 3040264:	3040ccc0 	call	3040ccc <aduio_RegWrite>
 3040268:	e0bfff15 	stw	r2,-4(fp)
        
    if (bSuccess)
 304026c:	e0bfff17 	ldw	r2,-4(fp)
 3040270:	10000426 	beq	r2,zero,3040284 <AUDIO_Init+0x84>
        bSuccess = aduio_RegWrite(1, 0x0017);  // Right Line In: set right line in volume
 3040274:	014005c4 	movi	r5,23
 3040278:	01000044 	movi	r4,1
 304027c:	3040ccc0 	call	3040ccc <aduio_RegWrite>
 3040280:	e0bfff15 	stw	r2,-4(fp)
        
    if (bSuccess)
 3040284:	e0bfff17 	ldw	r2,-4(fp)
 3040288:	10000426 	beq	r2,zero,304029c <AUDIO_Init+0x9c>
        bSuccess = aduio_RegWrite(2, 0x005B);  // Left Headphone Out: set left line out volume
 304028c:	014016c4 	movi	r5,91
 3040290:	01000084 	movi	r4,2
 3040294:	3040ccc0 	call	3040ccc <aduio_RegWrite>
 3040298:	e0bfff15 	stw	r2,-4(fp)
        
    if (bSuccess)
 304029c:	e0bfff17 	ldw	r2,-4(fp)
 30402a0:	10000426 	beq	r2,zero,30402b4 <AUDIO_Init+0xb4>
        bSuccess = aduio_RegWrite(3, 0x005B);  // Right Headphone Out: set right line out volume
 30402a4:	014016c4 	movi	r5,91
 30402a8:	010000c4 	movi	r4,3
 30402ac:	3040ccc0 	call	3040ccc <aduio_RegWrite>
 30402b0:	e0bfff15 	stw	r2,-4(fp)
        
    if (bSuccess)   // enable mic-boost, bypass and sidetone   
 30402b4:	e0bfff17 	ldw	r2,-4(fp)
 30402b8:	10000426 	beq	r2,zero,30402cc <AUDIO_Init+0xcc>
        bSuccess = aduio_RegWrite(4, 0x0015 | 0x20 | 0x08 | 0x01);  // Analogue Audio Path Control: set mic as input and boost it, and enable dac          
 30402bc:	01400f44 	movi	r5,61
 30402c0:	01000104 	movi	r4,4
 30402c4:	3040ccc0 	call	3040ccc <aduio_RegWrite>
 30402c8:	e0bfff15 	stw	r2,-4(fp)
       // bSuccess = aduio_RegWrite(4, 0x0015);  // Analogue Audio Path Control: set mic as input and boost it, and enable dac         
                
    if (bSuccess)
 30402cc:	e0bfff17 	ldw	r2,-4(fp)
 30402d0:	10000426 	beq	r2,zero,30402e4 <AUDIO_Init+0xe4>
        bSuccess = aduio_RegWrite(5, 0x0000);  // Digital Audio Path Control: disable soft mute         
 30402d4:	000b883a 	mov	r5,zero
 30402d8:	01000144 	movi	r4,5
 30402dc:	3040ccc0 	call	3040ccc <aduio_RegWrite>
 30402e0:	e0bfff15 	stw	r2,-4(fp)

    if (bSuccess)
 30402e4:	e0bfff17 	ldw	r2,-4(fp)
 30402e8:	10000426 	beq	r2,zero,30402fc <AUDIO_Init+0xfc>
        bSuccess = aduio_RegWrite(6, 0);  // power down control: power on all         
 30402ec:	000b883a 	mov	r5,zero
 30402f0:	01000184 	movi	r4,6
 30402f4:	3040ccc0 	call	3040ccc <aduio_RegWrite>
 30402f8:	e0bfff15 	stw	r2,-4(fp)

    if (bSuccess)
 30402fc:	e0bfff17 	ldw	r2,-4(fp)
 3040300:	10000426 	beq	r2,zero,3040314 <AUDIO_Init+0x114>
        bSuccess = aduio_RegWrite(7, 0x0042);  // I2S, iwl=16-bits, Enable Master Mode         
 3040304:	01401084 	movi	r5,66
 3040308:	010001c4 	movi	r4,7
 304030c:	3040ccc0 	call	3040ccc <aduio_RegWrite>
 3040310:	e0bfff15 	stw	r2,-4(fp)
//        bSuccess = aduio_RegWrite(7, 0x0041);  // MSB-First, left justified, iwl=16-bits, Enable Master Mode         

    if (bSuccess)
 3040314:	e0bfff17 	ldw	r2,-4(fp)
 3040318:	10000426 	beq	r2,zero,304032c <AUDIO_Init+0x12c>
        bSuccess = aduio_RegWrite(8, 0x0002);  // Normal, Base OVer-Sampleing Rate 384 fs (BOSR=1)         
 304031c:	01400084 	movi	r5,2
 3040320:	01000204 	movi	r4,8
 3040324:	3040ccc0 	call	3040ccc <aduio_RegWrite>
 3040328:	e0bfff15 	stw	r2,-4(fp)


    if (bSuccess)
 304032c:	e0bfff17 	ldw	r2,-4(fp)
 3040330:	10000426 	beq	r2,zero,3040344 <AUDIO_Init+0x144>
        bSuccess = aduio_RegWrite(9, 0x0001);  // active interface
 3040334:	01400044 	movi	r5,1
 3040338:	01000244 	movi	r4,9
 304033c:	3040ccc0 	call	3040ccc <aduio_RegWrite>
 3040340:	e0bfff15 	stw	r2,-4(fp)
        
        
         
    AUDIO_DEBUG(("[AUDIO] AUDIO_Init %s\r\n", bSuccess?"success":"fail"));        
 3040344:	e0bfff17 	ldw	r2,-4(fp)
 3040348:	10000326 	beq	r2,zero,3040358 <AUDIO_Init+0x158>
 304034c:	0080c1b4 	movhi	r2,774
 3040350:	10bede04 	addi	r2,r2,-1160
 3040354:	00000206 	br	3040360 <AUDIO_Init+0x160>
 3040358:	0080c1b4 	movhi	r2,774
 304035c:	10bee004 	addi	r2,r2,-1152
 3040360:	100b883a 	mov	r5,r2
 3040364:	0100c1b4 	movhi	r4,774
 3040368:	213ee204 	addi	r4,r4,-1144
 304036c:	30450c80 	call	30450c8 <myprintf>
    
    return bSuccess;        
 3040370:	e0bfff17 	ldw	r2,-4(fp)
         
}
 3040374:	e037883a 	mov	sp,fp
 3040378:	dfc00117 	ldw	ra,4(sp)
 304037c:	df000017 	ldw	fp,0(sp)
 3040380:	dec00204 	addi	sp,sp,8
 3040384:	f800283a 	ret

03040388 <AUDIO_InterfaceActive>:

bool AUDIO_InterfaceActive(bool bActive){
 3040388:	defffc04 	addi	sp,sp,-16
 304038c:	dfc00315 	stw	ra,12(sp)
 3040390:	df000215 	stw	fp,8(sp)
 3040394:	df000204 	addi	fp,sp,8
 3040398:	e13ffe15 	stw	r4,-8(fp)
    bool bSuccess;
    bSuccess = aduio_RegWrite(9, bActive?0x0001:0x0000); 
 304039c:	e0bffe17 	ldw	r2,-8(fp)
 30403a0:	1004c03a 	cmpne	r2,r2,zero
 30403a4:	10803fcc 	andi	r2,r2,255
 30403a8:	100b883a 	mov	r5,r2
 30403ac:	01000244 	movi	r4,9
 30403b0:	3040ccc0 	call	3040ccc <aduio_RegWrite>
 30403b4:	e0bfff15 	stw	r2,-4(fp)
    return bSuccess;
 30403b8:	e0bfff17 	ldw	r2,-4(fp)
}
 30403bc:	e037883a 	mov	sp,fp
 30403c0:	dfc00117 	ldw	ra,4(sp)
 30403c4:	df000017 	ldw	fp,0(sp)
 30403c8:	dec00204 	addi	sp,sp,8
 30403cc:	f800283a 	ret

030403d0 <AUDIO_MicBoost>:

bool AUDIO_MicBoost(bool bBoost){
 30403d0:	defffb04 	addi	sp,sp,-20
 30403d4:	dfc00415 	stw	ra,16(sp)
 30403d8:	df000315 	stw	fp,12(sp)
 30403dc:	df000304 	addi	fp,sp,12
 30403e0:	e13ffd15 	stw	r4,-12(fp)
    bool bSuccess;
    alt_u16 control;
    control = reg_file[4];
 30403e4:	0080c1b4 	movhi	r2,774
 30403e8:	10925d0b 	ldhu	r2,18804(r2)
 30403ec:	e0bfff8d 	sth	r2,-2(fp)
    if (bBoost)
 30403f0:	e0bffd17 	ldw	r2,-12(fp)
 30403f4:	10000426 	beq	r2,zero,3040408 <AUDIO_MicBoost+0x38>
        control |= 0x0001;
 30403f8:	e0bfff8b 	ldhu	r2,-2(fp)
 30403fc:	10800054 	ori	r2,r2,1
 3040400:	e0bfff8d 	sth	r2,-2(fp)
 3040404:	00000406 	br	3040418 <AUDIO_MicBoost+0x48>
    else        
        control &= 0xFFFE;
 3040408:	e0ffff8b 	ldhu	r3,-2(fp)
 304040c:	00bfff84 	movi	r2,-2
 3040410:	1884703a 	and	r2,r3,r2
 3040414:	e0bfff8d 	sth	r2,-2(fp)
    bSuccess = aduio_RegWrite(4, control);  // Left Line In: set left line in volume
 3040418:	e0bfff8b 	ldhu	r2,-2(fp)
 304041c:	100b883a 	mov	r5,r2
 3040420:	01000104 	movi	r4,4
 3040424:	3040ccc0 	call	3040ccc <aduio_RegWrite>
 3040428:	e0bffe15 	stw	r2,-8(fp)
    return bSuccess;
 304042c:	e0bffe17 	ldw	r2,-8(fp)
}
 3040430:	e037883a 	mov	sp,fp
 3040434:	dfc00117 	ldw	ra,4(sp)
 3040438:	df000017 	ldw	fp,0(sp)
 304043c:	dec00204 	addi	sp,sp,8
 3040440:	f800283a 	ret

03040444 <AUDIO_AdcEnableHighPassFilter>:

bool AUDIO_AdcEnableHighPassFilter(bool bEnable){
 3040444:	defffb04 	addi	sp,sp,-20
 3040448:	dfc00415 	stw	ra,16(sp)
 304044c:	df000315 	stw	fp,12(sp)
 3040450:	df000304 	addi	fp,sp,12
 3040454:	e13ffd15 	stw	r4,-12(fp)
    bool bSuccess;
    alt_u16 control;
    control = reg_file[5];
 3040458:	0080c1b4 	movhi	r2,774
 304045c:	10925d8b 	ldhu	r2,18806(r2)
 3040460:	e0bfff8d 	sth	r2,-2(fp)
    if (bEnable)
 3040464:	e0bffd17 	ldw	r2,-12(fp)
 3040468:	10000526 	beq	r2,zero,3040480 <AUDIO_AdcEnableHighPassFilter+0x3c>
        control &= 0xFFFE;
 304046c:	e0ffff8b 	ldhu	r3,-2(fp)
 3040470:	00bfff84 	movi	r2,-2
 3040474:	1884703a 	and	r2,r3,r2
 3040478:	e0bfff8d 	sth	r2,-2(fp)
 304047c:	00000306 	br	304048c <AUDIO_AdcEnableHighPassFilter+0x48>
    else        
        control |= 0x0001;
 3040480:	e0bfff8b 	ldhu	r2,-2(fp)
 3040484:	10800054 	ori	r2,r2,1
 3040488:	e0bfff8d 	sth	r2,-2(fp)
    bSuccess = aduio_RegWrite(5, control);  // Left Line In: set left line in volume
 304048c:	e0bfff8b 	ldhu	r2,-2(fp)
 3040490:	100b883a 	mov	r5,r2
 3040494:	01000144 	movi	r4,5
 3040498:	3040ccc0 	call	3040ccc <aduio_RegWrite>
 304049c:	e0bffe15 	stw	r2,-8(fp)
    return bSuccess;    
 30404a0:	e0bffe17 	ldw	r2,-8(fp)
}
 30404a4:	e037883a 	mov	sp,fp
 30404a8:	dfc00117 	ldw	ra,4(sp)
 30404ac:	df000017 	ldw	fp,0(sp)
 30404b0:	dec00204 	addi	sp,sp,8
 30404b4:	f800283a 	ret

030404b8 <AUDIO_DacDeemphasisControl>:



bool AUDIO_DacDeemphasisControl(alt_u8 deemphasis_type){
 30404b8:	defffb04 	addi	sp,sp,-20
 30404bc:	dfc00415 	stw	ra,16(sp)
 30404c0:	df000315 	stw	fp,12(sp)
 30404c4:	df000304 	addi	fp,sp,12
 30404c8:	2005883a 	mov	r2,r4
 30404cc:	e0bffd05 	stb	r2,-12(fp)
    bool bSuccess;
    alt_u16 control;
    control = reg_file[5];
 30404d0:	0080c1b4 	movhi	r2,774
 30404d4:	10925d8b 	ldhu	r2,18806(r2)
 30404d8:	e0bfff8d 	sth	r2,-2(fp)
    control &= 0xFFF9;
 30404dc:	e0ffff8b 	ldhu	r3,-2(fp)
 30404e0:	00bffe44 	movi	r2,-7
 30404e4:	1884703a 	and	r2,r3,r2
 30404e8:	e0bfff8d 	sth	r2,-2(fp)
    switch(deemphasis_type){
 30404ec:	e0bffd03 	ldbu	r2,-12(fp)
 30404f0:	10c000e0 	cmpeqi	r3,r2,3
 30404f4:	18000f1e 	bne	r3,zero,3040534 <AUDIO_DacDeemphasisControl+0x7c>
 30404f8:	10c00108 	cmpgei	r3,r2,4
 30404fc:	1800111e 	bne	r3,zero,3040544 <AUDIO_DacDeemphasisControl+0x8c>
 3040500:	10c00060 	cmpeqi	r3,r2,1
 3040504:	1800031e 	bne	r3,zero,3040514 <AUDIO_DacDeemphasisControl+0x5c>
 3040508:	108000a0 	cmpeqi	r2,r2,2
 304050c:	1000051e 	bne	r2,zero,3040524 <AUDIO_DacDeemphasisControl+0x6c>
 3040510:	00000c06 	br	3040544 <AUDIO_DacDeemphasisControl+0x8c>
        case DEEMPHASIS_48K: control |= ((0x03) << 1); break;
 3040514:	e0bfff8b 	ldhu	r2,-2(fp)
 3040518:	10800194 	ori	r2,r2,6
 304051c:	e0bfff8d 	sth	r2,-2(fp)
 3040520:	00000806 	br	3040544 <AUDIO_DacDeemphasisControl+0x8c>
        case DEEMPHASIS_44K1: control |= ((0x02) << 1); break;
 3040524:	e0bfff8b 	ldhu	r2,-2(fp)
 3040528:	10800114 	ori	r2,r2,4
 304052c:	e0bfff8d 	sth	r2,-2(fp)
 3040530:	00000406 	br	3040544 <AUDIO_DacDeemphasisControl+0x8c>
        case DEEMPHASIS_32K: control |= ((0x01) << 1); break;
 3040534:	e0bfff8b 	ldhu	r2,-2(fp)
 3040538:	10800094 	ori	r2,r2,2
 304053c:	e0bfff8d 	sth	r2,-2(fp)
 3040540:	0001883a 	nop
    }
    bSuccess = aduio_RegWrite(5, control);  // Left Line In: set left line in volume
 3040544:	e0bfff8b 	ldhu	r2,-2(fp)
 3040548:	100b883a 	mov	r5,r2
 304054c:	01000144 	movi	r4,5
 3040550:	3040ccc0 	call	3040ccc <aduio_RegWrite>
 3040554:	e0bffe15 	stw	r2,-8(fp)
    return bSuccess;       
 3040558:	e0bffe17 	ldw	r2,-8(fp)
}
 304055c:	e037883a 	mov	sp,fp
 3040560:	dfc00117 	ldw	ra,4(sp)
 3040564:	df000017 	ldw	fp,0(sp)
 3040568:	dec00204 	addi	sp,sp,8
 304056c:	f800283a 	ret

03040570 <AUDIO_DacEnableZeroCross>:

bool AUDIO_DacEnableZeroCross(bool bEnable){
 3040570:	defffa04 	addi	sp,sp,-24
 3040574:	dfc00515 	stw	ra,20(sp)
 3040578:	df000415 	stw	fp,16(sp)
 304057c:	df000404 	addi	fp,sp,16
 3040580:	e13ffc15 	stw	r4,-16(fp)
    bool bSuccess;
    alt_u16 control_l, control_r;
    alt_u16 mask;
    control_l = reg_file[2];
 3040584:	0080c1b4 	movhi	r2,774
 3040588:	10925c0b 	ldhu	r2,18800(r2)
 304058c:	e0bffe8d 	sth	r2,-6(fp)
    control_r = reg_file[3];
 3040590:	0080c1b4 	movhi	r2,774
 3040594:	10925c8b 	ldhu	r2,18802(r2)
 3040598:	e0bffe0d 	sth	r2,-8(fp)
    mask = 0x01 << 7;
 304059c:	00802004 	movi	r2,128
 30405a0:	e0bffd8d 	sth	r2,-10(fp)
    if (bEnable){
 30405a4:	e0bffc17 	ldw	r2,-16(fp)
 30405a8:	10000926 	beq	r2,zero,30405d0 <AUDIO_DacEnableZeroCross+0x60>
        control_l |= mask;
 30405ac:	e0fffe8b 	ldhu	r3,-6(fp)
 30405b0:	e0bffd8b 	ldhu	r2,-10(fp)
 30405b4:	1884b03a 	or	r2,r3,r2
 30405b8:	e0bffe8d 	sth	r2,-6(fp)
        control_r |= mask;
 30405bc:	e0fffe0b 	ldhu	r3,-8(fp)
 30405c0:	e0bffd8b 	ldhu	r2,-10(fp)
 30405c4:	1884b03a 	or	r2,r3,r2
 30405c8:	e0bffe0d 	sth	r2,-8(fp)
 30405cc:	00000c06 	br	3040600 <AUDIO_DacEnableZeroCross+0x90>
    }else{        
        control_l &= ~mask;
 30405d0:	e0bffd8b 	ldhu	r2,-10(fp)
 30405d4:	0084303a 	nor	r2,zero,r2
 30405d8:	1007883a 	mov	r3,r2
 30405dc:	e0bffe8b 	ldhu	r2,-6(fp)
 30405e0:	1884703a 	and	r2,r3,r2
 30405e4:	e0bffe8d 	sth	r2,-6(fp)
        control_r &= ~mask;
 30405e8:	e0bffd8b 	ldhu	r2,-10(fp)
 30405ec:	0084303a 	nor	r2,zero,r2
 30405f0:	1007883a 	mov	r3,r2
 30405f4:	e0bffe0b 	ldhu	r2,-8(fp)
 30405f8:	1884703a 	and	r2,r3,r2
 30405fc:	e0bffe0d 	sth	r2,-8(fp)
    }        
    bSuccess = aduio_RegWrite(2, control_l);  // Left Line In: set left line in volume
 3040600:	e0bffe8b 	ldhu	r2,-6(fp)
 3040604:	100b883a 	mov	r5,r2
 3040608:	01000084 	movi	r4,2
 304060c:	3040ccc0 	call	3040ccc <aduio_RegWrite>
 3040610:	e0bfff15 	stw	r2,-4(fp)
    if (bSuccess)
 3040614:	e0bfff17 	ldw	r2,-4(fp)
 3040618:	10000526 	beq	r2,zero,3040630 <AUDIO_DacEnableZeroCross+0xc0>
        bSuccess = aduio_RegWrite(3, control_r);  // Left Line In: set left line in volume
 304061c:	e0bffe0b 	ldhu	r2,-8(fp)
 3040620:	100b883a 	mov	r5,r2
 3040624:	010000c4 	movi	r4,3
 3040628:	3040ccc0 	call	3040ccc <aduio_RegWrite>
 304062c:	e0bfff15 	stw	r2,-4(fp)
    return bSuccess;      
 3040630:	e0bfff17 	ldw	r2,-4(fp)
}
 3040634:	e037883a 	mov	sp,fp
 3040638:	dfc00117 	ldw	ra,4(sp)
 304063c:	df000017 	ldw	fp,0(sp)
 3040640:	dec00204 	addi	sp,sp,8
 3040644:	f800283a 	ret

03040648 <AUDIO_DacEnableSoftMute>:

bool AUDIO_DacEnableSoftMute(bool bEnable){
 3040648:	defffb04 	addi	sp,sp,-20
 304064c:	dfc00415 	stw	ra,16(sp)
 3040650:	df000315 	stw	fp,12(sp)
 3040654:	df000304 	addi	fp,sp,12
 3040658:	e13ffd15 	stw	r4,-12(fp)
    bool bSuccess;
    alt_u16 control;
    alt_u16 mask;
    control = reg_file[5];
 304065c:	0080c1b4 	movhi	r2,774
 3040660:	10925d8b 	ldhu	r2,18806(r2)
 3040664:	e0bfff8d 	sth	r2,-2(fp)
    mask = 0x01 << 3;
 3040668:	00800204 	movi	r2,8
 304066c:	e0bfff0d 	sth	r2,-4(fp)
    if (bEnable)
 3040670:	e0bffd17 	ldw	r2,-12(fp)
 3040674:	10000526 	beq	r2,zero,304068c <AUDIO_DacEnableSoftMute+0x44>
        control |= mask;
 3040678:	e0ffff8b 	ldhu	r3,-2(fp)
 304067c:	e0bfff0b 	ldhu	r2,-4(fp)
 3040680:	1884b03a 	or	r2,r3,r2
 3040684:	e0bfff8d 	sth	r2,-2(fp)
 3040688:	00000606 	br	30406a4 <AUDIO_DacEnableSoftMute+0x5c>
    else        
        control &= ~mask;
 304068c:	e0bfff0b 	ldhu	r2,-4(fp)
 3040690:	0084303a 	nor	r2,zero,r2
 3040694:	1007883a 	mov	r3,r2
 3040698:	e0bfff8b 	ldhu	r2,-2(fp)
 304069c:	1884703a 	and	r2,r3,r2
 30406a0:	e0bfff8d 	sth	r2,-2(fp)
    bSuccess = aduio_RegWrite(5, control);  // Left Line In: set left line in volume
 30406a4:	e0bfff8b 	ldhu	r2,-2(fp)
 30406a8:	100b883a 	mov	r5,r2
 30406ac:	01000144 	movi	r4,5
 30406b0:	3040ccc0 	call	3040ccc <aduio_RegWrite>
 30406b4:	e0bffe15 	stw	r2,-8(fp)
    return bSuccess;      
 30406b8:	e0bffe17 	ldw	r2,-8(fp)
}
 30406bc:	e037883a 	mov	sp,fp
 30406c0:	dfc00117 	ldw	ra,4(sp)
 30406c4:	df000017 	ldw	fp,0(sp)
 30406c8:	dec00204 	addi	sp,sp,8
 30406cc:	f800283a 	ret

030406d0 <AUDIO_MicMute>:

bool AUDIO_MicMute(bool bMute){
 30406d0:	defffb04 	addi	sp,sp,-20
 30406d4:	dfc00415 	stw	ra,16(sp)
 30406d8:	df000315 	stw	fp,12(sp)
 30406dc:	df000304 	addi	fp,sp,12
 30406e0:	e13ffd15 	stw	r4,-12(fp)
    bool bSuccess;
    alt_u16 control;
    alt_u16 mask;
    control = reg_file[4];
 30406e4:	0080c1b4 	movhi	r2,774
 30406e8:	10925d0b 	ldhu	r2,18804(r2)
 30406ec:	e0bfff8d 	sth	r2,-2(fp)
    mask = 0x01 << 1;
 30406f0:	00800084 	movi	r2,2
 30406f4:	e0bfff0d 	sth	r2,-4(fp)
    if (bMute)
 30406f8:	e0bffd17 	ldw	r2,-12(fp)
 30406fc:	10000526 	beq	r2,zero,3040714 <AUDIO_MicMute+0x44>
        control |= mask;
 3040700:	e0ffff8b 	ldhu	r3,-2(fp)
 3040704:	e0bfff0b 	ldhu	r2,-4(fp)
 3040708:	1884b03a 	or	r2,r3,r2
 304070c:	e0bfff8d 	sth	r2,-2(fp)
 3040710:	00000606 	br	304072c <AUDIO_MicMute+0x5c>
    else        
        control &= ~mask;
 3040714:	e0bfff0b 	ldhu	r2,-4(fp)
 3040718:	0084303a 	nor	r2,zero,r2
 304071c:	1007883a 	mov	r3,r2
 3040720:	e0bfff8b 	ldhu	r2,-2(fp)
 3040724:	1884703a 	and	r2,r3,r2
 3040728:	e0bfff8d 	sth	r2,-2(fp)
    bSuccess = aduio_RegWrite(4, control);  // Left Line In: set left line in volume
 304072c:	e0bfff8b 	ldhu	r2,-2(fp)
 3040730:	100b883a 	mov	r5,r2
 3040734:	01000104 	movi	r4,4
 3040738:	3040ccc0 	call	3040ccc <aduio_RegWrite>
 304073c:	e0bffe15 	stw	r2,-8(fp)
    return bSuccess;        
 3040740:	e0bffe17 	ldw	r2,-8(fp)
}
 3040744:	e037883a 	mov	sp,fp
 3040748:	dfc00117 	ldw	ra,4(sp)
 304074c:	df000017 	ldw	fp,0(sp)
 3040750:	dec00204 	addi	sp,sp,8
 3040754:	f800283a 	ret

03040758 <AUDIO_LineInMute>:

bool AUDIO_LineInMute(bool bMute){
 3040758:	defffa04 	addi	sp,sp,-24
 304075c:	dfc00515 	stw	ra,20(sp)
 3040760:	df000415 	stw	fp,16(sp)
 3040764:	df000404 	addi	fp,sp,16
 3040768:	e13ffc15 	stw	r4,-16(fp)
    bool bSuccess;
    alt_u16 control_l, control_r;
    alt_u16 mask;
    control_l = reg_file[0];
 304076c:	0080c1b4 	movhi	r2,774
 3040770:	10925b0b 	ldhu	r2,18796(r2)
 3040774:	e0bffe8d 	sth	r2,-6(fp)
    control_r = reg_file[1];
 3040778:	0080c1b4 	movhi	r2,774
 304077c:	10925b8b 	ldhu	r2,18798(r2)
 3040780:	e0bffe0d 	sth	r2,-8(fp)
    mask = 0x01 << 7;
 3040784:	00802004 	movi	r2,128
 3040788:	e0bffd8d 	sth	r2,-10(fp)
    if (bMute){
 304078c:	e0bffc17 	ldw	r2,-16(fp)
 3040790:	10000926 	beq	r2,zero,30407b8 <AUDIO_LineInMute+0x60>
        control_l |= mask;
 3040794:	e0fffe8b 	ldhu	r3,-6(fp)
 3040798:	e0bffd8b 	ldhu	r2,-10(fp)
 304079c:	1884b03a 	or	r2,r3,r2
 30407a0:	e0bffe8d 	sth	r2,-6(fp)
        control_r |= mask;
 30407a4:	e0fffe0b 	ldhu	r3,-8(fp)
 30407a8:	e0bffd8b 	ldhu	r2,-10(fp)
 30407ac:	1884b03a 	or	r2,r3,r2
 30407b0:	e0bffe0d 	sth	r2,-8(fp)
 30407b4:	00000c06 	br	30407e8 <AUDIO_LineInMute+0x90>
    }else{        
        control_l &= ~mask;
 30407b8:	e0bffd8b 	ldhu	r2,-10(fp)
 30407bc:	0084303a 	nor	r2,zero,r2
 30407c0:	1007883a 	mov	r3,r2
 30407c4:	e0bffe8b 	ldhu	r2,-6(fp)
 30407c8:	1884703a 	and	r2,r3,r2
 30407cc:	e0bffe8d 	sth	r2,-6(fp)
        control_r &= ~mask;
 30407d0:	e0bffd8b 	ldhu	r2,-10(fp)
 30407d4:	0084303a 	nor	r2,zero,r2
 30407d8:	1007883a 	mov	r3,r2
 30407dc:	e0bffe0b 	ldhu	r2,-8(fp)
 30407e0:	1884703a 	and	r2,r3,r2
 30407e4:	e0bffe0d 	sth	r2,-8(fp)
    }        
    bSuccess = aduio_RegWrite(0, control_l);  // Left Line In: set left line in volume
 30407e8:	e0bffe8b 	ldhu	r2,-6(fp)
 30407ec:	100b883a 	mov	r5,r2
 30407f0:	0009883a 	mov	r4,zero
 30407f4:	3040ccc0 	call	3040ccc <aduio_RegWrite>
 30407f8:	e0bfff15 	stw	r2,-4(fp)
    if (bSuccess)
 30407fc:	e0bfff17 	ldw	r2,-4(fp)
 3040800:	10000526 	beq	r2,zero,3040818 <AUDIO_LineInMute+0xc0>
        bSuccess = aduio_RegWrite(1, control_r);  // Left Line In: set left line in volume
 3040804:	e0bffe0b 	ldhu	r2,-8(fp)
 3040808:	100b883a 	mov	r5,r2
 304080c:	01000044 	movi	r4,1
 3040810:	3040ccc0 	call	3040ccc <aduio_RegWrite>
 3040814:	e0bfff15 	stw	r2,-4(fp)
    return bSuccess;        
 3040818:	e0bfff17 	ldw	r2,-4(fp)
}
 304081c:	e037883a 	mov	sp,fp
 3040820:	dfc00117 	ldw	ra,4(sp)
 3040824:	df000017 	ldw	fp,0(sp)
 3040828:	dec00204 	addi	sp,sp,8
 304082c:	f800283a 	ret

03040830 <AUDIO_SetInputSource>:



bool AUDIO_SetInputSource(alt_u8 InputSource){
 3040830:	defffb04 	addi	sp,sp,-20
 3040834:	dfc00415 	stw	ra,16(sp)
 3040838:	df000315 	stw	fp,12(sp)
 304083c:	df000304 	addi	fp,sp,12
 3040840:	2005883a 	mov	r2,r4
 3040844:	e0bffd05 	stb	r2,-12(fp)
    bool bSuccess;
    alt_u16 control;
    alt_u16 mask;
    control = reg_file[4];
 3040848:	0080c1b4 	movhi	r2,774
 304084c:	10925d0b 	ldhu	r2,18804(r2)
 3040850:	e0bfff8d 	sth	r2,-2(fp)
    mask = 0x01 << 2;
 3040854:	00800104 	movi	r2,4
 3040858:	e0bfff0d 	sth	r2,-4(fp)
    if (InputSource == SOURCE_MIC)
 304085c:	e0bffd03 	ldbu	r2,-12(fp)
 3040860:	1000051e 	bne	r2,zero,3040878 <AUDIO_SetInputSource+0x48>
        control |= mask;
 3040864:	e0ffff8b 	ldhu	r3,-2(fp)
 3040868:	e0bfff0b 	ldhu	r2,-4(fp)
 304086c:	1884b03a 	or	r2,r3,r2
 3040870:	e0bfff8d 	sth	r2,-2(fp)
 3040874:	00000606 	br	3040890 <AUDIO_SetInputSource+0x60>
    else        
        control &= ~mask;
 3040878:	e0bfff0b 	ldhu	r2,-4(fp)
 304087c:	0084303a 	nor	r2,zero,r2
 3040880:	1007883a 	mov	r3,r2
 3040884:	e0bfff8b 	ldhu	r2,-2(fp)
 3040888:	1884703a 	and	r2,r3,r2
 304088c:	e0bfff8d 	sth	r2,-2(fp)
    bSuccess = aduio_RegWrite(4, control);  // Left Line In: set left line in volume
 3040890:	e0bfff8b 	ldhu	r2,-2(fp)
 3040894:	100b883a 	mov	r5,r2
 3040898:	01000104 	movi	r4,4
 304089c:	3040ccc0 	call	3040ccc <aduio_RegWrite>
 30408a0:	e0bffe15 	stw	r2,-8(fp)
    return bSuccess;       
 30408a4:	e0bffe17 	ldw	r2,-8(fp)
}
 30408a8:	e037883a 	mov	sp,fp
 30408ac:	dfc00117 	ldw	ra,4(sp)
 30408b0:	df000017 	ldw	fp,0(sp)
 30408b4:	dec00204 	addi	sp,sp,8
 30408b8:	f800283a 	ret

030408bc <AUDIO_SetSampleRate>:

// See datasheet page 39
bool AUDIO_SetSampleRate(alt_u8 SampleRate){
 30408bc:	defffb04 	addi	sp,sp,-20
 30408c0:	dfc00415 	stw	ra,16(sp)
 30408c4:	df000315 	stw	fp,12(sp)
 30408c8:	df000304 	addi	fp,sp,12
 30408cc:	2005883a 	mov	r2,r4
 30408d0:	e0bffd05 	stb	r2,-12(fp)
    bool bSuccess;
    alt_u16 control;
    control = 0;
 30408d4:	e03fff8d 	sth	zero,-2(fp)

    switch(SampleRate){
 30408d8:	e0bffd03 	ldbu	r2,-12(fp)
 30408dc:	10c001e8 	cmpgeui	r3,r2,7
 30408e0:	1800201e 	bne	r3,zero,3040964 <AUDIO_SetSampleRate+0xa8>
 30408e4:	100690ba 	slli	r3,r2,2
 30408e8:	0080c134 	movhi	r2,772
 30408ec:	1885883a 	add	r2,r3,r2
 30408f0:	10823e17 	ldw	r2,2296(r2)
 30408f4:	1000683a 	jmp	r2
 30408f8:	03040914 	movui	r12,4132
 30408fc:	0304091c 	xori	r12,zero,4132
 3040900:	03040928 	cmpgeui	r12,zero,4132
 3040904:	03040934 	movhi	r12,4132
 3040908:	03040940 	call	304094 <__alt_mem_cfi_flash-0x24fbf6c>
 304090c:	0304094c 	andi	r12,zero,4133
 3040910:	03040958 	cmpnei	r12,zero,4133
         // MCLK = 18.432
        case RATE_ADC48K_DAC48K: control = (0x0) << 2; break;
 3040914:	e03fff8d 	sth	zero,-2(fp)
 3040918:	00001206 	br	3040964 <AUDIO_SetSampleRate+0xa8>
        case RATE_ADC48K_DAC8K: control = (0x1) << 2; break;
 304091c:	00800104 	movi	r2,4
 3040920:	e0bfff8d 	sth	r2,-2(fp)
 3040924:	00000f06 	br	3040964 <AUDIO_SetSampleRate+0xa8>
        case RATE_ADC8K_DAC48K: control = (0x2) << 2; break;
 3040928:	00800204 	movi	r2,8
 304092c:	e0bfff8d 	sth	r2,-2(fp)
 3040930:	00000c06 	br	3040964 <AUDIO_SetSampleRate+0xa8>
        case RATE_ADC8K_DAC8K: control = (0x3) << 2; break;
 3040934:	00800304 	movi	r2,12
 3040938:	e0bfff8d 	sth	r2,-2(fp)
 304093c:	00000906 	br	3040964 <AUDIO_SetSampleRate+0xa8>
        case RATE_ADC32K_DAC32K: control = (0x6) << 2; break;
 3040940:	00800604 	movi	r2,24
 3040944:	e0bfff8d 	sth	r2,-2(fp)
 3040948:	00000606 	br	3040964 <AUDIO_SetSampleRate+0xa8>
        case RATE_ADC96K_DAC96K: control = (0x7) << 2; break;
 304094c:	00800704 	movi	r2,28
 3040950:	e0bfff8d 	sth	r2,-2(fp)
 3040954:	00000306 	br	3040964 <AUDIO_SetSampleRate+0xa8>
        case RATE_ADC44K1_DAC44K1: control = (0x8) << 2; break;
 3040958:	00800804 	movi	r2,32
 304095c:	e0bfff8d 	sth	r2,-2(fp)
 3040960:	0001883a 	nop
        // MCLK = 11.2896
      //  case RATE_ADC44K1_DAC8K: control = (0x9) << 2; break;
      //  case RATE_ADC8K_DAC44K1: control = (0xA) << 2; break;
    }
    control |= 0x02; // BOSR=1 (384fs = 384*48k = 18.432M)
 3040964:	e0bfff8b 	ldhu	r2,-2(fp)
 3040968:	10800094 	ori	r2,r2,2
 304096c:	e0bfff8d 	sth	r2,-2(fp)
        
    bSuccess = aduio_RegWrite(8, control);  // Left Line In: set left line in volume
 3040970:	e0bfff8b 	ldhu	r2,-2(fp)
 3040974:	100b883a 	mov	r5,r2
 3040978:	01000204 	movi	r4,8
 304097c:	3040ccc0 	call	3040ccc <aduio_RegWrite>
 3040980:	e0bffe15 	stw	r2,-8(fp)
    return bSuccess;      
 3040984:	e0bffe17 	ldw	r2,-8(fp)
}
 3040988:	e037883a 	mov	sp,fp
 304098c:	dfc00117 	ldw	ra,4(sp)
 3040990:	df000017 	ldw	fp,0(sp)
 3040994:	dec00204 	addi	sp,sp,8
 3040998:	f800283a 	ret

0304099c <AUDIO_SetLineInVol>:





bool AUDIO_SetLineInVol(alt_u16 l_vol, alt_u16 r_vol){
 304099c:	defffa04 	addi	sp,sp,-24
 30409a0:	dfc00515 	stw	ra,20(sp)
 30409a4:	df000415 	stw	fp,16(sp)
 30409a8:	df000404 	addi	fp,sp,16
 30409ac:	2005883a 	mov	r2,r4
 30409b0:	2807883a 	mov	r3,r5
 30409b4:	e0bffd0d 	sth	r2,-12(fp)
 30409b8:	1805883a 	mov	r2,r3
 30409bc:	e0bffc0d 	sth	r2,-16(fp)
    bool bSuccess;
    alt_u16 control;
    
    // left
    control = reg_file[0];
 30409c0:	0080c1b4 	movhi	r2,774
 30409c4:	10925b0b 	ldhu	r2,18796(r2)
 30409c8:	e0bffe8d 	sth	r2,-6(fp)
    control &= 0xFFE0;
 30409cc:	e0fffe8b 	ldhu	r3,-6(fp)
 30409d0:	00bff804 	movi	r2,-32
 30409d4:	1884703a 	and	r2,r3,r2
 30409d8:	e0bffe8d 	sth	r2,-6(fp)
    control += l_vol & 0x1F;
 30409dc:	e0bffd0b 	ldhu	r2,-12(fp)
 30409e0:	108007cc 	andi	r2,r2,31
 30409e4:	1007883a 	mov	r3,r2
 30409e8:	e0bffe8b 	ldhu	r2,-6(fp)
 30409ec:	10c5883a 	add	r2,r2,r3
 30409f0:	e0bffe8d 	sth	r2,-6(fp)
    bSuccess = aduio_RegWrite(0, control);
 30409f4:	e0bffe8b 	ldhu	r2,-6(fp)
 30409f8:	100b883a 	mov	r5,r2
 30409fc:	0009883a 	mov	r4,zero
 3040a00:	3040ccc0 	call	3040ccc <aduio_RegWrite>
 3040a04:	e0bfff15 	stw	r2,-4(fp)
    
    if (bSuccess){
 3040a08:	e0bfff17 	ldw	r2,-4(fp)
 3040a0c:	10001226 	beq	r2,zero,3040a58 <AUDIO_SetLineInVol+0xbc>
        // right
        control = reg_file[1];
 3040a10:	0080c1b4 	movhi	r2,774
 3040a14:	10925b8b 	ldhu	r2,18798(r2)
 3040a18:	e0bffe8d 	sth	r2,-6(fp)
        control &= 0xFFE0;
 3040a1c:	e0fffe8b 	ldhu	r3,-6(fp)
 3040a20:	00bff804 	movi	r2,-32
 3040a24:	1884703a 	and	r2,r3,r2
 3040a28:	e0bffe8d 	sth	r2,-6(fp)
        control += r_vol & 0x1F;
 3040a2c:	e0bffc0b 	ldhu	r2,-16(fp)
 3040a30:	108007cc 	andi	r2,r2,31
 3040a34:	1007883a 	mov	r3,r2
 3040a38:	e0bffe8b 	ldhu	r2,-6(fp)
 3040a3c:	10c5883a 	add	r2,r2,r3
 3040a40:	e0bffe8d 	sth	r2,-6(fp)
        bSuccess = aduio_RegWrite(1, control);        
 3040a44:	e0bffe8b 	ldhu	r2,-6(fp)
 3040a48:	100b883a 	mov	r5,r2
 3040a4c:	01000044 	movi	r4,1
 3040a50:	3040ccc0 	call	3040ccc <aduio_RegWrite>
 3040a54:	e0bfff15 	stw	r2,-4(fp)
    }
    
    AUDIO_DEBUG(("[AUDIO] set Line-In vol(%d,%d) %s\r\n", l_vol, r_vol, bSuccess?"success":"fail"));        
 3040a58:	e0fffd0b 	ldhu	r3,-12(fp)
 3040a5c:	e13ffc0b 	ldhu	r4,-16(fp)
 3040a60:	e0bfff17 	ldw	r2,-4(fp)
 3040a64:	10000326 	beq	r2,zero,3040a74 <AUDIO_SetLineInVol+0xd8>
 3040a68:	0080c1b4 	movhi	r2,774
 3040a6c:	10bede04 	addi	r2,r2,-1160
 3040a70:	00000206 	br	3040a7c <AUDIO_SetLineInVol+0xe0>
 3040a74:	0080c1b4 	movhi	r2,774
 3040a78:	10bee004 	addi	r2,r2,-1152
 3040a7c:	100f883a 	mov	r7,r2
 3040a80:	200d883a 	mov	r6,r4
 3040a84:	180b883a 	mov	r5,r3
 3040a88:	0100c1b4 	movhi	r4,774
 3040a8c:	213ee804 	addi	r4,r4,-1120
 3040a90:	30450c80 	call	30450c8 <myprintf>
    return bSuccess;
 3040a94:	e0bfff17 	ldw	r2,-4(fp)
}
 3040a98:	e037883a 	mov	sp,fp
 3040a9c:	dfc00117 	ldw	ra,4(sp)
 3040aa0:	df000017 	ldw	fp,0(sp)
 3040aa4:	dec00204 	addi	sp,sp,8
 3040aa8:	f800283a 	ret

03040aac <AUDIO_SetLineOutVol>:

bool AUDIO_SetLineOutVol(alt_u16 l_vol, alt_u16 r_vol){
 3040aac:	defffa04 	addi	sp,sp,-24
 3040ab0:	dfc00515 	stw	ra,20(sp)
 3040ab4:	df000415 	stw	fp,16(sp)
 3040ab8:	df000404 	addi	fp,sp,16
 3040abc:	2005883a 	mov	r2,r4
 3040ac0:	2807883a 	mov	r3,r5
 3040ac4:	e0bffd0d 	sth	r2,-12(fp)
 3040ac8:	1805883a 	mov	r2,r3
 3040acc:	e0bffc0d 	sth	r2,-16(fp)
    bool bSuccess;
    alt_u16 control;

 
    // left
    control = reg_file[2];
 3040ad0:	0080c1b4 	movhi	r2,774
 3040ad4:	10925c0b 	ldhu	r2,18800(r2)
 3040ad8:	e0bffe8d 	sth	r2,-6(fp)
    control &= 0xFF80;
 3040adc:	e0fffe8b 	ldhu	r3,-6(fp)
 3040ae0:	00bfe004 	movi	r2,-128
 3040ae4:	1884703a 	and	r2,r3,r2
 3040ae8:	e0bffe8d 	sth	r2,-6(fp)
    control += l_vol & 0x7F;
 3040aec:	e0bffd0b 	ldhu	r2,-12(fp)
 3040af0:	10801fcc 	andi	r2,r2,127
 3040af4:	1007883a 	mov	r3,r2
 3040af8:	e0bffe8b 	ldhu	r2,-6(fp)
 3040afc:	10c5883a 	add	r2,r2,r3
 3040b00:	e0bffe8d 	sth	r2,-6(fp)
    bSuccess = aduio_RegWrite(2, control);
 3040b04:	e0bffe8b 	ldhu	r2,-6(fp)
 3040b08:	100b883a 	mov	r5,r2
 3040b0c:	01000084 	movi	r4,2
 3040b10:	3040ccc0 	call	3040ccc <aduio_RegWrite>
 3040b14:	e0bfff15 	stw	r2,-4(fp)
    
    if (bSuccess){
 3040b18:	e0bfff17 	ldw	r2,-4(fp)
 3040b1c:	10001226 	beq	r2,zero,3040b68 <AUDIO_SetLineOutVol+0xbc>
        // right
        control = reg_file[3];
 3040b20:	0080c1b4 	movhi	r2,774
 3040b24:	10925c8b 	ldhu	r2,18802(r2)
 3040b28:	e0bffe8d 	sth	r2,-6(fp)
        control &= 0xFF80;
 3040b2c:	e0fffe8b 	ldhu	r3,-6(fp)
 3040b30:	00bfe004 	movi	r2,-128
 3040b34:	1884703a 	and	r2,r3,r2
 3040b38:	e0bffe8d 	sth	r2,-6(fp)
        control += r_vol & 0x7F;
 3040b3c:	e0bffc0b 	ldhu	r2,-16(fp)
 3040b40:	10801fcc 	andi	r2,r2,127
 3040b44:	1007883a 	mov	r3,r2
 3040b48:	e0bffe8b 	ldhu	r2,-6(fp)
 3040b4c:	10c5883a 	add	r2,r2,r3
 3040b50:	e0bffe8d 	sth	r2,-6(fp)
        bSuccess = aduio_RegWrite(3, control);        
 3040b54:	e0bffe8b 	ldhu	r2,-6(fp)
 3040b58:	100b883a 	mov	r5,r2
 3040b5c:	010000c4 	movi	r4,3
 3040b60:	3040ccc0 	call	3040ccc <aduio_RegWrite>
 3040b64:	e0bfff15 	stw	r2,-4(fp)
    }    
    
    AUDIO_DEBUG(("[AUDIO] set Line-Out vol(%d,%d) %s\r\n", l_vol, r_vol, bSuccess?"success":"fail"));
 3040b68:	e0fffd0b 	ldhu	r3,-12(fp)
 3040b6c:	e13ffc0b 	ldhu	r4,-16(fp)
 3040b70:	e0bfff17 	ldw	r2,-4(fp)
 3040b74:	10000326 	beq	r2,zero,3040b84 <AUDIO_SetLineOutVol+0xd8>
 3040b78:	0080c1b4 	movhi	r2,774
 3040b7c:	10bede04 	addi	r2,r2,-1160
 3040b80:	00000206 	br	3040b8c <AUDIO_SetLineOutVol+0xe0>
 3040b84:	0080c1b4 	movhi	r2,774
 3040b88:	10bee004 	addi	r2,r2,-1152
 3040b8c:	100f883a 	mov	r7,r2
 3040b90:	200d883a 	mov	r6,r4
 3040b94:	180b883a 	mov	r5,r3
 3040b98:	0100c1b4 	movhi	r4,774
 3040b9c:	213ef104 	addi	r4,r4,-1084
 3040ba0:	30450c80 	call	30450c8 <myprintf>
    
    return bSuccess;
 3040ba4:	e0bfff17 	ldw	r2,-4(fp)
}
 3040ba8:	e037883a 	mov	sp,fp
 3040bac:	dfc00117 	ldw	ra,4(sp)
 3040bb0:	df000017 	ldw	fp,0(sp)
 3040bb4:	dec00204 	addi	sp,sp,8
 3040bb8:	f800283a 	ret

03040bbc <AUDIO_EnableByPass>:


bool AUDIO_EnableByPass(bool bEnable){
 3040bbc:	defffb04 	addi	sp,sp,-20
 3040bc0:	dfc00415 	stw	ra,16(sp)
 3040bc4:	df000315 	stw	fp,12(sp)
 3040bc8:	df000304 	addi	fp,sp,12
 3040bcc:	e13ffd15 	stw	r4,-12(fp)
    bool bSuccess;
    alt_u16 control;
    alt_u16 mask;
    control = reg_file[4];
 3040bd0:	0080c1b4 	movhi	r2,774
 3040bd4:	10925d0b 	ldhu	r2,18804(r2)
 3040bd8:	e0bfff8d 	sth	r2,-2(fp)
    mask = 0x01 << 3;
 3040bdc:	00800204 	movi	r2,8
 3040be0:	e0bfff0d 	sth	r2,-4(fp)
    if (bEnable)
 3040be4:	e0bffd17 	ldw	r2,-12(fp)
 3040be8:	10000526 	beq	r2,zero,3040c00 <AUDIO_EnableByPass+0x44>
        control |= mask;
 3040bec:	e0ffff8b 	ldhu	r3,-2(fp)
 3040bf0:	e0bfff0b 	ldhu	r2,-4(fp)
 3040bf4:	1884b03a 	or	r2,r3,r2
 3040bf8:	e0bfff8d 	sth	r2,-2(fp)
 3040bfc:	00000606 	br	3040c18 <AUDIO_EnableByPass+0x5c>
    else        
        control &= ~mask;
 3040c00:	e0bfff0b 	ldhu	r2,-4(fp)
 3040c04:	0084303a 	nor	r2,zero,r2
 3040c08:	1007883a 	mov	r3,r2
 3040c0c:	e0bfff8b 	ldhu	r2,-2(fp)
 3040c10:	1884703a 	and	r2,r3,r2
 3040c14:	e0bfff8d 	sth	r2,-2(fp)
    bSuccess = aduio_RegWrite(4, control); 
 3040c18:	e0bfff8b 	ldhu	r2,-2(fp)
 3040c1c:	100b883a 	mov	r5,r2
 3040c20:	01000104 	movi	r4,4
 3040c24:	3040ccc0 	call	3040ccc <aduio_RegWrite>
 3040c28:	e0bffe15 	stw	r2,-8(fp)
    return bSuccess;  	
 3040c2c:	e0bffe17 	ldw	r2,-8(fp)
}
 3040c30:	e037883a 	mov	sp,fp
 3040c34:	dfc00117 	ldw	ra,4(sp)
 3040c38:	df000017 	ldw	fp,0(sp)
 3040c3c:	dec00204 	addi	sp,sp,8
 3040c40:	f800283a 	ret

03040c44 <AUDIO_EnableSiteTone>:

bool AUDIO_EnableSiteTone(bool bEnable){
 3040c44:	defffb04 	addi	sp,sp,-20
 3040c48:	dfc00415 	stw	ra,16(sp)
 3040c4c:	df000315 	stw	fp,12(sp)
 3040c50:	df000304 	addi	fp,sp,12
 3040c54:	e13ffd15 	stw	r4,-12(fp)
    bool bSuccess;
    alt_u16 control;
    alt_u16 mask;
    control = reg_file[4];
 3040c58:	0080c1b4 	movhi	r2,774
 3040c5c:	10925d0b 	ldhu	r2,18804(r2)
 3040c60:	e0bfff8d 	sth	r2,-2(fp)
    mask = 0x01 << 5;
 3040c64:	00800804 	movi	r2,32
 3040c68:	e0bfff0d 	sth	r2,-4(fp)
    if (bEnable)
 3040c6c:	e0bffd17 	ldw	r2,-12(fp)
 3040c70:	10000526 	beq	r2,zero,3040c88 <AUDIO_EnableSiteTone+0x44>
        control |= mask;
 3040c74:	e0ffff8b 	ldhu	r3,-2(fp)
 3040c78:	e0bfff0b 	ldhu	r2,-4(fp)
 3040c7c:	1884b03a 	or	r2,r3,r2
 3040c80:	e0bfff8d 	sth	r2,-2(fp)
 3040c84:	00000606 	br	3040ca0 <AUDIO_EnableSiteTone+0x5c>
    else        
        control &= ~mask;
 3040c88:	e0bfff0b 	ldhu	r2,-4(fp)
 3040c8c:	0084303a 	nor	r2,zero,r2
 3040c90:	1007883a 	mov	r3,r2
 3040c94:	e0bfff8b 	ldhu	r2,-2(fp)
 3040c98:	1884703a 	and	r2,r3,r2
 3040c9c:	e0bfff8d 	sth	r2,-2(fp)
    bSuccess = aduio_RegWrite(4, control); 
 3040ca0:	e0bfff8b 	ldhu	r2,-2(fp)
 3040ca4:	100b883a 	mov	r5,r2
 3040ca8:	01000104 	movi	r4,4
 3040cac:	3040ccc0 	call	3040ccc <aduio_RegWrite>
 3040cb0:	e0bffe15 	stw	r2,-8(fp)
    return bSuccess;        
 3040cb4:	e0bffe17 	ldw	r2,-8(fp)
}
 3040cb8:	e037883a 	mov	sp,fp
 3040cbc:	dfc00117 	ldw	ra,4(sp)
 3040cc0:	df000017 	ldw	fp,0(sp)
 3040cc4:	dec00204 	addi	sp,sp,8
 3040cc8:	f800283a 	ret

03040ccc <aduio_RegWrite>:

/////////////////////////////////////////////////////////////////////////
///////////// Interla function body ////////////////////////////////////
/////////////////////////////////////////////////////////////////////////

bool aduio_RegWrite(alt_u8 reg_index, alt_u16 data16){
 3040ccc:	defff904 	addi	sp,sp,-28
 3040cd0:	dfc00615 	stw	ra,24(sp)
 3040cd4:	df000515 	stw	fp,20(sp)
 3040cd8:	df000504 	addi	fp,sp,20
 3040cdc:	2005883a 	mov	r2,r4
 3040ce0:	2807883a 	mov	r3,r5
 3040ce4:	e0bffd05 	stb	r2,-12(fp)
 3040ce8:	1805883a 	mov	r2,r3
 3040cec:	e0bffc0d 	sth	r2,-16(fp)
    bool bSuccess;
    alt_u8 data, control;
    if (reg_index <= 10)
 3040cf0:	e0bffd03 	ldbu	r2,-12(fp)
 3040cf4:	108002e8 	cmpgeui	r2,r2,11
 3040cf8:	1000061e 	bne	r2,zero,3040d14 <aduio_RegWrite+0x48>
        reg_file[reg_index] = data16;
 3040cfc:	e0bffd03 	ldbu	r2,-12(fp)
 3040d00:	1089883a 	add	r4,r2,r2
 3040d04:	e0fffc0b 	ldhu	r3,-16(fp)
 3040d08:	0080c1b4 	movhi	r2,774
 3040d0c:	2085883a 	add	r2,r4,r2
 3040d10:	10d25b0d 	sth	r3,18796(r2)
    data = data16 & 0xFF;
 3040d14:	e0bffc0b 	ldhu	r2,-16(fp)
 3040d18:	e0bfffc5 	stb	r2,-1(fp)
    control = (reg_index << 1) & 0xFE;
 3040d1c:	e0bffd03 	ldbu	r2,-12(fp)
 3040d20:	1085883a 	add	r2,r2,r2
 3040d24:	e0bfff85 	stb	r2,-2(fp)
    control |= ((data16 >> 8) & 0x01);
 3040d28:	e0bffc0b 	ldhu	r2,-16(fp)
 3040d2c:	1004d23a 	srli	r2,r2,8
 3040d30:	1080004c 	andi	r2,r2,1
 3040d34:	1007883a 	mov	r3,r2
 3040d38:	e0bfff83 	ldbu	r2,-2(fp)
 3040d3c:	1884b03a 	or	r2,r3,r2
 3040d40:	e0bfff85 	stb	r2,-2(fp)
    AUDIO_DEBUG(("[AUDIO] set audio reg[%02d] = %04Xh\r\n", reg_index, data16));
 3040d44:	e0bffd03 	ldbu	r2,-12(fp)
 3040d48:	e0fffc0b 	ldhu	r3,-16(fp)
 3040d4c:	180d883a 	mov	r6,r3
 3040d50:	100b883a 	mov	r5,r2
 3040d54:	0100c1b4 	movhi	r4,774
 3040d58:	213efb04 	addi	r4,r4,-1044
 3040d5c:	30450c80 	call	30450c8 <myprintf>
    bSuccess = I2C_Write(I2C_SCL_BASE, I2C_SDA_BASE, I2C_AUDIO_ADDR, control, data);
 3040d60:	e0ffff83 	ldbu	r3,-2(fp)
 3040d64:	e0bfffc3 	ldbu	r2,-1(fp)
 3040d68:	d8800015 	stw	r2,0(sp)
 3040d6c:	180f883a 	mov	r7,r3
 3040d70:	01800d04 	movi	r6,52
 3040d74:	01404034 	movhi	r5,256
 3040d78:	29402c04 	addi	r5,r5,176
 3040d7c:	01004034 	movhi	r4,256
 3040d80:	21002804 	addi	r4,r4,160
 3040d84:	3043b6c0 	call	3043b6c <I2C_Write>
 3040d88:	e0bffe15 	stw	r2,-8(fp)
    if (!bSuccess) 
 3040d8c:	e0bffe17 	ldw	r2,-8(fp)
 3040d90:	1000031e 	bne	r2,zero,3040da0 <aduio_RegWrite+0xd4>
        AUDIO_DEBUG(("[AUDIO] write reg fail!!!!\r\n"));
 3040d94:	0100c1b4 	movhi	r4,774
 3040d98:	213f0504 	addi	r4,r4,-1004
 3040d9c:	30450c80 	call	30450c8 <myprintf>
    usleep(50*1000);  // wait audio chip read        
 3040da0:	0130d414 	movui	r4,50000
 3040da4:	305b02c0 	call	305b02c <usleep>
    return bSuccess;        
 3040da8:	e0bffe17 	ldw	r2,-8(fp)
}
 3040dac:	e037883a 	mov	sp,fp
 3040db0:	dfc00117 	ldw	ra,4(sp)
 3040db4:	df000017 	ldw	fp,0(sp)
 3040db8:	dec00204 	addi	sp,sp,8
 3040dbc:	f800283a 	ret

03040dc0 <AUDIO_DacFifoNotFull>:

/////////////////////////////////////////////////////////////////////////
///////////// Audio Play & Recor ////////////////////////////////////////
/////////////////////////////////////////////////////////////////////////
// check whether the dac-fifo is full.
bool AUDIO_DacFifoNotFull(void){
 3040dc0:	defffe04 	addi	sp,sp,-8
 3040dc4:	df000115 	stw	fp,4(sp)
 3040dc8:	df000104 	addi	fp,sp,4
    bool bReady;
    bReady = AUDIO_DAC_FULL()?FALSE:TRUE;
 3040dcc:	00840034 	movhi	r2,4096
 3040dd0:	108c1537 	ldwio	r2,12372(r2)
 3040dd4:	1080004c 	andi	r2,r2,1
 3040dd8:	1005003a 	cmpeq	r2,r2,zero
 3040ddc:	10803fcc 	andi	r2,r2,255
 3040de0:	e0bfff15 	stw	r2,-4(fp)
    return bReady;
 3040de4:	e0bfff17 	ldw	r2,-4(fp)
}
 3040de8:	e037883a 	mov	sp,fp
 3040dec:	df000017 	ldw	fp,0(sp)
 3040df0:	dec00104 	addi	sp,sp,4
 3040df4:	f800283a 	ret

03040df8 <AUDIO_DacFifoSetData>:

// call AUDIO_PlayIsReady to make sure the fifo is not full before call this function 
void AUDIO_DacFifoSetData(short ch_left, short ch_right){
 3040df8:	defffd04 	addi	sp,sp,-12
 3040dfc:	df000215 	stw	fp,8(sp)
 3040e00:	df000204 	addi	fp,sp,8
 3040e04:	2005883a 	mov	r2,r4
 3040e08:	2807883a 	mov	r3,r5
 3040e0c:	e0bfff0d 	sth	r2,-4(fp)
 3040e10:	1805883a 	mov	r2,r3
 3040e14:	e0bffe0d 	sth	r2,-8(fp)
    AUDIO_DAC_WRITE_L(ch_left);
 3040e18:	e0ffff0f 	ldh	r3,-4(fp)
 3040e1c:	00840034 	movhi	r2,4096
 3040e20:	10cc1035 	stwio	r3,12352(r2)
    AUDIO_DAC_WRITE_R(ch_right);
 3040e24:	e0fffe0f 	ldh	r3,-8(fp)
 3040e28:	00840034 	movhi	r2,4096
 3040e2c:	10cc1135 	stwio	r3,12356(r2)
}
 3040e30:	0001883a 	nop
 3040e34:	e037883a 	mov	sp,fp
 3040e38:	df000017 	ldw	fp,0(sp)
 3040e3c:	dec00104 	addi	sp,sp,4
 3040e40:	f800283a 	ret

03040e44 <AUDIO_AdcFifoNotEmpty>:

// wheck whether there is data available in adc-fifo
bool AUDIO_AdcFifoNotEmpty(void){
 3040e44:	defffe04 	addi	sp,sp,-8
 3040e48:	df000115 	stw	fp,4(sp)
 3040e4c:	df000104 	addi	fp,sp,4
    bool bReady;
    bReady = AUDIO_ADC_EMPTY()?FALSE:TRUE;
 3040e50:	00840034 	movhi	r2,4096
 3040e54:	108c1537 	ldwio	r2,12372(r2)
 3040e58:	1080008c 	andi	r2,r2,2
 3040e5c:	1005003a 	cmpeq	r2,r2,zero
 3040e60:	10803fcc 	andi	r2,r2,255
 3040e64:	e0bfff15 	stw	r2,-4(fp)
    return bReady;
 3040e68:	e0bfff17 	ldw	r2,-4(fp)
}
 3040e6c:	e037883a 	mov	sp,fp
 3040e70:	df000017 	ldw	fp,0(sp)
 3040e74:	dec00104 	addi	sp,sp,4
 3040e78:	f800283a 	ret

03040e7c <AUDIO_AdcFifoGetData>:


// make sure the data is available before call this fucntion
void AUDIO_AdcFifoGetData(short *pch_left, short *pch_right){
 3040e7c:	defffd04 	addi	sp,sp,-12
 3040e80:	df000215 	stw	fp,8(sp)
 3040e84:	df000204 	addi	fp,sp,8
 3040e88:	e13fff15 	stw	r4,-4(fp)
 3040e8c:	e17ffe15 	stw	r5,-8(fp)
    *pch_left = AUDIO_ADC_READ_L();
 3040e90:	00840034 	movhi	r2,4096
 3040e94:	108c1237 	ldwio	r2,12360(r2)
 3040e98:	1007883a 	mov	r3,r2
 3040e9c:	e0bfff17 	ldw	r2,-4(fp)
 3040ea0:	10c0000d 	sth	r3,0(r2)
    *pch_right = AUDIO_ADC_READ_R();
 3040ea4:	00840034 	movhi	r2,4096
 3040ea8:	108c1337 	ldwio	r2,12364(r2)
 3040eac:	1007883a 	mov	r3,r2
 3040eb0:	e0bffe17 	ldw	r2,-8(fp)
 3040eb4:	10c0000d 	sth	r3,0(r2)
    
}
 3040eb8:	0001883a 	nop
 3040ebc:	e037883a 	mov	sp,fp
 3040ec0:	df000017 	ldw	fp,0(sp)
 3040ec4:	dec00104 	addi	sp,sp,4
 3040ec8:	f800283a 	ret

03040ecc <AUDIO_FifoClear>:

void AUDIO_FifoClear(void){
 3040ecc:	deffff04 	addi	sp,sp,-4
 3040ed0:	df000015 	stw	fp,0(sp)
 3040ed4:	d839883a 	mov	fp,sp
    AUDIO_FIFO_CLEAR();
 3040ed8:	00c00044 	movi	r3,1
 3040edc:	00840034 	movhi	r2,4096
 3040ee0:	10cc1435 	stwio	r3,12368(r2)
}
 3040ee4:	0001883a 	nop
 3040ee8:	e037883a 	mov	sp,fp
 3040eec:	df000017 	ldw	fp,0(sp)
 3040ef0:	dec00104 	addi	sp,sp,4
 3040ef4:	f800283a 	ret

03040ef8 <Fat_Mount>:
bool fatSameLongFilename(alt_u16 *p1, alt_u16 *p2);




FAT_HANDLE Fat_Mount(FAT_DEVICE FatDevice, DEVICE_HANDLE hUsbDisk){
 3040ef8:	defffb04 	addi	sp,sp,-20
 3040efc:	dfc00415 	stw	ra,16(sp)
 3040f00:	df000315 	stw	fp,12(sp)
 3040f04:	df000304 	addi	fp,sp,12
 3040f08:	e13ffe15 	stw	r4,-8(fp)
 3040f0c:	e17ffd15 	stw	r5,-12(fp)
    
    //Fat_Unmount();
    FAT_HANDLE hFat = 0;
 3040f10:	e03fff15 	stw	zero,-4(fp)
    
    if (FatDevice == FAT_SD_CARD){
 3040f14:	e0bffe17 	ldw	r2,-8(fp)
 3040f18:	1000021e 	bne	r2,zero,3040f24 <Fat_Mount+0x2c>
        #ifdef SUPPORT_SD_CARD
        hFat = fatMountSdcard();
 3040f1c:	3043a180 	call	3043a18 <fatMountSdcard>
 3040f20:	e0bfff15 	stw	r2,-4(fp)
    }else if (FatDevice == FAT_USB_DISK){
        #ifdef SUPPORT_USB_DISK
        hFat = fatMountUsbDisk(hUsbDisk);
        #endif
    }  
    return hFat;      
 3040f24:	e0bfff17 	ldw	r2,-4(fp)
        
}
 3040f28:	e037883a 	mov	sp,fp
 3040f2c:	dfc00117 	ldw	ra,4(sp)
 3040f30:	df000017 	ldw	fp,0(sp)
 3040f34:	dec00204 	addi	sp,sp,8
 3040f38:	f800283a 	ret

03040f3c <Fat_Unmount>:

void Fat_Unmount(FAT_HANDLE Fat){
 3040f3c:	defffc04 	addi	sp,sp,-16
 3040f40:	dfc00315 	stw	ra,12(sp)
 3040f44:	df000215 	stw	fp,8(sp)
 3040f48:	df000204 	addi	fp,sp,8
 3040f4c:	e13ffe15 	stw	r4,-8(fp)
    VOLUME_INFO *pVol = (VOLUME_INFO *)Fat;
 3040f50:	e0bffe17 	ldw	r2,-8(fp)
 3040f54:	e0bfff15 	stw	r2,-4(fp)
    if (!pVol)
 3040f58:	e0bfff17 	ldw	r2,-4(fp)
 3040f5c:	10000526 	beq	r2,zero,3040f74 <Fat_Unmount+0x38>
    if (pVol->szFatTable){
        free(pVol->szFatTable);
        pVol->szFatTable = 0;
    }        
#endif //#ifdef FAT_READONLY
    pVol->bMount = FALSE;
 3040f60:	e0bfff17 	ldw	r2,-4(fp)
 3040f64:	10000405 	stb	zero,16(r2)
    
    free(pVol);  
 3040f68:	e13fff17 	ldw	r4,-4(fp)
 3040f6c:	304b6240 	call	304b624 <free>
 3040f70:	00000106 	br	3040f78 <Fat_Unmount+0x3c>
        return;
 3040f74:	0001883a 	nop
}   
 3040f78:	e037883a 	mov	sp,fp
 3040f7c:	dfc00117 	ldw	ra,4(sp)
 3040f80:	df000017 	ldw	fp,0(sp)
 3040f84:	dec00204 	addi	sp,sp,8
 3040f88:	f800283a 	ret

03040f8c <Fat_Type>:

FAT_TYPE Fat_Type(FAT_HANDLE Fat){
 3040f8c:	defffc04 	addi	sp,sp,-16
 3040f90:	df000315 	stw	fp,12(sp)
 3040f94:	df000304 	addi	fp,sp,12
 3040f98:	e13ffd15 	stw	r4,-12(fp)
    VOLUME_INFO *pVol = (VOLUME_INFO *)Fat;
 3040f9c:	e0bffd17 	ldw	r2,-12(fp)
 3040fa0:	e0bffe15 	stw	r2,-8(fp)
    FAT_TYPE Type = FAT_UNKNOWN;
 3040fa4:	e03fff15 	stw	zero,-4(fp)
    if (pVol){
 3040fa8:	e0bffe17 	ldw	r2,-8(fp)
 3040fac:	10000d26 	beq	r2,zero,3040fe4 <Fat_Type+0x58>
        if (pVol->Partition_Type == PARTITION_FAT16)
 3040fb0:	e0bffe17 	ldw	r2,-8(fp)
 3040fb4:	10800317 	ldw	r2,12(r2)
 3040fb8:	10800198 	cmpnei	r2,r2,6
 3040fbc:	1000031e 	bne	r2,zero,3040fcc <Fat_Type+0x40>
            Type = FAT_FAT16;
 3040fc0:	00800044 	movi	r2,1
 3040fc4:	e0bfff15 	stw	r2,-4(fp)
 3040fc8:	00000606 	br	3040fe4 <Fat_Type+0x58>
        else if (pVol->Partition_Type == PARTITION_FAT32)
 3040fcc:	e0bffe17 	ldw	r2,-8(fp)
 3040fd0:	10800317 	ldw	r2,12(r2)
 3040fd4:	108002d8 	cmpnei	r2,r2,11
 3040fd8:	1000021e 	bne	r2,zero,3040fe4 <Fat_Type+0x58>
            Type = FAT_FAT32;
 3040fdc:	00800084 	movi	r2,2
 3040fe0:	e0bfff15 	stw	r2,-4(fp)
    }
    return Type;        
 3040fe4:	e0bfff17 	ldw	r2,-4(fp)
}
 3040fe8:	e037883a 	mov	sp,fp
 3040fec:	df000017 	ldw	fp,0(sp)
 3040ff0:	dec00104 	addi	sp,sp,4
 3040ff4:	f800283a 	ret

03040ff8 <Fat_FileBrowseBegin>:

bool Fat_FileBrowseBegin(FAT_HANDLE hFat, FAT_BROWSE_HANDLE *pFatBrowseHandle){
 3040ff8:	defffc04 	addi	sp,sp,-16
 3040ffc:	df000315 	stw	fp,12(sp)
 3041000:	df000304 	addi	fp,sp,12
 3041004:	e13ffe15 	stw	r4,-8(fp)
 3041008:	e17ffd15 	stw	r5,-12(fp)
    VOLUME_INFO *pVol = (VOLUME_INFO *)hFat;
 304100c:	e0bffe17 	ldw	r2,-8(fp)
 3041010:	e0bfff15 	stw	r2,-4(fp)
    if (!pVol)
 3041014:	e0bfff17 	ldw	r2,-4(fp)
 3041018:	1000021e 	bne	r2,zero,3041024 <Fat_FileBrowseBegin+0x2c>
        return FALSE;
 304101c:	0005883a 	mov	r2,zero
 3041020:	00000e06 	br	304105c <Fat_FileBrowseBegin+0x64>
    if (!pVol->bMount)
 3041024:	e0bfff17 	ldw	r2,-4(fp)
 3041028:	10800403 	ldbu	r2,16(r2)
 304102c:	1080005c 	xori	r2,r2,1
 3041030:	10803fcc 	andi	r2,r2,255
 3041034:	10000226 	beq	r2,zero,3041040 <Fat_FileBrowseBegin+0x48>
        return FALSE;
 3041038:	0005883a 	mov	r2,zero
 304103c:	00000706 	br	304105c <Fat_FileBrowseBegin+0x64>
    pFatBrowseHandle->DirectoryIndex = -1;
 3041040:	e0bffd17 	ldw	r2,-12(fp)
 3041044:	00ffffc4 	movi	r3,-1
 3041048:	10c00015 	stw	r3,0(r2)
    pFatBrowseHandle->hFat = hFat;
 304104c:	e0bffd17 	ldw	r2,-12(fp)
 3041050:	e0fffe17 	ldw	r3,-8(fp)
 3041054:	10c00115 	stw	r3,4(r2)
    return TRUE;
 3041058:	00800044 	movi	r2,1
}
 304105c:	e037883a 	mov	sp,fp
 3041060:	df000017 	ldw	fp,0(sp)
 3041064:	dec00104 	addi	sp,sp,4
 3041068:	f800283a 	ret

0304106c <Fat_FileBrowseNext>:

bool Fat_FileBrowseNext(FAT_BROWSE_HANDLE *pFatBrowseHandle, FILE_CONTEXT *pFileContext){
 304106c:	defff604 	addi	sp,sp,-40
 3041070:	dfc00915 	stw	ra,36(sp)
 3041074:	df000815 	stw	fp,32(sp)
 3041078:	df000804 	addi	fp,sp,32
 304107c:	e13ff915 	stw	r4,-28(fp)
 3041080:	e17ff815 	stw	r5,-32(fp)
    bool bFind = FALSE, bError=FALSE, bLongFilename = FALSE;
 3041084:	e03fffc5 	stb	zero,-1(fp)
 3041088:	e03fff85 	stb	zero,-2(fp)
 304108c:	e03fff45 	stb	zero,-3(fp)
    int OrderValue = 0;
 3041090:	e03ffe15 	stw	zero,-8(fp)
    FAT_DIRECTORY *pDir;
    //unsigned int nSecter, nSecterOffset,nByteOffset;
    VOLUME_INFO *pVol = (VOLUME_INFO *)pFatBrowseHandle->hFat;
 3041094:	e0bff917 	ldw	r2,-28(fp)
 3041098:	10800117 	ldw	r2,4(r2)
 304109c:	e0bffd15 	stw	r2,-12(fp)
    
    if (!pVol)
 30410a0:	e0bffd17 	ldw	r2,-12(fp)
 30410a4:	1000021e 	bne	r2,zero,30410b0 <Fat_FileBrowseNext+0x44>
        return FALSE;    
 30410a8:	0005883a 	mov	r2,zero
 30410ac:	00010606 	br	30414c8 <Fat_FileBrowseNext+0x45c>
    
    if (!pVol->bMount)
 30410b0:	e0bffd17 	ldw	r2,-12(fp)
 30410b4:	10800403 	ldbu	r2,16(r2)
 30410b8:	1080005c 	xori	r2,r2,1
 30410bc:	10803fcc 	andi	r2,r2,255
 30410c0:	10000226 	beq	r2,zero,30410cc <Fat_FileBrowseNext+0x60>
        return FALSE;
 30410c4:	0005883a 	mov	r2,zero
 30410c8:	0000ff06 	br	30414c8 <Fat_FileBrowseNext+0x45c>
    
    
    do{  // search Directory Table
        pFatBrowseHandle->DirectoryIndex++;        
 30410cc:	e0bff917 	ldw	r2,-28(fp)
 30410d0:	10800017 	ldw	r2,0(r2)
 30410d4:	10c00044 	addi	r3,r2,1
 30410d8:	e0bff917 	ldw	r2,-28(fp)
 30410dc:	10c00015 	stw	r3,0(r2)
        pDir = fatFindDirectory(pVol,pFatBrowseHandle->DirectoryIndex);
 30410e0:	e0bff917 	ldw	r2,-28(fp)
 30410e4:	10800017 	ldw	r2,0(r2)
 30410e8:	100b883a 	mov	r5,r2
 30410ec:	e13ffd17 	ldw	r4,-12(fp)
 30410f0:	30433d80 	call	30433d8 <fatFindDirectory>
 30410f4:	e0bffc15 	stw	r2,-16(fp)
        if (!pDir)
 30410f8:	e0bffc17 	ldw	r2,-16(fp)
 30410fc:	1000021e 	bne	r2,zero,3041108 <Fat_FileBrowseNext+0x9c>
            bError = TRUE;
 3041100:	00800044 	movi	r2,1
 3041104:	e0bfff85 	stb	r2,-2(fp)
            
        if (!bError){                        
 3041108:	e0bfff83 	ldbu	r2,-2(fp)
 304110c:	1080005c 	xori	r2,r2,1
 3041110:	10803fcc 	andi	r2,r2,255
 3041114:	1000de26 	beq	r2,zero,3041490 <Fat_FileBrowseNext+0x424>
            if (fatIsValidDir(pDir) && !fatIsUnusedDir(pDir)){
 3041118:	e13ffc17 	ldw	r4,-16(fp)
 304111c:	3042aa40 	call	3042aa4 <fatIsValidDir>
 3041120:	10803fcc 	andi	r2,r2,255
 3041124:	1000da26 	beq	r2,zero,3041490 <Fat_FileBrowseNext+0x424>
 3041128:	e13ffc17 	ldw	r4,-16(fp)
 304112c:	3042b480 	call	3042b48 <fatIsUnusedDir>
 3041130:	1080005c 	xori	r2,r2,1
 3041134:	10803fcc 	andi	r2,r2,255
 3041138:	1000d526 	beq	r2,zero,3041490 <Fat_FileBrowseNext+0x424>
                if ((pDir->Attribute & ATTR_LONG_NAME) == ATTR_LONG_NAME){
 304113c:	e0bffc17 	ldw	r2,-16(fp)
 3041140:	108002c3 	ldbu	r2,11(r2)
 3041144:	10803fcc 	andi	r2,r2,255
 3041148:	108003cc 	andi	r2,r2,15
 304114c:	108003d8 	cmpnei	r2,r2,15
 3041150:	1000531e 	bne	r2,zero,30412a0 <Fat_FileBrowseNext+0x234>
                    FAT_LONG_DIRECTORY *pLDIR = (FAT_LONG_DIRECTORY *)pDir;
 3041154:	e0bffc17 	ldw	r2,-16(fp)
 3041158:	e0bffb15 	stw	r2,-20(fp)
                    // check attribute
                    if ((pLDIR->LDIR_Attr & ATTR_LONG_NAME) != ATTR_LONG_NAME){
 304115c:	e0bffb17 	ldw	r2,-20(fp)
 3041160:	108002c3 	ldbu	r2,11(r2)
 3041164:	10803fcc 	andi	r2,r2,255
 3041168:	108003cc 	andi	r2,r2,15
 304116c:	108003e0 	cmpeqi	r2,r2,15
 3041170:	1000031e 	bne	r2,zero,3041180 <Fat_FileBrowseNext+0x114>
                        bError = TRUE;
 3041174:	00800044 	movi	r2,1
 3041178:	e0bfff85 	stb	r2,-2(fp)
 304117c:	00001e06 	br	30411f8 <Fat_FileBrowseNext+0x18c>
                    }else{                        
                        // check order
                        if (OrderValue == 0){
 3041180:	e0bffe17 	ldw	r2,-8(fp)
 3041184:	1000141e 	bne	r2,zero,30411d8 <Fat_FileBrowseNext+0x16c>
                            // last entry
                            if (bLongFilename || ((OrderValue & LAST_LONG_ENTRY) != OrderValue))
 3041188:	e0bfff43 	ldbu	r2,-3(fp)
 304118c:	1000041e 	bne	r2,zero,30411a0 <Fat_FileBrowseNext+0x134>
 3041190:	e0bffe17 	ldw	r2,-8(fp)
 3041194:	1080100c 	andi	r2,r2,64
 3041198:	e0fffe17 	ldw	r3,-8(fp)
 304119c:	18800326 	beq	r3,r2,30411ac <Fat_FileBrowseNext+0x140>
                                bError = TRUE;
 30411a0:	00800044 	movi	r2,1
 30411a4:	e0bfff85 	stb	r2,-2(fp)
 30411a8:	00000506 	br	30411c0 <Fat_FileBrowseNext+0x154>
                            else
                                OrderValue = pLDIR->LDIR_Ord & 0x3F;
 30411ac:	e0bffb17 	ldw	r2,-20(fp)
 30411b0:	10800003 	ldbu	r2,0(r2)
 30411b4:	10803fcc 	andi	r2,r2,255
 30411b8:	10800fcc 	andi	r2,r2,63
 30411bc:	e0bffe15 	stw	r2,-8(fp)
                            memset(pFileContext->szName, 0, sizeof(pFileContext->szName));        
 30411c0:	e0bff817 	ldw	r2,-32(fp)
 30411c4:	01804004 	movi	r6,256
 30411c8:	000b883a 	mov	r5,zero
 30411cc:	1009883a 	mov	r4,r2
 30411d0:	304bf140 	call	304bf14 <memset>
 30411d4:	00000806 	br	30411f8 <Fat_FileBrowseNext+0x18c>
                        }else{
                            if ((pLDIR->LDIR_Ord & 0x3F) != OrderValue)
 30411d8:	e0bffb17 	ldw	r2,-20(fp)
 30411dc:	10800003 	ldbu	r2,0(r2)
 30411e0:	10803fcc 	andi	r2,r2,255
 30411e4:	10800fcc 	andi	r2,r2,63
 30411e8:	e0fffe17 	ldw	r3,-8(fp)
 30411ec:	18800226 	beq	r3,r2,30411f8 <Fat_FileBrowseNext+0x18c>
                                bError = TRUE;
 30411f0:	00800044 	movi	r2,1
 30411f4:	e0bfff85 	stb	r2,-2(fp)
                        }
                    }
                    
                    //                        
                    if (!bError){
 30411f8:	e0bfff83 	ldbu	r2,-2(fp)
 30411fc:	1080005c 	xori	r2,r2,1
 3041200:	10803fcc 	andi	r2,r2,255
 3041204:	1000a226 	beq	r2,zero,3041490 <Fat_FileBrowseNext+0x424>
                        int BaseOffset;
                        bLongFilename = TRUE;
 3041208:	00800044 	movi	r2,1
 304120c:	e0bfff45 	stb	r2,-3(fp)
                        OrderValue--;
 3041210:	e0bffe17 	ldw	r2,-8(fp)
 3041214:	10bfffc4 	addi	r2,r2,-1
 3041218:	e0bffe15 	stw	r2,-8(fp)
                        BaseOffset = OrderValue * 26;
 304121c:	e0bffe17 	ldw	r2,-8(fp)
 3041220:	108006a4 	muli	r2,r2,26
 3041224:	e0bffa15 	stw	r2,-24(fp)
                        // cast filename
                        memcpy(pFileContext->szName+BaseOffset, pLDIR->LDIR_Name1, 10);
 3041228:	e0fff817 	ldw	r3,-32(fp)
 304122c:	e0bffa17 	ldw	r2,-24(fp)
 3041230:	1887883a 	add	r3,r3,r2
 3041234:	e0bffb17 	ldw	r2,-20(fp)
 3041238:	10800044 	addi	r2,r2,1
 304123c:	01800284 	movi	r6,10
 3041240:	100b883a 	mov	r5,r2
 3041244:	1809883a 	mov	r4,r3
 3041248:	304be140 	call	304be14 <memcpy>
                        memcpy(pFileContext->szName+BaseOffset+10, pLDIR->LDIR_Name2, 12);
 304124c:	e0fff817 	ldw	r3,-32(fp)
 3041250:	e0bffa17 	ldw	r2,-24(fp)
 3041254:	10800284 	addi	r2,r2,10
 3041258:	1887883a 	add	r3,r3,r2
 304125c:	e0bffb17 	ldw	r2,-20(fp)
 3041260:	10800384 	addi	r2,r2,14
 3041264:	01800304 	movi	r6,12
 3041268:	100b883a 	mov	r5,r2
 304126c:	1809883a 	mov	r4,r3
 3041270:	304be140 	call	304be14 <memcpy>
                        memcpy(pFileContext->szName+BaseOffset+22, pLDIR->LDIR_Name3, 4);
 3041274:	e0fff817 	ldw	r3,-32(fp)
 3041278:	e0bffa17 	ldw	r2,-24(fp)
 304127c:	10800584 	addi	r2,r2,22
 3041280:	1887883a 	add	r3,r3,r2
 3041284:	e0bffb17 	ldw	r2,-20(fp)
 3041288:	10800704 	addi	r2,r2,28
 304128c:	01800104 	movi	r6,4
 3041290:	100b883a 	mov	r5,r2
 3041294:	1809883a 	mov	r4,r3
 3041298:	304be140 	call	304be14 <memcpy>
 304129c:	00007c06 	br	3041490 <Fat_FileBrowseNext+0x424>
                    }                        
                }else{
                    if (bLongFilename){
 30412a0:	e0bfff43 	ldbu	r2,-3(fp)
 30412a4:	10000e26 	beq	r2,zero,30412e0 <Fat_FileBrowseNext+0x274>
                        pFileContext->Attribute = ATTR_LONG_NAME;
 30412a8:	e0bff817 	ldw	r2,-32(fp)
 30412ac:	00c003c4 	movi	r3,15
 30412b0:	10c04205 	stb	r3,264(r2)
                        if ((pDir->Attribute & (ATTR_ARCHIVE | ATTR_DIRECTORY)) == 0)
 30412b4:	e0bffc17 	ldw	r2,-16(fp)
 30412b8:	108002c3 	ldbu	r2,11(r2)
 30412bc:	10803fcc 	andi	r2,r2,255
 30412c0:	10800c0c 	andi	r2,r2,48
 30412c4:	1000031e 	bne	r2,zero,30412d4 <Fat_FileBrowseNext+0x268>
                            bError = TRUE;
 30412c8:	00800044 	movi	r2,1
 30412cc:	e0bfff85 	stb	r2,-2(fp)
 30412d0:	00000906 	br	30412f8 <Fat_FileBrowseNext+0x28c>
                        else    
                            bFind = TRUE;
 30412d4:	00800044 	movi	r2,1
 30412d8:	e0bfffc5 	stb	r2,-1(fp)
 30412dc:	00000606 	br	30412f8 <Fat_FileBrowseNext+0x28c>
                    }else{
                        fatComposeShortFilename(pDir, pFileContext->szName);
 30412e0:	e0bff817 	ldw	r2,-32(fp)
 30412e4:	100b883a 	mov	r5,r2
 30412e8:	e13ffc17 	ldw	r4,-16(fp)
 30412ec:	30415e40 	call	30415e4 <fatComposeShortFilename>
                        bFind = TRUE;
 30412f0:	00800044 	movi	r2,1
 30412f4:	e0bfffc5 	stb	r2,-1(fp)
                    }
                    
                    if (bFind){
 30412f8:	e0bfffc3 	ldbu	r2,-1(fp)
 30412fc:	10006426 	beq	r2,zero,3041490 <Fat_FileBrowseNext+0x424>
                        // my ext
                        pFileContext->bLongFilename = bLongFilename;
 3041300:	e0bff817 	ldw	r2,-32(fp)
 3041304:	e0ffff43 	ldbu	r3,-3(fp)
 3041308:	10c04005 	stb	r3,256(r2)
                        pFileContext->bFile = (pDir->Attribute & ATTR_ARCHIVE)?TRUE:FALSE;
 304130c:	e0bffc17 	ldw	r2,-16(fp)
 3041310:	108002c3 	ldbu	r2,11(r2)
 3041314:	10803fcc 	andi	r2,r2,255
 3041318:	1005d17a 	srai	r2,r2,5
 304131c:	1080004c 	andi	r2,r2,1
 3041320:	1004c03a 	cmpne	r2,r2,zero
 3041324:	1007883a 	mov	r3,r2
 3041328:	e0bff817 	ldw	r2,-32(fp)
 304132c:	10c04045 	stb	r3,257(r2)
                        pFileContext->bDirectory = (pDir->Attribute & ATTR_DIRECTORY)?TRUE:FALSE;
 3041330:	e0bffc17 	ldw	r2,-16(fp)
 3041334:	108002c3 	ldbu	r2,11(r2)
 3041338:	10803fcc 	andi	r2,r2,255
 304133c:	1005d13a 	srai	r2,r2,4
 3041340:	1080004c 	andi	r2,r2,1
 3041344:	1004c03a 	cmpne	r2,r2,zero
 3041348:	1007883a 	mov	r3,r2
 304134c:	e0bff817 	ldw	r2,-32(fp)
 3041350:	10c04085 	stb	r3,258(r2)
                        pFileContext->bVolume = (pDir->Attribute & ATTR_VOLUME_ID)?TRUE:FALSE;
 3041354:	e0bffc17 	ldw	r2,-16(fp)
 3041358:	108002c3 	ldbu	r2,11(r2)
 304135c:	10803fcc 	andi	r2,r2,255
 3041360:	1005d0fa 	srai	r2,r2,3
 3041364:	1080004c 	andi	r2,r2,1
 3041368:	1004c03a 	cmpne	r2,r2,zero
 304136c:	1007883a 	mov	r3,r2
 3041370:	e0bff817 	ldw	r2,-32(fp)
 3041374:	10c040c5 	stb	r3,259(r2)
                        pFileContext->DirEntryIndex = pFatBrowseHandle->DirectoryIndex; // add in v2.0.0
 3041378:	e0bff917 	ldw	r2,-28(fp)
 304137c:	10c00017 	ldw	r3,0(r2)
 3041380:	e0bff817 	ldw	r2,-32(fp)
 3041384:	10c04115 	stw	r3,260(r2)
                        
                        //
                        pFileContext->Attribute = pDir->Attribute;
 3041388:	e0bffc17 	ldw	r2,-16(fp)
 304138c:	10c002c3 	ldbu	r3,11(r2)
 3041390:	e0bff817 	ldw	r2,-32(fp)
 3041394:	10c04205 	stb	r3,264(r2)
                        pFileContext->CreateTime = pDir->CreateTime;
 3041398:	e0bffc17 	ldw	r2,-16(fp)
 304139c:	10c00383 	ldbu	r3,14(r2)
 30413a0:	108003c3 	ldbu	r2,15(r2)
 30413a4:	1004923a 	slli	r2,r2,8
 30413a8:	10c4b03a 	or	r2,r2,r3
 30413ac:	1007883a 	mov	r3,r2
 30413b0:	e0bff817 	ldw	r2,-32(fp)
 30413b4:	10c0428d 	sth	r3,266(r2)
                        pFileContext->LastAccessDate = pDir->LastAccessDate;
 30413b8:	e0bffc17 	ldw	r2,-16(fp)
 30413bc:	10c00483 	ldbu	r3,18(r2)
 30413c0:	108004c3 	ldbu	r2,19(r2)
 30413c4:	1004923a 	slli	r2,r2,8
 30413c8:	10c4b03a 	or	r2,r2,r3
 30413cc:	1007883a 	mov	r3,r2
 30413d0:	e0bff817 	ldw	r2,-32(fp)
 30413d4:	10c0438d 	sth	r3,270(r2)
                        pFileContext->FirstLogicalClusterHi = pDir->FirstLogicalClusterHi;
 30413d8:	e0bffc17 	ldw	r2,-16(fp)
 30413dc:	10c00503 	ldbu	r3,20(r2)
 30413e0:	10800543 	ldbu	r2,21(r2)
 30413e4:	1004923a 	slli	r2,r2,8
 30413e8:	10c4b03a 	or	r2,r2,r3
 30413ec:	1007883a 	mov	r3,r2
 30413f0:	e0bff817 	ldw	r2,-32(fp)
 30413f4:	10c0440d 	sth	r3,272(r2)
                        pFileContext->LastWriteTime = pDir->LastWriteTime;
 30413f8:	e0bffc17 	ldw	r2,-16(fp)
 30413fc:	10c00583 	ldbu	r3,22(r2)
 3041400:	108005c3 	ldbu	r2,23(r2)
 3041404:	1004923a 	slli	r2,r2,8
 3041408:	10c4b03a 	or	r2,r2,r3
 304140c:	1007883a 	mov	r3,r2
 3041410:	e0bff817 	ldw	r2,-32(fp)
 3041414:	10c0448d 	sth	r3,274(r2)
                        pFileContext->LastWriteDate = pDir->LastWriteDate;
 3041418:	e0bffc17 	ldw	r2,-16(fp)
 304141c:	10c00603 	ldbu	r3,24(r2)
 3041420:	10800643 	ldbu	r2,25(r2)
 3041424:	1004923a 	slli	r2,r2,8
 3041428:	10c4b03a 	or	r2,r2,r3
 304142c:	1007883a 	mov	r3,r2
 3041430:	e0bff817 	ldw	r2,-32(fp)
 3041434:	10c0450d 	sth	r3,276(r2)
                        pFileContext->FirstLogicalCluster = pDir->FirstLogicalCluster;
 3041438:	e0bffc17 	ldw	r2,-16(fp)
 304143c:	10c00683 	ldbu	r3,26(r2)
 3041440:	108006c3 	ldbu	r2,27(r2)
 3041444:	1004923a 	slli	r2,r2,8
 3041448:	10c4b03a 	or	r2,r2,r3
 304144c:	1007883a 	mov	r3,r2
 3041450:	e0bff817 	ldw	r2,-32(fp)
 3041454:	10c0458d 	sth	r3,278(r2)
                        pFileContext->FileSize = pDir->FileSize;
 3041458:	e0bffc17 	ldw	r2,-16(fp)
 304145c:	10c00703 	ldbu	r3,28(r2)
 3041460:	11000743 	ldbu	r4,29(r2)
 3041464:	2008923a 	slli	r4,r4,8
 3041468:	20c6b03a 	or	r3,r4,r3
 304146c:	11000783 	ldbu	r4,30(r2)
 3041470:	2008943a 	slli	r4,r4,16
 3041474:	20c6b03a 	or	r3,r4,r3
 3041478:	108007c3 	ldbu	r2,31(r2)
 304147c:	1004963a 	slli	r2,r2,24
 3041480:	10c4b03a 	or	r2,r2,r3
 3041484:	1007883a 	mov	r3,r2
 3041488:	e0bff817 	ldw	r2,-32(fp)
 304148c:	10c04615 	stw	r3,280(r2)
                    }                        
                }                    
            }                
        }            
    }while (!bFind && !fatIsLastDir(pDir) && !bError);
 3041490:	e0bfffc3 	ldbu	r2,-1(fp)
 3041494:	1080005c 	xori	r2,r2,1
 3041498:	10803fcc 	andi	r2,r2,255
 304149c:	10000926 	beq	r2,zero,30414c4 <Fat_FileBrowseNext+0x458>
 30414a0:	e13ffc17 	ldw	r4,-16(fp)
 30414a4:	3042a600 	call	3042a60 <fatIsLastDir>
 30414a8:	1080005c 	xori	r2,r2,1
 30414ac:	10803fcc 	andi	r2,r2,255
 30414b0:	10000426 	beq	r2,zero,30414c4 <Fat_FileBrowseNext+0x458>
 30414b4:	e0bfff83 	ldbu	r2,-2(fp)
 30414b8:	1080005c 	xori	r2,r2,1
 30414bc:	10803fcc 	andi	r2,r2,255
 30414c0:	103f021e 	bne	r2,zero,30410cc <Fat_FileBrowseNext+0x60>
    
    return bFind;
 30414c4:	e0bfffc3 	ldbu	r2,-1(fp)
    
}
 30414c8:	e037883a 	mov	sp,fp
 30414cc:	dfc00117 	ldw	ra,4(sp)
 30414d0:	df000017 	ldw	fp,0(sp)
 30414d4:	dec00204 	addi	sp,sp,8
 30414d8:	f800283a 	ret

030414dc <Fat_FileCount>:


unsigned int Fat_FileCount(FAT_HANDLE Fat){
 30414dc:	deffb304 	addi	sp,sp,-308
 30414e0:	dfc04c15 	stw	ra,304(sp)
 30414e4:	df004b15 	stw	fp,300(sp)
 30414e8:	df004b04 	addi	fp,sp,300
 30414ec:	e13fb515 	stw	r4,-300(fp)
    unsigned int nCount = 0;
 30414f0:	e03fff15 	stw	zero,-4(fp)
    FAT_BROWSE_HANDLE hBrowse;
    FILE_CONTEXT FileContext;
    
    if (Fat_FileBrowseBegin(Fat, &hBrowse)){
 30414f4:	e0bffd04 	addi	r2,fp,-12
 30414f8:	100b883a 	mov	r5,r2
 30414fc:	e13fb517 	ldw	r4,-300(fp)
 3041500:	3040ff80 	call	3040ff8 <Fat_FileBrowseBegin>
 3041504:	10803fcc 	andi	r2,r2,255
 3041508:	10000b26 	beq	r2,zero,3041538 <Fat_FileCount+0x5c>
        while(Fat_FileBrowseNext(&hBrowse, &FileContext))
 304150c:	00000306 	br	304151c <Fat_FileCount+0x40>
            nCount++;
 3041510:	e0bfff17 	ldw	r2,-4(fp)
 3041514:	10800044 	addi	r2,r2,1
 3041518:	e0bfff15 	stw	r2,-4(fp)
        while(Fat_FileBrowseNext(&hBrowse, &FileContext))
 304151c:	e0ffb604 	addi	r3,fp,-296
 3041520:	e0bffd04 	addi	r2,fp,-12
 3041524:	180b883a 	mov	r5,r3
 3041528:	1009883a 	mov	r4,r2
 304152c:	304106c0 	call	304106c <Fat_FileBrowseNext>
 3041530:	10803fcc 	andi	r2,r2,255
 3041534:	103ff61e 	bne	r2,zero,3041510 <Fat_FileCount+0x34>
    }
    
    return nCount;
 3041538:	e0bfff17 	ldw	r2,-4(fp)
}
 304153c:	e037883a 	mov	sp,fp
 3041540:	dfc00117 	ldw	ra,4(sp)
 3041544:	df000017 	ldw	fp,0(sp)
 3041548:	dec00204 	addi	sp,sp,8
 304154c:	f800283a 	ret

03041550 <fatSameLongFilename>:

bool fatSameLongFilename(alt_u16 *p1, alt_u16 *p2){
 3041550:	defffc04 	addi	sp,sp,-16
 3041554:	df000315 	stw	fp,12(sp)
 3041558:	df000304 	addi	fp,sp,12
 304155c:	e13ffe15 	stw	r4,-8(fp)
 3041560:	e17ffd15 	stw	r5,-12(fp)
    bool bSame = TRUE;
 3041564:	00800044 	movi	r2,1
 3041568:	e0bfffc5 	stb	r2,-1(fp)
    
    while(bSame && ((*p1 != 0) || (*p2 != 0))){
 304156c:	00000e06 	br	30415a8 <fatSameLongFilename+0x58>
        if (*p1 != *p2){
 3041570:	e0bffe17 	ldw	r2,-8(fp)
 3041574:	10c0000b 	ldhu	r3,0(r2)
 3041578:	e0bffd17 	ldw	r2,-12(fp)
 304157c:	1080000b 	ldhu	r2,0(r2)
 3041580:	18ffffcc 	andi	r3,r3,65535
 3041584:	10bfffcc 	andi	r2,r2,65535
 3041588:	18800126 	beq	r3,r2,3041590 <fatSameLongFilename+0x40>
            bSame = FALSE;
 304158c:	e03fffc5 	stb	zero,-1(fp)
        }
        p1++;
 3041590:	e0bffe17 	ldw	r2,-8(fp)
 3041594:	10800084 	addi	r2,r2,2
 3041598:	e0bffe15 	stw	r2,-8(fp)
        p2++;
 304159c:	e0bffd17 	ldw	r2,-12(fp)
 30415a0:	10800084 	addi	r2,r2,2
 30415a4:	e0bffd15 	stw	r2,-12(fp)
    while(bSame && ((*p1 != 0) || (*p2 != 0))){
 30415a8:	e0bfffc3 	ldbu	r2,-1(fp)
 30415ac:	10000826 	beq	r2,zero,30415d0 <fatSameLongFilename+0x80>
 30415b0:	e0bffe17 	ldw	r2,-8(fp)
 30415b4:	1080000b 	ldhu	r2,0(r2)
 30415b8:	10bfffcc 	andi	r2,r2,65535
 30415bc:	103fec1e 	bne	r2,zero,3041570 <fatSameLongFilename+0x20>
 30415c0:	e0bffd17 	ldw	r2,-12(fp)
 30415c4:	1080000b 	ldhu	r2,0(r2)
 30415c8:	10bfffcc 	andi	r2,r2,65535
 30415cc:	103fe81e 	bne	r2,zero,3041570 <fatSameLongFilename+0x20>
        
    }
    
    return bSame;
 30415d0:	e0bfffc3 	ldbu	r2,-1(fp)
}
 30415d4:	e037883a 	mov	sp,fp
 30415d8:	df000017 	ldw	fp,0(sp)
 30415dc:	dec00104 	addi	sp,sp,4
 30415e0:	f800283a 	ret

030415e4 <fatComposeShortFilename>:


void fatComposeShortFilename(FAT_DIRECTORY *pDir, char *szFilename){
 30415e4:	defffb04 	addi	sp,sp,-20
 30415e8:	df000415 	stw	fp,16(sp)
 30415ec:	df000404 	addi	fp,sp,16
 30415f0:	e13ffd15 	stw	r4,-12(fp)
 30415f4:	e17ffc15 	stw	r5,-16(fp)
    int i,nPos=0;
 30415f8:	e03ffe15 	stw	zero,-8(fp)
    
    i=0;
 30415fc:	e03fff15 	stw	zero,-4(fp)
    while(i < 8 && pDir->Name[i] != 0 && pDir->Name[i] != ' ')
 3041600:	00000d06 	br	3041638 <fatComposeShortFilename+0x54>
        szFilename[nPos++] = pDir->Name[i++];
 3041604:	e0bfff17 	ldw	r2,-4(fp)
 3041608:	10c00044 	addi	r3,r2,1
 304160c:	e0ffff15 	stw	r3,-4(fp)
 3041610:	e0fffe17 	ldw	r3,-8(fp)
 3041614:	19000044 	addi	r4,r3,1
 3041618:	e13ffe15 	stw	r4,-8(fp)
 304161c:	1809883a 	mov	r4,r3
 3041620:	e0fffc17 	ldw	r3,-16(fp)
 3041624:	1907883a 	add	r3,r3,r4
 3041628:	e13ffd17 	ldw	r4,-12(fp)
 304162c:	2085883a 	add	r2,r4,r2
 3041630:	10800003 	ldbu	r2,0(r2)
 3041634:	18800005 	stb	r2,0(r3)
    while(i < 8 && pDir->Name[i] != 0 && pDir->Name[i] != ' ')
 3041638:	e0bfff17 	ldw	r2,-4(fp)
 304163c:	10800208 	cmpgei	r2,r2,8
 3041640:	1000111e 	bne	r2,zero,3041688 <fatComposeShortFilename+0xa4>
 3041644:	e0fffd17 	ldw	r3,-12(fp)
 3041648:	e0bfff17 	ldw	r2,-4(fp)
 304164c:	1885883a 	add	r2,r3,r2
 3041650:	10800003 	ldbu	r2,0(r2)
 3041654:	10803fcc 	andi	r2,r2,255
 3041658:	1080201c 	xori	r2,r2,128
 304165c:	10bfe004 	addi	r2,r2,-128
 3041660:	10000926 	beq	r2,zero,3041688 <fatComposeShortFilename+0xa4>
 3041664:	e0fffd17 	ldw	r3,-12(fp)
 3041668:	e0bfff17 	ldw	r2,-4(fp)
 304166c:	1885883a 	add	r2,r3,r2
 3041670:	10800003 	ldbu	r2,0(r2)
 3041674:	10803fcc 	andi	r2,r2,255
 3041678:	1080201c 	xori	r2,r2,128
 304167c:	10bfe004 	addi	r2,r2,-128
 3041680:	10800818 	cmpnei	r2,r2,32
 3041684:	103fdf1e 	bne	r2,zero,3041604 <fatComposeShortFilename+0x20>
    
    if (pDir->Attribute & (ATTR_ARCHIVE | ATTR_DIRECTORY)){
 3041688:	e0bffd17 	ldw	r2,-12(fp)
 304168c:	108002c3 	ldbu	r2,11(r2)
 3041690:	10803fcc 	andi	r2,r2,255
 3041694:	10800c0c 	andi	r2,r2,48
 3041698:	10003026 	beq	r2,zero,304175c <fatComposeShortFilename+0x178>
        if (pDir->Attribute & (ATTR_ARCHIVE | ATTR_DIRECTORY))     
 304169c:	e0bffd17 	ldw	r2,-12(fp)
 30416a0:	108002c3 	ldbu	r2,11(r2)
 30416a4:	10803fcc 	andi	r2,r2,255
 30416a8:	10800c0c 	andi	r2,r2,48
 30416ac:	10000826 	beq	r2,zero,30416d0 <fatComposeShortFilename+0xec>
            szFilename[nPos++] = '.';   
 30416b0:	e0bffe17 	ldw	r2,-8(fp)
 30416b4:	10c00044 	addi	r3,r2,1
 30416b8:	e0fffe15 	stw	r3,-8(fp)
 30416bc:	1007883a 	mov	r3,r2
 30416c0:	e0bffc17 	ldw	r2,-16(fp)
 30416c4:	10c5883a 	add	r2,r2,r3
 30416c8:	00c00b84 	movi	r3,46
 30416cc:	10c00005 	stb	r3,0(r2)
        i=0;
 30416d0:	e03fff15 	stw	zero,-4(fp)
        while(i < 3 && pDir->Extension[i] != 0 && pDir->Extension[i] != ' ')
 30416d4:	00000d06 	br	304170c <fatComposeShortFilename+0x128>
            szFilename[nPos++] = pDir->Extension[i++];
 30416d8:	e0bfff17 	ldw	r2,-4(fp)
 30416dc:	10c00044 	addi	r3,r2,1
 30416e0:	e0ffff15 	stw	r3,-4(fp)
 30416e4:	e0fffe17 	ldw	r3,-8(fp)
 30416e8:	19000044 	addi	r4,r3,1
 30416ec:	e13ffe15 	stw	r4,-8(fp)
 30416f0:	1809883a 	mov	r4,r3
 30416f4:	e0fffc17 	ldw	r3,-16(fp)
 30416f8:	1907883a 	add	r3,r3,r4
 30416fc:	e13ffd17 	ldw	r4,-12(fp)
 3041700:	2085883a 	add	r2,r4,r2
 3041704:	10800203 	ldbu	r2,8(r2)
 3041708:	18800005 	stb	r2,0(r3)
        while(i < 3 && pDir->Extension[i] != 0 && pDir->Extension[i] != ' ')
 304170c:	e0bfff17 	ldw	r2,-4(fp)
 3041710:	108000c8 	cmpgei	r2,r2,3
 3041714:	1000111e 	bne	r2,zero,304175c <fatComposeShortFilename+0x178>
 3041718:	e0fffd17 	ldw	r3,-12(fp)
 304171c:	e0bfff17 	ldw	r2,-4(fp)
 3041720:	1885883a 	add	r2,r3,r2
 3041724:	10800203 	ldbu	r2,8(r2)
 3041728:	10803fcc 	andi	r2,r2,255
 304172c:	1080201c 	xori	r2,r2,128
 3041730:	10bfe004 	addi	r2,r2,-128
 3041734:	10000926 	beq	r2,zero,304175c <fatComposeShortFilename+0x178>
 3041738:	e0fffd17 	ldw	r3,-12(fp)
 304173c:	e0bfff17 	ldw	r2,-4(fp)
 3041740:	1885883a 	add	r2,r3,r2
 3041744:	10800203 	ldbu	r2,8(r2)
 3041748:	10803fcc 	andi	r2,r2,255
 304174c:	1080201c 	xori	r2,r2,128
 3041750:	10bfe004 	addi	r2,r2,-128
 3041754:	10800818 	cmpnei	r2,r2,32
 3041758:	103fdf1e 	bne	r2,zero,30416d8 <fatComposeShortFilename+0xf4>
    }            
    szFilename[nPos++] = 0;
 304175c:	e0bffe17 	ldw	r2,-8(fp)
 3041760:	10c00044 	addi	r3,r2,1
 3041764:	e0fffe15 	stw	r3,-8(fp)
 3041768:	1007883a 	mov	r3,r2
 304176c:	e0bffc17 	ldw	r2,-16(fp)
 3041770:	10c5883a 	add	r2,r2,r3
 3041774:	10000005 	stb	zero,0(r2)
}
 3041778:	0001883a 	nop
 304177c:	e037883a 	mov	sp,fp
 3041780:	df000017 	ldw	fp,0(sp)
 3041784:	dec00104 	addi	sp,sp,4
 3041788:	f800283a 	ret

0304178c <Fat_FileExist>:





bool Fat_FileExist(FAT_HANDLE Fat, const char *pFilename){
 304178c:	deffb204 	addi	sp,sp,-312
 3041790:	dfc04d15 	stw	ra,308(sp)
 3041794:	df004c15 	stw	fp,304(sp)
 3041798:	df004c04 	addi	fp,sp,304
 304179c:	e13fb515 	stw	r4,-300(fp)
 30417a0:	e17fb415 	stw	r5,-304(fp)
    bool bFind = FALSE;
 30417a4:	e03fffc5 	stb	zero,-1(fp)
    FAT_BROWSE_HANDLE hBrowse;     
    FILE_CONTEXT FileContext;
    if (Fat_FileBrowseBegin(Fat, &hBrowse)){
 30417a8:	e0bffd04 	addi	r2,fp,-12
 30417ac:	100b883a 	mov	r5,r2
 30417b0:	e13fb517 	ldw	r4,-300(fp)
 30417b4:	3040ff80 	call	3040ff8 <Fat_FileBrowseBegin>
 30417b8:	10803fcc 	andi	r2,r2,255
 30417bc:	10001e26 	beq	r2,zero,3041838 <Fat_FileExist+0xac>
        while (!bFind && Fat_FileBrowseNext(&hBrowse, &FileContext)){
 30417c0:	00001006 	br	3041804 <Fat_FileExist+0x78>
            if (FileContext.bLongFilename){
 30417c4:	e0bff603 	ldbu	r2,-40(fp)
 30417c8:	10803fcc 	andi	r2,r2,255
 30417cc:	10000626 	beq	r2,zero,30417e8 <Fat_FileExist+0x5c>
                bFind = fatSameLongFilename((alt_u16 *)FileContext.szName, (alt_u16 *)pFilename);
 30417d0:	e0bfb604 	addi	r2,fp,-296
 30417d4:	e17fb417 	ldw	r5,-304(fp)
 30417d8:	1009883a 	mov	r4,r2
 30417dc:	30415500 	call	3041550 <fatSameLongFilename>
 30417e0:	e0bfffc5 	stb	r2,-1(fp)
 30417e4:	00000706 	br	3041804 <Fat_FileExist+0x78>
            }else{
                if (strcmp(FileContext.szName, pFilename) == 0)
 30417e8:	e0bfb604 	addi	r2,fp,-296
 30417ec:	e17fb417 	ldw	r5,-304(fp)
 30417f0:	1009883a 	mov	r4,r2
 30417f4:	304c6040 	call	304c604 <strcmp>
 30417f8:	1000021e 	bne	r2,zero,3041804 <Fat_FileExist+0x78>
                    bFind = TRUE;
 30417fc:	00800044 	movi	r2,1
 3041800:	e0bfffc5 	stb	r2,-1(fp)
        while (!bFind && Fat_FileBrowseNext(&hBrowse, &FileContext)){
 3041804:	e0bfffc3 	ldbu	r2,-1(fp)
 3041808:	1080005c 	xori	r2,r2,1
 304180c:	10803fcc 	andi	r2,r2,255
 3041810:	10000726 	beq	r2,zero,3041830 <Fat_FileExist+0xa4>
 3041814:	e0ffb604 	addi	r3,fp,-296
 3041818:	e0bffd04 	addi	r2,fp,-12
 304181c:	180b883a 	mov	r5,r3
 3041820:	1009883a 	mov	r4,r2
 3041824:	304106c0 	call	304106c <Fat_FileBrowseNext>
 3041828:	10803fcc 	andi	r2,r2,255
 304182c:	103fe51e 	bne	r2,zero,30417c4 <Fat_FileExist+0x38>
            }    
        } // while 
        Fat_FileClose(Fat); 
 3041830:	e13fb517 	ldw	r4,-300(fp)
 3041834:	30420800 	call	3042080 <Fat_FileClose>
    }
    return bFind;            
 3041838:	e0bfffc3 	ldbu	r2,-1(fp)
}    
 304183c:	e037883a 	mov	sp,fp
 3041840:	dfc00117 	ldw	ra,4(sp)
 3041844:	df000017 	ldw	fp,0(sp)
 3041848:	dec00204 	addi	sp,sp,8
 304184c:	f800283a 	ret

03041850 <Fat_FileOpen>:
 
// File Access
FAT_FILE_HANDLE Fat_FileOpen(FAT_HANDLE Fat, const char *pFilename){
 3041850:	deff6e04 	addi	sp,sp,-584
 3041854:	dfc09115 	stw	ra,580(sp)
 3041858:	df009015 	stw	fp,576(sp)
 304185c:	df009004 	addi	fp,sp,576
 3041860:	e13f7115 	stw	r4,-572(fp)
 3041864:	e17f7015 	stw	r5,-576(fp)
    bool bFind = FALSE;
 3041868:	e03fffc5 	stb	zero,-1(fp)
    FAT_BROWSE_HANDLE hBrowse;     
    FILE_CONTEXT FileContext;
    FAT_FILE_INFO *pFile = 0;
 304186c:	e03ffe15 	stw	zero,-8(fp)
    int nPos = 0;
 3041870:	e03ffd15 	stw	zero,-12(fp)
    char szWaveFilename[MAX_FILENAME_LENGTH];
    
    if (Fat_FileBrowseBegin(Fat, &hBrowse)){
 3041874:	e0bff904 	addi	r2,fp,-28
 3041878:	100b883a 	mov	r5,r2
 304187c:	e13f7117 	ldw	r4,-572(fp)
 3041880:	3040ff80 	call	3040ff8 <Fat_FileBrowseBegin>
 3041884:	10803fcc 	andi	r2,r2,255
 3041888:	10007626 	beq	r2,zero,3041a64 <Fat_FileOpen+0x214>
        while (!bFind && Fat_FileBrowseNext(&hBrowse, &FileContext)){
 304188c:	00004a06 	br	30419b8 <Fat_FileOpen+0x168>
            if (FileContext.bLongFilename){
 3041890:	e0bff203 	ldbu	r2,-56(fp)
 3041894:	10803fcc 	andi	r2,r2,255
 3041898:	10004026 	beq	r2,zero,304199c <Fat_FileOpen+0x14c>
                //bFind = fatSameLongFilename((alt_u16 *)FileContext.szName, (alt_u16 *)pFilename);
                nPos = 0;
 304189c:	e03ffd15 	stw	zero,-12(fp)
                alt_u16 *pData16;
                alt_u8 *pData8;
                pData16 = (alt_u16 *)FileContext.szName;
 30418a0:	e0bfb204 	addi	r2,fp,-312
 30418a4:	e0bffc15 	stw	r2,-16(fp)
                pData8 = FileContext.szName;
 30418a8:	e0bfb204 	addi	r2,fp,-312
 30418ac:	e0bffb15 	stw	r2,-20(fp)
                while(*pData16){
 30418b0:	00002b06 	br	3041960 <Fat_FileOpen+0x110>
                    if (*pData8 && *pData8 != ' ')
 30418b4:	e0bffb17 	ldw	r2,-20(fp)
 30418b8:	10800003 	ldbu	r2,0(r2)
 30418bc:	10803fcc 	andi	r2,r2,255
 30418c0:	10000d26 	beq	r2,zero,30418f8 <Fat_FileOpen+0xa8>
 30418c4:	e0bffb17 	ldw	r2,-20(fp)
 30418c8:	10800003 	ldbu	r2,0(r2)
 30418cc:	10803fcc 	andi	r2,r2,255
 30418d0:	10800820 	cmpeqi	r2,r2,32
 30418d4:	1000081e 	bne	r2,zero,30418f8 <Fat_FileOpen+0xa8>
                        szWaveFilename[nPos++] = *pData8;
 30418d8:	e0bffb17 	ldw	r2,-20(fp)
 30418dc:	11000003 	ldbu	r4,0(r2)
 30418e0:	e0bffd17 	ldw	r2,-12(fp)
 30418e4:	10c00044 	addi	r3,r2,1
 30418e8:	e0fffd15 	stw	r3,-12(fp)
 30418ec:	2007883a 	mov	r3,r4
 30418f0:	e085883a 	add	r2,fp,r2
 30418f4:	10ff7205 	stb	r3,-568(r2)
                    pData8++;
 30418f8:	e0bffb17 	ldw	r2,-20(fp)
 30418fc:	10800044 	addi	r2,r2,1
 3041900:	e0bffb15 	stw	r2,-20(fp)
                    if (*pData8 && *pData8 != ' ')
 3041904:	e0bffb17 	ldw	r2,-20(fp)
 3041908:	10800003 	ldbu	r2,0(r2)
 304190c:	10803fcc 	andi	r2,r2,255
 3041910:	10000d26 	beq	r2,zero,3041948 <Fat_FileOpen+0xf8>
 3041914:	e0bffb17 	ldw	r2,-20(fp)
 3041918:	10800003 	ldbu	r2,0(r2)
 304191c:	10803fcc 	andi	r2,r2,255
 3041920:	10800820 	cmpeqi	r2,r2,32
 3041924:	1000081e 	bne	r2,zero,3041948 <Fat_FileOpen+0xf8>
                        szWaveFilename[nPos++] = *pData8;
 3041928:	e0bffb17 	ldw	r2,-20(fp)
 304192c:	11000003 	ldbu	r4,0(r2)
 3041930:	e0bffd17 	ldw	r2,-12(fp)
 3041934:	10c00044 	addi	r3,r2,1
 3041938:	e0fffd15 	stw	r3,-12(fp)
 304193c:	2007883a 	mov	r3,r4
 3041940:	e085883a 	add	r2,fp,r2
 3041944:	10ff7205 	stb	r3,-568(r2)
                    pData8++;                    
 3041948:	e0bffb17 	ldw	r2,-20(fp)
 304194c:	10800044 	addi	r2,r2,1
 3041950:	e0bffb15 	stw	r2,-20(fp)
                    //    
                    pData16++;
 3041954:	e0bffc17 	ldw	r2,-16(fp)
 3041958:	10800084 	addi	r2,r2,2
 304195c:	e0bffc15 	stw	r2,-16(fp)
                while(*pData16){
 3041960:	e0bffc17 	ldw	r2,-16(fp)
 3041964:	1080000b 	ldhu	r2,0(r2)
 3041968:	10bfffcc 	andi	r2,r2,65535
 304196c:	103fd11e 	bne	r2,zero,30418b4 <Fat_FileOpen+0x64>
                }
                szWaveFilename[nPos] = 0;
 3041970:	e0bffd17 	ldw	r2,-12(fp)
 3041974:	e085883a 	add	r2,fp,r2
 3041978:	103f7205 	stb	zero,-568(r2)
                
                if(strcmp(pFilename,szWaveFilename) == 0)
 304197c:	e0bf7204 	addi	r2,fp,-568
 3041980:	100b883a 	mov	r5,r2
 3041984:	e13f7017 	ldw	r4,-576(fp)
 3041988:	304c6040 	call	304c604 <strcmp>
 304198c:	10000a1e 	bne	r2,zero,30419b8 <Fat_FileOpen+0x168>
                    bFind = TRUE;
 3041990:	00800044 	movi	r2,1
 3041994:	e0bfffc5 	stb	r2,-1(fp)
 3041998:	00000706 	br	30419b8 <Fat_FileOpen+0x168>
            }else{
                if (strcmp(FileContext.szName, pFilename) == 0)
 304199c:	e0bfb204 	addi	r2,fp,-312
 30419a0:	e17f7017 	ldw	r5,-576(fp)
 30419a4:	1009883a 	mov	r4,r2
 30419a8:	304c6040 	call	304c604 <strcmp>
 30419ac:	1000021e 	bne	r2,zero,30419b8 <Fat_FileOpen+0x168>
                    bFind = TRUE;
 30419b0:	00800044 	movi	r2,1
 30419b4:	e0bfffc5 	stb	r2,-1(fp)
        while (!bFind && Fat_FileBrowseNext(&hBrowse, &FileContext)){
 30419b8:	e0bfffc3 	ldbu	r2,-1(fp)
 30419bc:	1080005c 	xori	r2,r2,1
 30419c0:	10803fcc 	andi	r2,r2,255
 30419c4:	10000726 	beq	r2,zero,30419e4 <Fat_FileOpen+0x194>
 30419c8:	e0ffb204 	addi	r3,fp,-312
 30419cc:	e0bff904 	addi	r2,fp,-28
 30419d0:	180b883a 	mov	r5,r3
 30419d4:	1009883a 	mov	r4,r2
 30419d8:	304106c0 	call	304106c <Fat_FileBrowseNext>
 30419dc:	10803fcc 	andi	r2,r2,255
 30419e0:	103fab1e 	bne	r2,zero,3041890 <Fat_FileOpen+0x40>
            }    
        } // while 
        
        if (bFind){
 30419e4:	e0bfffc3 	ldbu	r2,-1(fp)
 30419e8:	10001e26 	beq	r2,zero,3041a64 <Fat_FileOpen+0x214>
            pFile = malloc(sizeof(FAT_FILE_INFO));
 30419ec:	01004d04 	movi	r4,308
 30419f0:	304b6140 	call	304b614 <malloc>
 30419f4:	e0bffe15 	stw	r2,-8(fp)
            if (pFile){
 30419f8:	e0bffe17 	ldw	r2,-8(fp)
 30419fc:	10001926 	beq	r2,zero,3041a64 <Fat_FileOpen+0x214>
                pFile->OpenAttribute = FILE_OPEN_READ; 
 3041a00:	e0bffe17 	ldw	r2,-8(fp)
 3041a04:	00c00044 	movi	r3,1
 3041a08:	10c00115 	stw	r3,4(r2)
                pFile->SeekPos = 0;
 3041a0c:	e0bffe17 	ldw	r2,-8(fp)
 3041a10:	10000215 	stw	zero,8(r2)
                pFile->Directory = FileContext;
 3041a14:	e0bffe17 	ldw	r2,-8(fp)
 3041a18:	10800504 	addi	r2,r2,20
 3041a1c:	e0ffb204 	addi	r3,fp,-312
 3041a20:	01004704 	movi	r4,284
 3041a24:	200d883a 	mov	r6,r4
 3041a28:	180b883a 	mov	r5,r3
 3041a2c:	1009883a 	mov	r4,r2
 3041a30:	304be140 	call	304be14 <memcpy>
                pFile->IsOpened = TRUE;
 3041a34:	e0bffe17 	ldw	r2,-8(fp)
 3041a38:	00c00044 	movi	r3,1
 3041a3c:	10c00005 	stb	r3,0(r2)
                pFile->Cluster = FileContext.FirstLogicalCluster;
 3041a40:	e0bff78b 	ldhu	r2,-34(fp)
 3041a44:	10ffffcc 	andi	r3,r2,65535
 3041a48:	e0bffe17 	ldw	r2,-8(fp)
 3041a4c:	10c00315 	stw	r3,12(r2)
                pFile->ClusterSeq = 0;
 3041a50:	e0bffe17 	ldw	r2,-8(fp)
 3041a54:	10000415 	stw	zero,16(r2)
                pFile->Fat = Fat;
 3041a58:	e0bffe17 	ldw	r2,-8(fp)
 3041a5c:	e0ff7117 	ldw	r3,-572(fp)
 3041a60:	10c04c15 	stw	r3,304(r2)
            }    
        }    
    }  

    
    return (FAT_FILE_HANDLE)pFile;  
 3041a64:	e0bffe17 	ldw	r2,-8(fp)
}
 3041a68:	e037883a 	mov	sp,fp
 3041a6c:	dfc00117 	ldw	ra,4(sp)
 3041a70:	df000017 	ldw	fp,0(sp)
 3041a74:	dec00204 	addi	sp,sp,8
 3041a78:	f800283a 	ret

03041a7c <Fat_FileSize>:


unsigned int Fat_FileSize(FAT_FILE_HANDLE hFileHandle){
 3041a7c:	defffd04 	addi	sp,sp,-12
 3041a80:	df000215 	stw	fp,8(sp)
 3041a84:	df000204 	addi	fp,sp,8
 3041a88:	e13ffe15 	stw	r4,-8(fp)
    FAT_FILE_INFO *f = (FAT_FILE_INFO *)hFileHandle;
 3041a8c:	e0bffe17 	ldw	r2,-8(fp)
 3041a90:	e0bfff15 	stw	r2,-4(fp)
    if (f->IsOpened)
 3041a94:	e0bfff17 	ldw	r2,-4(fp)
 3041a98:	10800003 	ldbu	r2,0(r2)
 3041a9c:	10803fcc 	andi	r2,r2,255
 3041aa0:	10000326 	beq	r2,zero,3041ab0 <Fat_FileSize+0x34>
        return f->Directory.FileSize;
 3041aa4:	e0bfff17 	ldw	r2,-4(fp)
 3041aa8:	10804b17 	ldw	r2,300(r2)
 3041aac:	00000106 	br	3041ab4 <Fat_FileSize+0x38>
    return 0;        
 3041ab0:	0005883a 	mov	r2,zero
}
 3041ab4:	e037883a 	mov	sp,fp
 3041ab8:	df000017 	ldw	fp,0(sp)
 3041abc:	dec00104 	addi	sp,sp,4
 3041ac0:	f800283a 	ret

03041ac4 <Fat_FileRead>:


bool Fat_FileRead(FAT_FILE_HANDLE hFileHandle, void *pBuffer, const int nBufferSize){
 3041ac4:	deffef04 	addi	sp,sp,-68
 3041ac8:	dfc01015 	stw	ra,64(sp)
 3041acc:	df000f15 	stw	fp,60(sp)
 3041ad0:	df000f04 	addi	fp,sp,60
 3041ad4:	e13ff315 	stw	r4,-52(fp)
 3041ad8:	e17ff215 	stw	r5,-56(fp)
 3041adc:	e1bff115 	stw	r6,-60(fp)
    FAT_FILE_INFO *f = (FAT_FILE_INFO *)hFileHandle;
 3041ae0:	e0bff317 	ldw	r2,-52(fp)
 3041ae4:	e0bff715 	stw	r2,-36(fp)
    VOLUME_INFO *pVol;
    alt_u32 Pos, PhysicalSecter, NextCluster, Cluster;
    alt_u32 BytesPerCluster, nReadCount=0, nClusterSeq;
 3041ae8:	e03ffc15 	stw	zero,-16(fp)
    int s;
    bool bSuccess= TRUE;
 3041aec:	00800044 	movi	r2,1
 3041af0:	e0bff9c5 	stb	r2,-25(fp)
    
    if (!f || !f->Fat)
 3041af4:	e0bff717 	ldw	r2,-36(fp)
 3041af8:	10000326 	beq	r2,zero,3041b08 <Fat_FileRead+0x44>
 3041afc:	e0bff717 	ldw	r2,-36(fp)
 3041b00:	10804c17 	ldw	r2,304(r2)
 3041b04:	1000021e 	bne	r2,zero,3041b10 <Fat_FileRead+0x4c>
        return FALSE;
 3041b08:	0005883a 	mov	r2,zero
 3041b0c:	00011006 	br	3041f50 <Fat_FileRead+0x48c>
    pVol = (VOLUME_INFO *)f->Fat;        
 3041b10:	e0bff717 	ldw	r2,-36(fp)
 3041b14:	10804c17 	ldw	r2,304(r2)
 3041b18:	e0bff615 	stw	r2,-40(fp)
    
    if (!f->IsOpened){
 3041b1c:	e0bff717 	ldw	r2,-36(fp)
 3041b20:	10800003 	ldbu	r2,0(r2)
 3041b24:	1080005c 	xori	r2,r2,1
 3041b28:	10803fcc 	andi	r2,r2,255
 3041b2c:	10000526 	beq	r2,zero,3041b44 <Fat_FileRead+0x80>
        FAT_DEBUG(("[FAT] Fat_FileRead, file not opened\r\n"));
 3041b30:	0100c1b4 	movhi	r4,774
 3041b34:	213f0d04 	addi	r4,r4,-972
 3041b38:	30450c80 	call	30450c8 <myprintf>
        return bSuccess;
 3041b3c:	e0bff9c3 	ldbu	r2,-25(fp)
 3041b40:	00010306 	br	3041f50 <Fat_FileRead+0x48c>
    }        
        
    BytesPerCluster = pVol->nBytesPerCluster; //gVolumeInfo.BPB_BytsPerSec * gVolumeInfo.BPB_SecPerCluster;  
 3041b44:	e0bff617 	ldw	r2,-40(fp)
 3041b48:	10800c17 	ldw	r2,48(r2)
 3041b4c:	e0bff515 	stw	r2,-44(fp)
    Pos = f->SeekPos;
 3041b50:	e0bff717 	ldw	r2,-36(fp)
 3041b54:	10800217 	ldw	r2,8(r2)
 3041b58:	e0bfff15 	stw	r2,-4(fp)
    if (BytesPerCluster == 32768){
 3041b5c:	e0fff517 	ldw	r3,-44(fp)
 3041b60:	00a00014 	movui	r2,32768
 3041b64:	18800a1e 	bne	r3,r2,3041b90 <Fat_FileRead+0xcc>
        nClusterSeq = Pos >> 15;
 3041b68:	e0bfff17 	ldw	r2,-4(fp)
 3041b6c:	1004d3fa 	srli	r2,r2,15
 3041b70:	e0bffb15 	stw	r2,-20(fp)
        Pos -= (f->ClusterSeq << 15);
 3041b74:	e0bff717 	ldw	r2,-36(fp)
 3041b78:	10800417 	ldw	r2,16(r2)
 3041b7c:	100493fa 	slli	r2,r2,15
 3041b80:	e0ffff17 	ldw	r3,-4(fp)
 3041b84:	1885c83a 	sub	r2,r3,r2
 3041b88:	e0bfff15 	stw	r2,-4(fp)
 3041b8c:	00002506 	br	3041c24 <Fat_FileRead+0x160>
    }else if (BytesPerCluster == 16384){
 3041b90:	e0bff517 	ldw	r2,-44(fp)
 3041b94:	10900018 	cmpnei	r2,r2,16384
 3041b98:	10000a1e 	bne	r2,zero,3041bc4 <Fat_FileRead+0x100>
        nClusterSeq = Pos >> 14;
 3041b9c:	e0bfff17 	ldw	r2,-4(fp)
 3041ba0:	1004d3ba 	srli	r2,r2,14
 3041ba4:	e0bffb15 	stw	r2,-20(fp)
        Pos -= (f->ClusterSeq << 14);
 3041ba8:	e0bff717 	ldw	r2,-36(fp)
 3041bac:	10800417 	ldw	r2,16(r2)
 3041bb0:	100493ba 	slli	r2,r2,14
 3041bb4:	e0ffff17 	ldw	r3,-4(fp)
 3041bb8:	1885c83a 	sub	r2,r3,r2
 3041bbc:	e0bfff15 	stw	r2,-4(fp)
 3041bc0:	00001806 	br	3041c24 <Fat_FileRead+0x160>
    }else if (BytesPerCluster == 2048){
 3041bc4:	e0bff517 	ldw	r2,-44(fp)
 3041bc8:	10820018 	cmpnei	r2,r2,2048
 3041bcc:	10000a1e 	bne	r2,zero,3041bf8 <Fat_FileRead+0x134>
        nClusterSeq = Pos >> 11;
 3041bd0:	e0bfff17 	ldw	r2,-4(fp)
 3041bd4:	1004d2fa 	srli	r2,r2,11
 3041bd8:	e0bffb15 	stw	r2,-20(fp)
        Pos -= (f->ClusterSeq << 11);
 3041bdc:	e0bff717 	ldw	r2,-36(fp)
 3041be0:	10800417 	ldw	r2,16(r2)
 3041be4:	100492fa 	slli	r2,r2,11
 3041be8:	e0ffff17 	ldw	r3,-4(fp)
 3041bec:	1885c83a 	sub	r2,r3,r2
 3041bf0:	e0bfff15 	stw	r2,-4(fp)
 3041bf4:	00000b06 	br	3041c24 <Fat_FileRead+0x160>
    }else{        
        nClusterSeq = Pos/BytesPerCluster;
 3041bf8:	e17ff517 	ldw	r5,-44(fp)
 3041bfc:	e13fff17 	ldw	r4,-4(fp)
 3041c00:	3048a240 	call	3048a24 <__udivsi3>
 3041c04:	e0bffb15 	stw	r2,-20(fp)
        Pos -= f->ClusterSeq*BytesPerCluster;
 3041c08:	e0bff717 	ldw	r2,-36(fp)
 3041c0c:	10c00417 	ldw	r3,16(r2)
 3041c10:	e0bff517 	ldw	r2,-44(fp)
 3041c14:	1885383a 	mul	r2,r3,r2
 3041c18:	e0ffff17 	ldw	r3,-4(fp)
 3041c1c:	1885c83a 	sub	r2,r3,r2
 3041c20:	e0bfff15 	stw	r2,-4(fp)
    }    
        
       
    Cluster = f->Cluster;
 3041c24:	e0bff717 	ldw	r2,-36(fp)
 3041c28:	10800317 	ldw	r2,12(r2)
 3041c2c:	e0bffd15 	stw	r2,-12(fp)
    if (nClusterSeq != f->ClusterSeq){
 3041c30:	e0bff717 	ldw	r2,-36(fp)
 3041c34:	10800417 	ldw	r2,16(r2)
 3041c38:	e0fffb17 	ldw	r3,-20(fp)
 3041c3c:	1880b626 	beq	r3,r2,3041f18 <Fat_FileRead+0x454>
        Cluster = f->Cluster;  //11/20/2007, richard
 3041c40:	e0bff717 	ldw	r2,-36(fp)
 3041c44:	10800317 	ldw	r2,12(r2)
 3041c48:	e0bffd15 	stw	r2,-12(fp)
        // move to first clustor for reading
        while (Pos >= BytesPerCluster && bSuccess){
 3041c4c:	00001a06 	br	3041cb8 <Fat_FileRead+0x1f4>
            // go to next cluster
            NextCluster = fatNextCluster(pVol, Cluster); 
 3041c50:	e17ffd17 	ldw	r5,-12(fp)
 3041c54:	e13ff617 	ldw	r4,-40(fp)
 3041c58:	30424680 	call	3042468 <fatNextCluster>
 3041c5c:	e0bff415 	stw	r2,-48(fp)
            if (NextCluster == 0){
 3041c60:	e0bff417 	ldw	r2,-48(fp)
 3041c64:	1000061e 	bne	r2,zero,3041c80 <Fat_FileRead+0x1bc>
                bSuccess = FALSE;
 3041c68:	e03ff9c5 	stb	zero,-25(fp)
                FAT_DEBUG(("[FAT] Fat_FileRead, no next Cluster, current Cluster=%d\r\n", Cluster));
 3041c6c:	e17ffd17 	ldw	r5,-12(fp)
 3041c70:	0100c1b4 	movhi	r4,774
 3041c74:	213f1704 	addi	r4,r4,-932
 3041c78:	30450c80 	call	30450c8 <myprintf>
 3041c7c:	00000206 	br	3041c88 <Fat_FileRead+0x1c4>
            }else{
                Cluster = NextCluster;
 3041c80:	e0bff417 	ldw	r2,-48(fp)
 3041c84:	e0bffd15 	stw	r2,-12(fp)
            }        
            Pos -= BytesPerCluster;
 3041c88:	e0ffff17 	ldw	r3,-4(fp)
 3041c8c:	e0bff517 	ldw	r2,-44(fp)
 3041c90:	1885c83a 	sub	r2,r3,r2
 3041c94:	e0bfff15 	stw	r2,-4(fp)
            f->Cluster = Cluster;
 3041c98:	e0bff717 	ldw	r2,-36(fp)
 3041c9c:	e0fffd17 	ldw	r3,-12(fp)
 3041ca0:	10c00315 	stw	r3,12(r2)
            f->ClusterSeq++; 
 3041ca4:	e0bff717 	ldw	r2,-36(fp)
 3041ca8:	10800417 	ldw	r2,16(r2)
 3041cac:	10c00044 	addi	r3,r2,1
 3041cb0:	e0bff717 	ldw	r2,-36(fp)
 3041cb4:	10c00415 	stw	r3,16(r2)
        while (Pos >= BytesPerCluster && bSuccess){
 3041cb8:	e0ffff17 	ldw	r3,-4(fp)
 3041cbc:	e0bff517 	ldw	r2,-44(fp)
 3041cc0:	18809536 	bltu	r3,r2,3041f18 <Fat_FileRead+0x454>
 3041cc4:	e0bff9c3 	ldbu	r2,-25(fp)
 3041cc8:	103fe11e 	bne	r2,zero,3041c50 <Fat_FileRead+0x18c>
        }
    }            
    
    // reading
    while(nReadCount < nBufferSize && bSuccess){
 3041ccc:	00009206 	br	3041f18 <Fat_FileRead+0x454>
        if (pVol->BPB_SecPerCluster == 32)
 3041cd0:	e0bff617 	ldw	r2,-40(fp)
 3041cd4:	10800717 	ldw	r2,28(r2)
 3041cd8:	10800818 	cmpnei	r2,r2,32
 3041cdc:	1000081e 	bne	r2,zero,3041d00 <Fat_FileRead+0x23c>
            PhysicalSecter = ((Cluster-2) << 5) + pVol->DataEntrySecter; // -2: FAT0 & FAT1 are reserved
 3041ce0:	e0bffd17 	ldw	r2,-12(fp)
 3041ce4:	10bfff84 	addi	r2,r2,-2
 3041ce8:	1006917a 	slli	r3,r2,5
 3041cec:	e0bff617 	ldw	r2,-40(fp)
 3041cf0:	10800f17 	ldw	r2,60(r2)
 3041cf4:	1885883a 	add	r2,r3,r2
 3041cf8:	e0bffe15 	stw	r2,-8(fp)
 3041cfc:	00001506 	br	3041d54 <Fat_FileRead+0x290>
        else if (pVol->BPB_SecPerCluster == 64)
 3041d00:	e0bff617 	ldw	r2,-40(fp)
 3041d04:	10800717 	ldw	r2,28(r2)
 3041d08:	10801018 	cmpnei	r2,r2,64
 3041d0c:	1000081e 	bne	r2,zero,3041d30 <Fat_FileRead+0x26c>
            PhysicalSecter = ((Cluster-2) << 6) + pVol->DataEntrySecter; // -2: FAT0 & FAT1 are reserved
 3041d10:	e0bffd17 	ldw	r2,-12(fp)
 3041d14:	10bfff84 	addi	r2,r2,-2
 3041d18:	100691ba 	slli	r3,r2,6
 3041d1c:	e0bff617 	ldw	r2,-40(fp)
 3041d20:	10800f17 	ldw	r2,60(r2)
 3041d24:	1885883a 	add	r2,r3,r2
 3041d28:	e0bffe15 	stw	r2,-8(fp)
 3041d2c:	00000906 	br	3041d54 <Fat_FileRead+0x290>
        else
            PhysicalSecter = (Cluster-2)*pVol->BPB_SecPerCluster + pVol->DataEntrySecter; // -2: FAT0 & FAT1 are reserved
 3041d30:	e0bffd17 	ldw	r2,-12(fp)
 3041d34:	10ffff84 	addi	r3,r2,-2
 3041d38:	e0bff617 	ldw	r2,-40(fp)
 3041d3c:	10800717 	ldw	r2,28(r2)
 3041d40:	1887383a 	mul	r3,r3,r2
 3041d44:	e0bff617 	ldw	r2,-40(fp)
 3041d48:	10800f17 	ldw	r2,60(r2)
 3041d4c:	1885883a 	add	r2,r3,r2
 3041d50:	e0bffe15 	stw	r2,-8(fp)
        for(s=0;s<pVol->BPB_SecPerCluster && nReadCount < nBufferSize && bSuccess;s++){
 3041d54:	e03ffa15 	stw	zero,-24(fp)
 3041d58:	00004e06 	br	3041e94 <Fat_FileRead+0x3d0>
            if (Pos >= pVol->BPB_BytsPerSec){
 3041d5c:	e0bff617 	ldw	r2,-40(fp)
 3041d60:	10800617 	ldw	r2,24(r2)
 3041d64:	e0ffff17 	ldw	r3,-4(fp)
 3041d68:	18800636 	bltu	r3,r2,3041d84 <Fat_FileRead+0x2c0>
                Pos -= pVol->BPB_BytsPerSec;
 3041d6c:	e0bff617 	ldw	r2,-40(fp)
 3041d70:	10800617 	ldw	r2,24(r2)
 3041d74:	e0ffff17 	ldw	r3,-4(fp)
 3041d78:	1885c83a 	sub	r2,r3,r2
 3041d7c:	e0bfff15 	stw	r2,-4(fp)
 3041d80:	00003e06 	br	3041e7c <Fat_FileRead+0x3b8>
            }else{
                // read secter data
                bSuccess = fatReadSecter(pVol, PhysicalSecter);
 3041d84:	e17ffe17 	ldw	r5,-8(fp)
 3041d88:	e13ff617 	ldw	r4,-40(fp)
 3041d8c:	30433400 	call	3043340 <fatReadSecter>
 3041d90:	e0bff9c5 	stb	r2,-25(fp)
                
                if (bSuccess){
 3041d94:	e0bff9c3 	ldbu	r2,-25(fp)
 3041d98:	10003826 	beq	r2,zero,3041e7c <Fat_FileRead+0x3b8>
                    // copy data to user buffer
                
                    int nCopyCount;
                    nCopyCount = pVol->BPB_BytsPerSec;
 3041d9c:	e0bff617 	ldw	r2,-40(fp)
 3041da0:	10800617 	ldw	r2,24(r2)
 3041da4:	e0bff815 	stw	r2,-32(fp)
                    if (Pos)
 3041da8:	e0bfff17 	ldw	r2,-4(fp)
 3041dac:	10000426 	beq	r2,zero,3041dc0 <Fat_FileRead+0x2fc>
                        nCopyCount -= Pos;
 3041db0:	e0fff817 	ldw	r3,-32(fp)
 3041db4:	e0bfff17 	ldw	r2,-4(fp)
 3041db8:	1885c83a 	sub	r2,r3,r2
 3041dbc:	e0bff815 	stw	r2,-32(fp)
                    if (nCopyCount > (nBufferSize-nReadCount))
 3041dc0:	e0fff117 	ldw	r3,-60(fp)
 3041dc4:	e0bffc17 	ldw	r2,-16(fp)
 3041dc8:	1887c83a 	sub	r3,r3,r2
 3041dcc:	e0bff817 	ldw	r2,-32(fp)
 3041dd0:	1880042e 	bgeu	r3,r2,3041de4 <Fat_FileRead+0x320>
                        nCopyCount = nBufferSize-nReadCount;
 3041dd4:	e0fff117 	ldw	r3,-60(fp)
 3041dd8:	e0bffc17 	ldw	r2,-16(fp)
 3041ddc:	1885c83a 	sub	r2,r3,r2
 3041de0:	e0bff815 	stw	r2,-32(fp)
                    if (nCopyCount == 512){
 3041de4:	e0bff817 	ldw	r2,-32(fp)
 3041de8:	10808018 	cmpnei	r2,r2,512
 3041dec:	1000111e 	bne	r2,zero,3041e34 <Fat_FileRead+0x370>
                        memcpy((char *)pBuffer+nReadCount, pVol->Secter_Data, 512);
 3041df0:	e0fff217 	ldw	r3,-56(fp)
 3041df4:	e0bffc17 	ldw	r2,-16(fp)
 3041df8:	1887883a 	add	r3,r3,r2
 3041dfc:	e0bff617 	ldw	r2,-40(fp)
 3041e00:	10801004 	addi	r2,r2,64
 3041e04:	01808004 	movi	r6,512
 3041e08:	100b883a 	mov	r5,r2
 3041e0c:	1809883a 	mov	r4,r3
 3041e10:	304be140 	call	304be14 <memcpy>
                        nReadCount += nCopyCount;
 3041e14:	e0bff817 	ldw	r2,-32(fp)
 3041e18:	e0fffc17 	ldw	r3,-16(fp)
 3041e1c:	1885883a 	add	r2,r3,r2
 3041e20:	e0bffc15 	stw	r2,-16(fp)
                        if (Pos > 0)
 3041e24:	e0bfff17 	ldw	r2,-4(fp)
 3041e28:	10001426 	beq	r2,zero,3041e7c <Fat_FileRead+0x3b8>
                            Pos = 0;
 3041e2c:	e03fff15 	stw	zero,-4(fp)
 3041e30:	00001206 	br	3041e7c <Fat_FileRead+0x3b8>
                    }else{
                        memcpy((void *)((char *)pBuffer+nReadCount), pVol->Secter_Data+Pos,nCopyCount);
 3041e34:	e0fff217 	ldw	r3,-56(fp)
 3041e38:	e0bffc17 	ldw	r2,-16(fp)
 3041e3c:	1889883a 	add	r4,r3,r2
 3041e40:	e0bff617 	ldw	r2,-40(fp)
 3041e44:	10c01004 	addi	r3,r2,64
 3041e48:	e0bfff17 	ldw	r2,-4(fp)
 3041e4c:	1885883a 	add	r2,r3,r2
 3041e50:	e0fff817 	ldw	r3,-32(fp)
 3041e54:	180d883a 	mov	r6,r3
 3041e58:	100b883a 	mov	r5,r2
 3041e5c:	304be140 	call	304be14 <memcpy>
                        nReadCount += nCopyCount;
 3041e60:	e0bff817 	ldw	r2,-32(fp)
 3041e64:	e0fffc17 	ldw	r3,-16(fp)
 3041e68:	1885883a 	add	r2,r3,r2
 3041e6c:	e0bffc15 	stw	r2,-16(fp)
                        if (Pos > 0)
 3041e70:	e0bfff17 	ldw	r2,-4(fp)
 3041e74:	10000126 	beq	r2,zero,3041e7c <Fat_FileRead+0x3b8>
                            Pos = 0;
 3041e78:	e03fff15 	stw	zero,-4(fp)
                    }         
                }    // if bSuccess
                    
            }
            PhysicalSecter++;
 3041e7c:	e0bffe17 	ldw	r2,-8(fp)
 3041e80:	10800044 	addi	r2,r2,1
 3041e84:	e0bffe15 	stw	r2,-8(fp)
        for(s=0;s<pVol->BPB_SecPerCluster && nReadCount < nBufferSize && bSuccess;s++){
 3041e88:	e0bffa17 	ldw	r2,-24(fp)
 3041e8c:	10800044 	addi	r2,r2,1
 3041e90:	e0bffa15 	stw	r2,-24(fp)
 3041e94:	e0bff617 	ldw	r2,-40(fp)
 3041e98:	10800717 	ldw	r2,28(r2)
 3041e9c:	e0fffa17 	ldw	r3,-24(fp)
 3041ea0:	1880052e 	bgeu	r3,r2,3041eb8 <Fat_FileRead+0x3f4>
 3041ea4:	e0bff117 	ldw	r2,-60(fp)
 3041ea8:	e0fffc17 	ldw	r3,-16(fp)
 3041eac:	1880022e 	bgeu	r3,r2,3041eb8 <Fat_FileRead+0x3f4>
 3041eb0:	e0bff9c3 	ldbu	r2,-25(fp)
 3041eb4:	103fa91e 	bne	r2,zero,3041d5c <Fat_FileRead+0x298>
        }    
            
        // next cluster
        if (nReadCount < nBufferSize){
 3041eb8:	e0bff117 	ldw	r2,-60(fp)
 3041ebc:	e0fffc17 	ldw	r3,-16(fp)
 3041ec0:	1880152e 	bgeu	r3,r2,3041f18 <Fat_FileRead+0x454>
            NextCluster = fatNextCluster(pVol, Cluster); 
 3041ec4:	e17ffd17 	ldw	r5,-12(fp)
 3041ec8:	e13ff617 	ldw	r4,-40(fp)
 3041ecc:	30424680 	call	3042468 <fatNextCluster>
 3041ed0:	e0bff415 	stw	r2,-48(fp)
            if (NextCluster == 0){
 3041ed4:	e0bff417 	ldw	r2,-48(fp)
 3041ed8:	1000051e 	bne	r2,zero,3041ef0 <Fat_FileRead+0x42c>
                bSuccess = FALSE;
 3041edc:	e03ff9c5 	stb	zero,-25(fp)
                FAT_DEBUG(("[FAT] Fat_FileRead, no next cluster\r\n"));
 3041ee0:	0100c1b4 	movhi	r4,774
 3041ee4:	213f2604 	addi	r4,r4,-872
 3041ee8:	30450c80 	call	30450c8 <myprintf>
 3041eec:	00000206 	br	3041ef8 <Fat_FileRead+0x434>
            }else{
                Cluster = NextCluster;
 3041ef0:	e0bff417 	ldw	r2,-48(fp)
 3041ef4:	e0bffd15 	stw	r2,-12(fp)
            }    
            //    
            f->ClusterSeq++; 
 3041ef8:	e0bff717 	ldw	r2,-36(fp)
 3041efc:	10800417 	ldw	r2,16(r2)
 3041f00:	10c00044 	addi	r3,r2,1
 3041f04:	e0bff717 	ldw	r2,-36(fp)
 3041f08:	10c00415 	stw	r3,16(r2)
            f->Cluster = Cluster;
 3041f0c:	e0bff717 	ldw	r2,-36(fp)
 3041f10:	e0fffd17 	ldw	r3,-12(fp)
 3041f14:	10c00315 	stw	r3,12(r2)
    while(nReadCount < nBufferSize && bSuccess){
 3041f18:	e0bff117 	ldw	r2,-60(fp)
 3041f1c:	e0fffc17 	ldw	r3,-16(fp)
 3041f20:	1880022e 	bgeu	r3,r2,3041f2c <Fat_FileRead+0x468>
 3041f24:	e0bff9c3 	ldbu	r2,-25(fp)
 3041f28:	103f691e 	bne	r2,zero,3041cd0 <Fat_FileRead+0x20c>
        }                    
    }
    
    if (bSuccess){
 3041f2c:	e0bff9c3 	ldbu	r2,-25(fp)
 3041f30:	10000626 	beq	r2,zero,3041f4c <Fat_FileRead+0x488>
        f->SeekPos += nBufferSize;
 3041f34:	e0bff717 	ldw	r2,-36(fp)
 3041f38:	10c00217 	ldw	r3,8(r2)
 3041f3c:	e0bff117 	ldw	r2,-60(fp)
 3041f40:	1887883a 	add	r3,r3,r2
 3041f44:	e0bff717 	ldw	r2,-36(fp)
 3041f48:	10c00215 	stw	r3,8(r2)
    }        
        
    
    return bSuccess;
 3041f4c:	e0bff9c3 	ldbu	r2,-25(fp)
}
 3041f50:	e037883a 	mov	sp,fp
 3041f54:	dfc00117 	ldw	ra,4(sp)
 3041f58:	df000017 	ldw	fp,0(sp)
 3041f5c:	dec00204 	addi	sp,sp,8
 3041f60:	f800283a 	ret

03041f64 <Fat_FileSeek>:


bool Fat_FileSeek(FAT_FILE_HANDLE hFileHandle, const FAT_SEEK_POS SeekPos, const int nOffset){
 3041f64:	defff904 	addi	sp,sp,-28
 3041f68:	df000615 	stw	fp,24(sp)
 3041f6c:	df000604 	addi	fp,sp,24
 3041f70:	e13ffc15 	stw	r4,-16(fp)
 3041f74:	e17ffb15 	stw	r5,-20(fp)
 3041f78:	e1bffa15 	stw	r6,-24(fp)
    FAT_FILE_INFO *f = (FAT_FILE_INFO *)hFileHandle;
 3041f7c:	e0bffc17 	ldw	r2,-16(fp)
 3041f80:	e0bffe15 	stw	r2,-8(fp)
    VOLUME_INFO *pVol;
    bool bSuccess= TRUE;
 3041f84:	00800044 	movi	r2,1
 3041f88:	e0bfffc5 	stb	r2,-1(fp)

    if (!f || !f->Fat)
 3041f8c:	e0bffe17 	ldw	r2,-8(fp)
 3041f90:	10000326 	beq	r2,zero,3041fa0 <Fat_FileSeek+0x3c>
 3041f94:	e0bffe17 	ldw	r2,-8(fp)
 3041f98:	10804c17 	ldw	r2,304(r2)
 3041f9c:	1000021e 	bne	r2,zero,3041fa8 <Fat_FileSeek+0x44>
        return FALSE;
 3041fa0:	0005883a 	mov	r2,zero
 3041fa4:	00003206 	br	3042070 <Fat_FileSeek+0x10c>
    pVol = (VOLUME_INFO *)f->Fat;        
 3041fa8:	e0bffe17 	ldw	r2,-8(fp)
 3041fac:	10804c17 	ldw	r2,304(r2)
 3041fb0:	e0bffd15 	stw	r2,-12(fp)
    
    if (!f->IsOpened)
 3041fb4:	e0bffe17 	ldw	r2,-8(fp)
 3041fb8:	10800003 	ldbu	r2,0(r2)
 3041fbc:	1080005c 	xori	r2,r2,1
 3041fc0:	10803fcc 	andi	r2,r2,255
 3041fc4:	10000226 	beq	r2,zero,3041fd0 <Fat_FileSeek+0x6c>
        return FALSE;
 3041fc8:	0005883a 	mov	r2,zero
 3041fcc:	00002806 	br	3042070 <Fat_FileSeek+0x10c>
        
    switch(SeekPos){
 3041fd0:	e0bffb17 	ldw	r2,-20(fp)
 3041fd4:	108000a0 	cmpeqi	r2,r2,2
 3041fd8:	1000141e 	bne	r2,zero,304202c <Fat_FileSeek+0xc8>
 3041fdc:	e0bffb17 	ldw	r2,-20(fp)
 3041fe0:	108000e8 	cmpgeui	r2,r2,3
 3041fe4:	1000181e 	bne	r2,zero,3042048 <Fat_FileSeek+0xe4>
 3041fe8:	e0bffb17 	ldw	r2,-20(fp)
 3041fec:	10000426 	beq	r2,zero,3042000 <Fat_FileSeek+0x9c>
 3041ff0:	e0bffb17 	ldw	r2,-20(fp)
 3041ff4:	10800060 	cmpeqi	r2,r2,1
 3041ff8:	1000051e 	bne	r2,zero,3042010 <Fat_FileSeek+0xac>
 3041ffc:	00001206 	br	3042048 <Fat_FileSeek+0xe4>
        case FILE_SEEK_BEGIN: 
            f->SeekPos = nOffset; 
 3042000:	e0fffa17 	ldw	r3,-24(fp)
 3042004:	e0bffe17 	ldw	r2,-8(fp)
 3042008:	10c00215 	stw	r3,8(r2)
            break;
 304200c:	00001006 	br	3042050 <Fat_FileSeek+0xec>
        case FILE_SEEK_CURRENT: 
            f->SeekPos += nOffset; 
 3042010:	e0bffe17 	ldw	r2,-8(fp)
 3042014:	10c00217 	ldw	r3,8(r2)
 3042018:	e0bffa17 	ldw	r2,-24(fp)
 304201c:	1887883a 	add	r3,r3,r2
 3042020:	e0bffe17 	ldw	r2,-8(fp)
 3042024:	10c00215 	stw	r3,8(r2)
            break;
 3042028:	00000906 	br	3042050 <Fat_FileSeek+0xec>
        case FILE_SEEK_END: 
            f->SeekPos = f->Directory.FileSize+nOffset; 
 304202c:	e0bffe17 	ldw	r2,-8(fp)
 3042030:	10c04b17 	ldw	r3,300(r2)
 3042034:	e0bffa17 	ldw	r2,-24(fp)
 3042038:	1887883a 	add	r3,r3,r2
 304203c:	e0bffe17 	ldw	r2,-8(fp)
 3042040:	10c00215 	stw	r3,8(r2)
            break;
 3042044:	00000206 	br	3042050 <Fat_FileSeek+0xec>
        default:
            bSuccess = FALSE;
 3042048:	e03fffc5 	stb	zero,-1(fp)
            break;    
 304204c:	0001883a 	nop
              
    }
    f->Cluster = f->Directory.FirstLogicalCluster;
 3042050:	e0bffe17 	ldw	r2,-8(fp)
 3042054:	10804a8b 	ldhu	r2,298(r2)
 3042058:	10ffffcc 	andi	r3,r2,65535
 304205c:	e0bffe17 	ldw	r2,-8(fp)
 3042060:	10c00315 	stw	r3,12(r2)
    f->ClusterSeq = 0;
 3042064:	e0bffe17 	ldw	r2,-8(fp)
 3042068:	10000415 	stw	zero,16(r2)
    
    return bSuccess;
 304206c:	e0bfffc3 	ldbu	r2,-1(fp)
    
}
 3042070:	e037883a 	mov	sp,fp
 3042074:	df000017 	ldw	fp,0(sp)
 3042078:	dec00104 	addi	sp,sp,4
 304207c:	f800283a 	ret

03042080 <Fat_FileClose>:

void Fat_FileClose(FAT_FILE_HANDLE hFileHandle){
 3042080:	defffc04 	addi	sp,sp,-16
 3042084:	dfc00315 	stw	ra,12(sp)
 3042088:	df000215 	stw	fp,8(sp)
 304208c:	df000204 	addi	fp,sp,8
 3042090:	e13ffe15 	stw	r4,-8(fp)
    FAT_FILE_INFO *f = (FAT_FILE_INFO *)hFileHandle;
 3042094:	e0bffe17 	ldw	r2,-8(fp)
 3042098:	e0bfff15 	stw	r2,-4(fp)
    if (!f)
 304209c:	e0bfff17 	ldw	r2,-4(fp)
 30420a0:	10000326 	beq	r2,zero,30420b0 <Fat_FileClose+0x30>
        return;
        
    free(f);        
 30420a4:	e13fff17 	ldw	r4,-4(fp)
 30420a8:	304b6240 	call	304b624 <free>
 30420ac:	00000106 	br	30420b4 <Fat_FileClose+0x34>
        return;
 30420b0:	0001883a 	nop
}
 30420b4:	e037883a 	mov	sp,fp
 30420b8:	dfc00117 	ldw	ra,4(sp)
 30420bc:	df000017 	ldw	fp,0(sp)
 30420c0:	dec00204 	addi	sp,sp,8
 30420c4:	f800283a 	ret

030420c8 <Fat_SpeedTest>:



float Fat_SpeedTest(FAT_HANDLE hFat, alt_u32 TestDurInMs){
 30420c8:	deff7104 	addi	sp,sp,-572
 30420cc:	dfc08e15 	stw	ra,568(sp)
 30420d0:	df008d15 	stw	fp,564(sp)
 30420d4:	dc808c15 	stw	r18,560(sp)
 30420d8:	dc408b15 	stw	r17,556(sp)
 30420dc:	dc008a15 	stw	r16,552(sp)
 30420e0:	df008d04 	addi	fp,sp,564
 30420e4:	e13f7415 	stw	r4,-560(fp)
 30420e8:	e17f7315 	stw	r5,-564(fp)
    bool bSuccess = TRUE;
 30420ec:	00800044 	movi	r2,1
 30420f0:	e0bffcc5 	stb	r2,-13(fp)
    alt_u32 time_start, time_finish, time_elapsed, TotalReadBytes=0;
 30420f4:	e03ffb15 	stw	zero,-20(fp)
    int nSecter = 0;
 30420f8:	e03ffa15 	stw	zero,-24(fp)
    float fMegaBytePerSec = 0;
 30420fc:	e03ff915 	stw	zero,-28(fp)
    char szBlock[512];
    VOLUME_INFO *pVol = (VOLUME_INFO *)hFat;
 3042100:	e0bf7417 	ldw	r2,-560(fp)
 3042104:	e0bff815 	stw	r2,-32(fp)
    if (!pVol)
 3042108:	e0bff817 	ldw	r2,-32(fp)
 304210c:	1000021e 	bne	r2,zero,3042118 <Fat_SpeedTest+0x50>
        return 0;
 3042110:	0005883a 	mov	r2,zero
 3042114:	00006b06 	br	30422c4 <Fat_SpeedTest+0x1fc>
 * alt_nticks() returns the elapsed number of system clock ticks since reset.
 */

static ALT_INLINE alt_u64 ALT_ALWAYS_INLINE alt_nticks (void)
{
  return _alt_nticks;
 3042118:	d0a78417 	ldw	r2,-25072(gp)
 304211c:	d0e78517 	ldw	r3,-25068(gp)
    time_start = alt_nticks();
 3042120:	e0bff715 	stw	r2,-36(fp)
 3042124:	d0a78417 	ldw	r2,-25072(gp)
 3042128:	d0e78517 	ldw	r3,-25068(gp)
    time_finish = alt_nticks() + TestDurInMs * 1000 / alt_ticks_per_second();
 304212c:	1025883a 	mov	r18,r2
 3042130:	e0bf7317 	ldw	r2,-564(fp)
 3042134:	1080fa24 	muli	r2,r2,1000
  return _alt_tick_rate;
 3042138:	d0e78317 	ldw	r3,-25076(gp)
 304213c:	180b883a 	mov	r5,r3
 3042140:	1009883a 	mov	r4,r2
 3042144:	3048a240 	call	3048a24 <__udivsi3>
 3042148:	9085883a 	add	r2,r18,r2
 304214c:	e0bff615 	stw	r2,-40(fp)
    while(alt_nticks() < time_finish && bSuccess){
 3042150:	00001106 	br	3042198 <Fat_SpeedTest+0xd0>
        bSuccess = pVol->ReadBlock512(pVol->DiskHandle, nSecter, szBlock);
 3042154:	e0bff817 	ldw	r2,-32(fp)
 3042158:	10800117 	ldw	r2,4(r2)
 304215c:	e0fff817 	ldw	r3,-32(fp)
 3042160:	18c00017 	ldw	r3,0(r3)
 3042164:	e13ffa17 	ldw	r4,-24(fp)
 3042168:	e17f7504 	addi	r5,fp,-556
 304216c:	280d883a 	mov	r6,r5
 3042170:	200b883a 	mov	r5,r4
 3042174:	1809883a 	mov	r4,r3
 3042178:	103ee83a 	callr	r2
 304217c:	e0bffcc5 	stb	r2,-13(fp)
        nSecter++;
 3042180:	e0bffa17 	ldw	r2,-24(fp)
 3042184:	10800044 	addi	r2,r2,1
 3042188:	e0bffa15 	stw	r2,-24(fp)
        TotalReadBytes += sizeof(szBlock);
 304218c:	e0bffb17 	ldw	r2,-20(fp)
 3042190:	10808004 	addi	r2,r2,512
 3042194:	e0bffb15 	stw	r2,-20(fp)
  return _alt_nticks;
 3042198:	d0a78417 	ldw	r2,-25072(gp)
 304219c:	d0e78517 	ldw	r3,-25068(gp)
    while(alt_nticks() < time_finish && bSuccess){
 30421a0:	e13ff617 	ldw	r4,-40(fp)
 30421a4:	2021883a 	mov	r16,r4
 30421a8:	0023883a 	mov	r17,zero
 30421ac:	1c400236 	bltu	r3,r17,30421b8 <Fat_SpeedTest+0xf0>
 30421b0:	88c0031e 	bne	r17,r3,30421c0 <Fat_SpeedTest+0xf8>
 30421b4:	1400022e 	bgeu	r2,r16,30421c0 <Fat_SpeedTest+0xf8>
 30421b8:	e0bffcc3 	ldbu	r2,-13(fp)
 30421bc:	103fe51e 	bne	r2,zero,3042154 <Fat_SpeedTest+0x8c>
        
    }        
    if (bSuccess){
 30421c0:	e0bffcc3 	ldbu	r2,-13(fp)
 30421c4:	10003526 	beq	r2,zero,304229c <Fat_SpeedTest+0x1d4>
 30421c8:	d0a78417 	ldw	r2,-25072(gp)
 30421cc:	d0e78517 	ldw	r3,-25068(gp)
        time_elapsed = alt_nticks() - time_start;
 30421d0:	1007883a 	mov	r3,r2
 30421d4:	e0bff717 	ldw	r2,-36(fp)
 30421d8:	1885c83a 	sub	r2,r3,r2
 30421dc:	e0bff515 	stw	r2,-44(fp)
        fMegaBytePerSec = (float)TotalReadBytes * (float)alt_ticks_per_second() / (float)time_elapsed / 1024.0 / 1024.0;
 30421e0:	e13ffb17 	ldw	r4,-20(fp)
 30421e4:	30492900 	call	3049290 <__floatunsisf>
 30421e8:	1021883a 	mov	r16,r2
  return _alt_tick_rate;
 30421ec:	d0a78317 	ldw	r2,-25076(gp)
 30421f0:	1009883a 	mov	r4,r2
 30421f4:	30492900 	call	3049290 <__floatunsisf>
 30421f8:	1007883a 	mov	r3,r2
 30421fc:	180b883a 	mov	r5,r3
 3042200:	8009883a 	mov	r4,r16
 3042204:	3048edc0 	call	3048edc <__mulsf3>
 3042208:	1007883a 	mov	r3,r2
 304220c:	1821883a 	mov	r16,r3
 3042210:	e13ff517 	ldw	r4,-44(fp)
 3042214:	30492900 	call	3049290 <__floatunsisf>
 3042218:	1007883a 	mov	r3,r2
 304221c:	180b883a 	mov	r5,r3
 3042220:	8009883a 	mov	r4,r16
 3042224:	3048ae40 	call	3048ae4 <__divsf3>
 3042228:	1007883a 	mov	r3,r2
 304222c:	1805883a 	mov	r2,r3
 3042230:	1009883a 	mov	r4,r2
 3042234:	3049bdc0 	call	3049bdc <__extendsfdf2>
 3042238:	1011883a 	mov	r8,r2
 304223c:	1813883a 	mov	r9,r3
 3042240:	000d883a 	mov	r6,zero
 3042244:	01d02434 	movhi	r7,16528
 3042248:	4009883a 	mov	r4,r8
 304224c:	480b883a 	mov	r5,r9
 3042250:	304938c0 	call	304938c <__divdf3>
 3042254:	1009883a 	mov	r4,r2
 3042258:	180b883a 	mov	r5,r3
 304225c:	2005883a 	mov	r2,r4
 3042260:	2807883a 	mov	r3,r5
 3042264:	000d883a 	mov	r6,zero
 3042268:	01d02434 	movhi	r7,16528
 304226c:	1009883a 	mov	r4,r2
 3042270:	180b883a 	mov	r5,r3
 3042274:	304938c0 	call	304938c <__divdf3>
 3042278:	1009883a 	mov	r4,r2
 304227c:	180b883a 	mov	r5,r3
 3042280:	2005883a 	mov	r2,r4
 3042284:	2807883a 	mov	r3,r5
 3042288:	1009883a 	mov	r4,r2
 304228c:	180b883a 	mov	r5,r3
 3042290:	3049cd80 	call	3049cd8 <__truncdfsf2>
 3042294:	1007883a 	mov	r3,r2
 3042298:	e0fff915 	stw	r3,-28(fp)
    } 
    
    printf("\n--------speed:%f---------\n",fMegaBytePerSec);       
 304229c:	e13ff917 	ldw	r4,-28(fp)
 30422a0:	3049bdc0 	call	3049bdc <__extendsfdf2>
 30422a4:	100d883a 	mov	r6,r2
 30422a8:	180f883a 	mov	r7,r3
 30422ac:	300b883a 	mov	r5,r6
 30422b0:	380d883a 	mov	r6,r7
 30422b4:	0100c1b4 	movhi	r4,774
 30422b8:	213f3004 	addi	r4,r4,-832
 30422bc:	304c0980 	call	304c098 <printf>
    return fMegaBytePerSec;
 30422c0:	e0bff917 	ldw	r2,-28(fp)
    
   
}
 30422c4:	1007883a 	mov	r3,r2
 30422c8:	1805883a 	mov	r2,r3
 30422cc:	e6fffd04 	addi	sp,fp,-12
 30422d0:	dfc00417 	ldw	ra,16(sp)
 30422d4:	df000317 	ldw	fp,12(sp)
 30422d8:	dc800217 	ldw	r18,8(sp)
 30422dc:	dc400117 	ldw	r17,4(sp)
 30422e0:	dc000017 	ldw	r16,0(sp)
 30422e4:	dec00504 	addi	sp,sp,20
 30422e8:	f800283a 	ret

030422ec <fat16ClusterType>:
//extern VOLUME_INFO gVolumeInfo;




CLUSTER_TYPE fat16ClusterType(alt_u32 Fat){
 30422ec:	defffd04 	addi	sp,sp,-12
 30422f0:	df000215 	stw	fp,8(sp)
 30422f4:	df000204 	addi	fp,sp,8
 30422f8:	e13ffe15 	stw	r4,-8(fp)
    CLUSTER_TYPE Type;
    Fat = Fat & 0xFFFF; // 16 bits
 30422fc:	e0bffe17 	ldw	r2,-8(fp)
 3042300:	10bfffcc 	andi	r2,r2,65535
 3042304:	e0bffe15 	stw	r2,-8(fp)
    
    if (Fat > 0 && Fat < 0xFFF0)
 3042308:	e0bffe17 	ldw	r2,-8(fp)
 304230c:	10000626 	beq	r2,zero,3042328 <fat16ClusterType+0x3c>
 3042310:	e0bffe17 	ldw	r2,-8(fp)
 3042314:	10bffc28 	cmpgeui	r2,r2,65520
 3042318:	1000031e 	bne	r2,zero,3042328 <fat16ClusterType+0x3c>
        Type = CLUSTER_NEXT_INFILE;
 304231c:	00800104 	movi	r2,4
 3042320:	e0bfff15 	stw	r2,-4(fp)
 3042324:	00001806 	br	3042388 <fat16ClusterType+0x9c>
    else if (Fat >= 0xFFF8) // && Fat <= (unsigned short)0xFFFF)
 3042328:	e0bffe17 	ldw	r2,-8(fp)
 304232c:	10bffe30 	cmpltui	r2,r2,65528
 3042330:	1000031e 	bne	r2,zero,3042340 <fat16ClusterType+0x54>
        Type = CLUSTER_LAST_INFILE;
 3042334:	008000c4 	movi	r2,3
 3042338:	e0bfff15 	stw	r2,-4(fp)
 304233c:	00001206 	br	3042388 <fat16ClusterType+0x9c>
    else if (Fat == (alt_u16)0x00)
 3042340:	e0bffe17 	ldw	r2,-8(fp)
 3042344:	1000021e 	bne	r2,zero,3042350 <fat16ClusterType+0x64>
        Type = CLUSTER_UNUSED;
 3042348:	e03fff15 	stw	zero,-4(fp)
 304234c:	00000e06 	br	3042388 <fat16ClusterType+0x9c>
    else if (Fat >= 0xFFF0 && Fat <= 0xFFF6)
 3042350:	e0bffe17 	ldw	r2,-8(fp)
 3042354:	10bffc30 	cmpltui	r2,r2,65520
 3042358:	1000061e 	bne	r2,zero,3042374 <fat16ClusterType+0x88>
 304235c:	e0bffe17 	ldw	r2,-8(fp)
 3042360:	10bffde8 	cmpgeui	r2,r2,65527
 3042364:	1000031e 	bne	r2,zero,3042374 <fat16ClusterType+0x88>
        Type = CLUSTER_RESERVED;
 3042368:	00800044 	movi	r2,1
 304236c:	e0bfff15 	stw	r2,-4(fp)
 3042370:	00000506 	br	3042388 <fat16ClusterType+0x9c>
    else if (Fat == 0xFFF7)
 3042374:	e0fffe17 	ldw	r3,-8(fp)
 3042378:	00bffdd4 	movui	r2,65527
 304237c:	1880021e 	bne	r3,r2,3042388 <fat16ClusterType+0x9c>
        Type = CLUSTER_BAD;
 3042380:	00800084 	movi	r2,2
 3042384:	e0bfff15 	stw	r2,-4(fp)
        
    return Type;        
 3042388:	e0bfff17 	ldw	r2,-4(fp)
         
}
 304238c:	e037883a 	mov	sp,fp
 3042390:	df000017 	ldw	fp,0(sp)
 3042394:	dec00104 	addi	sp,sp,4
 3042398:	f800283a 	ret

0304239c <fat32ClusterType>:

CLUSTER_TYPE fat32ClusterType(alt_u32 Fat){
 304239c:	defffd04 	addi	sp,sp,-12
 30423a0:	df000215 	stw	fp,8(sp)
 30423a4:	df000204 	addi	fp,sp,8
 30423a8:	e13ffe15 	stw	r4,-8(fp)
    CLUSTER_TYPE Type;
    Fat = Fat & 0xFFFFFFF; // 28 bits
 30423ac:	e0fffe17 	ldw	r3,-8(fp)
 30423b0:	00840034 	movhi	r2,4096
 30423b4:	10bfffc4 	addi	r2,r2,-1
 30423b8:	1884703a 	and	r2,r3,r2
 30423bc:	e0bffe15 	stw	r2,-8(fp)
    
    if (Fat > 0 && Fat < 0xFFFFFF0)
 30423c0:	e0bffe17 	ldw	r2,-8(fp)
 30423c4:	10000726 	beq	r2,zero,30423e4 <fat32ClusterType+0x48>
 30423c8:	e0fffe17 	ldw	r3,-8(fp)
 30423cc:	00840034 	movhi	r2,4096
 30423d0:	10bffbc4 	addi	r2,r2,-17
 30423d4:	10c00336 	bltu	r2,r3,30423e4 <fat32ClusterType+0x48>
        Type = CLUSTER_NEXT_INFILE;
 30423d8:	00800104 	movi	r2,4
 30423dc:	e0bfff15 	stw	r2,-4(fp)
 30423e0:	00001c06 	br	3042454 <fat32ClusterType+0xb8>
    else if (Fat >= 0xFFFFFF8) // && Fat <= (unsigned short)0xFFFF)
 30423e4:	e0fffe17 	ldw	r3,-8(fp)
 30423e8:	00840034 	movhi	r2,4096
 30423ec:	10bffdc4 	addi	r2,r2,-9
 30423f0:	10c0032e 	bgeu	r2,r3,3042400 <fat32ClusterType+0x64>
        Type = CLUSTER_LAST_INFILE;
 30423f4:	008000c4 	movi	r2,3
 30423f8:	e0bfff15 	stw	r2,-4(fp)
 30423fc:	00001506 	br	3042454 <fat32ClusterType+0xb8>
    else if (Fat == (alt_u32)0x00)
 3042400:	e0bffe17 	ldw	r2,-8(fp)
 3042404:	1000021e 	bne	r2,zero,3042410 <fat32ClusterType+0x74>
        Type = CLUSTER_UNUSED;
 3042408:	e03fff15 	stw	zero,-4(fp)
 304240c:	00001106 	br	3042454 <fat32ClusterType+0xb8>
    else if (Fat >= 0xFFFFFF0 && Fat <= 0xFFFFFF6)
 3042410:	e0fffe17 	ldw	r3,-8(fp)
 3042414:	00840034 	movhi	r2,4096
 3042418:	10bffbc4 	addi	r2,r2,-17
 304241c:	10c0072e 	bgeu	r2,r3,304243c <fat32ClusterType+0xa0>
 3042420:	e0fffe17 	ldw	r3,-8(fp)
 3042424:	00840034 	movhi	r2,4096
 3042428:	10bffd84 	addi	r2,r2,-10
 304242c:	10c00336 	bltu	r2,r3,304243c <fat32ClusterType+0xa0>
        Type = CLUSTER_RESERVED;
 3042430:	00800044 	movi	r2,1
 3042434:	e0bfff15 	stw	r2,-4(fp)
 3042438:	00000606 	br	3042454 <fat32ClusterType+0xb8>
    else if (Fat == 0xFFFFFF7)
 304243c:	e0fffe17 	ldw	r3,-8(fp)
 3042440:	00840034 	movhi	r2,4096
 3042444:	10bffdc4 	addi	r2,r2,-9
 3042448:	1880021e 	bne	r3,r2,3042454 <fat32ClusterType+0xb8>
        Type = CLUSTER_BAD;
 304244c:	00800084 	movi	r2,2
 3042450:	e0bfff15 	stw	r2,-4(fp)
        
    return Type;        
 3042454:	e0bfff17 	ldw	r2,-4(fp)
         
}
 3042458:	e037883a 	mov	sp,fp
 304245c:	df000017 	ldw	fp,0(sp)
 3042460:	dec00104 	addi	sp,sp,4
 3042464:	f800283a 	ret

03042468 <fatNextCluster>:

alt_u32 fatNextCluster(VOLUME_INFO *pVol, alt_u32 ThisCluster){
 3042468:	defff604 	addi	sp,sp,-40
 304246c:	dfc00915 	stw	ra,36(sp)
 3042470:	df000815 	stw	fp,32(sp)
 3042474:	dc000715 	stw	r16,28(sp)
 3042478:	df000804 	addi	fp,sp,32
 304247c:	e13ff915 	stw	r4,-28(fp)
 3042480:	e17ff815 	stw	r5,-32(fp)
    if (ClusterType != CLUSTER_NEXT_INFILE && ClusterType != CLUSTER_LAST_INFILE){
        NextCluster = 0;  // invalid cluster
    }        
#else
    alt_32 nFatEntryPerSecter;
    const alt_32 nFatEntrySize = (pVol->Partition_Type == PARTITION_FAT32)?4:2; // 2 byte for FAT16
 3042484:	e0bff917 	ldw	r2,-28(fp)
 3042488:	10800317 	ldw	r2,12(r2)
 304248c:	108002d8 	cmpnei	r2,r2,11
 3042490:	1000021e 	bne	r2,zero,304249c <fatNextCluster+0x34>
 3042494:	00800104 	movi	r2,4
 3042498:	00000106 	br	30424a0 <fatNextCluster+0x38>
 304249c:	00800084 	movi	r2,2
 30424a0:	e0bffc15 	stw	r2,-16(fp)
    alt_u32 Secter;
   // char szBlock[512];
    nFatEntryPerSecter = pVol->BPB_BytsPerSec/nFatEntrySize; 
 30424a4:	e0bff917 	ldw	r2,-28(fp)
 30424a8:	10800617 	ldw	r2,24(r2)
 30424ac:	e0fffc17 	ldw	r3,-16(fp)
 30424b0:	180b883a 	mov	r5,r3
 30424b4:	1009883a 	mov	r4,r2
 30424b8:	3048a240 	call	3048a24 <__udivsi3>
 30424bc:	e0bffb15 	stw	r2,-20(fp)
    Secter = pVol->FatEntrySecter + (ThisCluster*nFatEntrySize)/pVol->BPB_BytsPerSec;
 30424c0:	e0bff917 	ldw	r2,-28(fp)
 30424c4:	14000d17 	ldw	r16,52(r2)
 30424c8:	e0fffc17 	ldw	r3,-16(fp)
 30424cc:	e0bff817 	ldw	r2,-32(fp)
 30424d0:	1887383a 	mul	r3,r3,r2
 30424d4:	e0bff917 	ldw	r2,-28(fp)
 30424d8:	10800617 	ldw	r2,24(r2)
 30424dc:	100b883a 	mov	r5,r2
 30424e0:	1809883a 	mov	r4,r3
 30424e4:	3048a240 	call	3048a24 <__udivsi3>
 30424e8:	8085883a 	add	r2,r16,r2
 30424ec:	e0bffa15 	stw	r2,-24(fp)
    //if (pVol->ReadBlock512(pVol->DiskHandle, Secter,szBlock)){
    if (fatReadSecter(pVol, Secter)){
 30424f0:	e17ffa17 	ldw	r5,-24(fp)
 30424f4:	e13ff917 	ldw	r4,-28(fp)
 30424f8:	30433400 	call	3043340 <fatReadSecter>
 30424fc:	10803fcc 	andi	r2,r2,255
 3042500:	10002d26 	beq	r2,zero,30425b8 <fatNextCluster+0x150>
        if (pVol->Partition_Type == PARTITION_FAT32){
 3042504:	e0bff917 	ldw	r2,-28(fp)
 3042508:	10800317 	ldw	r2,12(r2)
 304250c:	108002d8 	cmpnei	r2,r2,11
 3042510:	1000111e 	bne	r2,zero,3042558 <fatNextCluster+0xf0>
            NextCluster = *(alt_u32*)(pVol->Secter_Data + (ThisCluster%nFatEntryPerSecter)*nFatEntrySize); 
 3042514:	e0bff917 	ldw	r2,-28(fp)
 3042518:	14001004 	addi	r16,r2,64
 304251c:	e0fffb17 	ldw	r3,-20(fp)
 3042520:	e0bff817 	ldw	r2,-32(fp)
 3042524:	180b883a 	mov	r5,r3
 3042528:	1009883a 	mov	r4,r2
 304252c:	3048a880 	call	3048a88 <__umodsi3>
 3042530:	1007883a 	mov	r3,r2
 3042534:	e0bffc17 	ldw	r2,-16(fp)
 3042538:	1885383a 	mul	r2,r3,r2
 304253c:	8085883a 	add	r2,r16,r2
 3042540:	10800017 	ldw	r2,0(r2)
 3042544:	e0bffd15 	stw	r2,-12(fp)
            ClusterType = fat32ClusterType(NextCluster);
 3042548:	e13ffd17 	ldw	r4,-12(fp)
 304254c:	304239c0 	call	304239c <fat32ClusterType>
 3042550:	e0bffe15 	stw	r2,-8(fp)
 3042554:	00001106 	br	304259c <fatNextCluster+0x134>
        }else{
            NextCluster = *(alt_u16 *)(pVol->Secter_Data + (ThisCluster%nFatEntryPerSecter)*nFatEntrySize); 
 3042558:	e0bff917 	ldw	r2,-28(fp)
 304255c:	14001004 	addi	r16,r2,64
 3042560:	e0fffb17 	ldw	r3,-20(fp)
 3042564:	e0bff817 	ldw	r2,-32(fp)
 3042568:	180b883a 	mov	r5,r3
 304256c:	1009883a 	mov	r4,r2
 3042570:	3048a880 	call	3048a88 <__umodsi3>
 3042574:	1007883a 	mov	r3,r2
 3042578:	e0bffc17 	ldw	r2,-16(fp)
 304257c:	1885383a 	mul	r2,r3,r2
 3042580:	8085883a 	add	r2,r16,r2
 3042584:	1080000b 	ldhu	r2,0(r2)
 3042588:	10bfffcc 	andi	r2,r2,65535
 304258c:	e0bffd15 	stw	r2,-12(fp)
            ClusterType = fat16ClusterType(NextCluster);
 3042590:	e13ffd17 	ldw	r4,-12(fp)
 3042594:	30422ec0 	call	30422ec <fat16ClusterType>
 3042598:	e0bffe15 	stw	r2,-8(fp)
        }    
        if (ClusterType != CLUSTER_NEXT_INFILE && ClusterType != CLUSTER_LAST_INFILE)
 304259c:	e0bffe17 	ldw	r2,-8(fp)
 30425a0:	10800120 	cmpeqi	r2,r2,4
 30425a4:	1000041e 	bne	r2,zero,30425b8 <fatNextCluster+0x150>
 30425a8:	e0bffe17 	ldw	r2,-8(fp)
 30425ac:	108000e0 	cmpeqi	r2,r2,3
 30425b0:	1000011e 	bne	r2,zero,30425b8 <fatNextCluster+0x150>
            NextCluster = 0;  // invalid cluster
 30425b4:	e03ffd15 	stw	zero,-12(fp)
    }                
    
    
    return NextCluster;
 30425b8:	e0bffd17 	ldw	r2,-12(fp)

#endif    
    
    return NextCluster;
}
 30425bc:	e6ffff04 	addi	sp,fp,-4
 30425c0:	dfc00217 	ldw	ra,8(sp)
 30425c4:	df000117 	ldw	fp,4(sp)
 30425c8:	dc000017 	ldw	r16,0(sp)
 30425cc:	dec00304 	addi	sp,sp,12
 30425d0:	f800283a 	ret

030425d4 <fatFindUnusedCluster>:

alt_u32 fatFindUnusedCluster(VOLUME_INFO *pVol){
 30425d4:	defff304 	addi	sp,sp,-52
 30425d8:	dfc00c15 	stw	ra,48(sp)
 30425dc:	df000b15 	stw	fp,44(sp)
 30425e0:	dc000a15 	stw	r16,40(sp)
 30425e4:	df000b04 	addi	fp,sp,44
 30425e8:	e13ff515 	stw	r4,-44(fp)
    CLUSTER_TYPE ClusterType;
    alt_u32 UnusedCluster=-1, ThisCluster = 2, ClusterEntryValue;
 30425ec:	00bfffc4 	movi	r2,-1
 30425f0:	e0bffd15 	stw	r2,-12(fp)
 30425f4:	00800084 	movi	r2,2
 30425f8:	e0bffc15 	stw	r2,-16(fp)
    void *pFatEntry;

    const alt_32 nFatEntrySize = (pVol->Partition_Type == PARTITION_FAT32)?4:2; // 2 byte for FAT16
 30425fc:	e0bff517 	ldw	r2,-44(fp)
 3042600:	10800317 	ldw	r2,12(r2)
 3042604:	108002d8 	cmpnei	r2,r2,11
 3042608:	1000021e 	bne	r2,zero,3042614 <fatFindUnusedCluster+0x40>
 304260c:	00800104 	movi	r2,4
 3042610:	00000106 	br	3042618 <fatFindUnusedCluster+0x44>
 3042614:	00800084 	movi	r2,2
 3042618:	e0bffa15 	stw	r2,-24(fp)
    const alt_32 nFatEntryPerSecter = pVol->BPB_BytsPerSec/nFatEntrySize;
 304261c:	e0bff517 	ldw	r2,-44(fp)
 3042620:	10800617 	ldw	r2,24(r2)
 3042624:	e0fffa17 	ldw	r3,-24(fp)
 3042628:	180b883a 	mov	r5,r3
 304262c:	1009883a 	mov	r4,r2
 3042630:	3048a240 	call	3048a24 <__udivsi3>
 3042634:	e0bff915 	stw	r2,-28(fp)
    alt_u32 Secter;
    bool bDone = FALSE;
 3042638:	e03ffbc5 	stb	zero,-17(fp)

    while(!bDone){     
 304263c:	00003b06 	br	304272c <fatFindUnusedCluster+0x158>
        Secter = pVol->FatEntrySecter + (ThisCluster*nFatEntrySize)/pVol->BPB_BytsPerSec;
 3042640:	e0bff517 	ldw	r2,-44(fp)
 3042644:	14000d17 	ldw	r16,52(r2)
 3042648:	e0fffa17 	ldw	r3,-24(fp)
 304264c:	e0bffc17 	ldw	r2,-16(fp)
 3042650:	1887383a 	mul	r3,r3,r2
 3042654:	e0bff517 	ldw	r2,-44(fp)
 3042658:	10800617 	ldw	r2,24(r2)
 304265c:	100b883a 	mov	r5,r2
 3042660:	1809883a 	mov	r4,r3
 3042664:	3048a240 	call	3048a24 <__udivsi3>
 3042668:	8085883a 	add	r2,r16,r2
 304266c:	e0bff815 	stw	r2,-32(fp)
        if (fatReadSecter(pVol, Secter)){
 3042670:	e17ff817 	ldw	r5,-32(fp)
 3042674:	e13ff517 	ldw	r4,-44(fp)
 3042678:	30433400 	call	3043340 <fatReadSecter>
 304267c:	10803fcc 	andi	r2,r2,255
 3042680:	10002526 	beq	r2,zero,3042718 <fatFindUnusedCluster+0x144>
            pFatEntry = (pVol->Secter_Data + (ThisCluster%nFatEntryPerSecter)*nFatEntrySize);
 3042684:	e0bff517 	ldw	r2,-44(fp)
 3042688:	14001004 	addi	r16,r2,64
 304268c:	e0fff917 	ldw	r3,-28(fp)
 3042690:	e0bffc17 	ldw	r2,-16(fp)
 3042694:	180b883a 	mov	r5,r3
 3042698:	1009883a 	mov	r4,r2
 304269c:	3048a880 	call	3048a88 <__umodsi3>
 30426a0:	1007883a 	mov	r3,r2
 30426a4:	e0bffa17 	ldw	r2,-24(fp)
 30426a8:	1885383a 	mul	r2,r3,r2
 30426ac:	8085883a 	add	r2,r16,r2
 30426b0:	e0bff715 	stw	r2,-36(fp)
            if (pVol->Partition_Type == PARTITION_FAT32){
 30426b4:	e0bff517 	ldw	r2,-44(fp)
 30426b8:	10800317 	ldw	r2,12(r2)
 30426bc:	108002d8 	cmpnei	r2,r2,11
 30426c0:	1000071e 	bne	r2,zero,30426e0 <fatFindUnusedCluster+0x10c>
                ClusterEntryValue = *(alt_u32*)pFatEntry; 
 30426c4:	e0bff717 	ldw	r2,-36(fp)
 30426c8:	10800017 	ldw	r2,0(r2)
 30426cc:	e0bff615 	stw	r2,-40(fp)
                ClusterType = fat32ClusterType(ClusterEntryValue);
 30426d0:	e13ff617 	ldw	r4,-40(fp)
 30426d4:	304239c0 	call	304239c <fat32ClusterType>
 30426d8:	e0bffe15 	stw	r2,-8(fp)
 30426dc:	00000706 	br	30426fc <fatFindUnusedCluster+0x128>
            }else{
                ClusterEntryValue = *(alt_u16 *)pFatEntry; 
 30426e0:	e0bff717 	ldw	r2,-36(fp)
 30426e4:	1080000b 	ldhu	r2,0(r2)
 30426e8:	10bfffcc 	andi	r2,r2,65535
 30426ec:	e0bff615 	stw	r2,-40(fp)
                ClusterType = fat16ClusterType(ClusterEntryValue);
 30426f0:	e13ff617 	ldw	r4,-40(fp)
 30426f4:	30422ec0 	call	30422ec <fat16ClusterType>
 30426f8:	e0bffe15 	stw	r2,-8(fp)
            }    
            if (ClusterType == CLUSTER_UNUSED){
 30426fc:	e0bffe17 	ldw	r2,-8(fp)
 3042700:	1000071e 	bne	r2,zero,3042720 <fatFindUnusedCluster+0x14c>
                UnusedCluster = ThisCluster;  // invalid cluster
 3042704:	e0bffc17 	ldw	r2,-16(fp)
 3042708:	e0bffd15 	stw	r2,-12(fp)
                bDone = TRUE;
 304270c:	00800044 	movi	r2,1
 3042710:	e0bffbc5 	stb	r2,-17(fp)
 3042714:	00000206 	br	3042720 <fatFindUnusedCluster+0x14c>
            }    
        }else{
            bDone = TRUE;
 3042718:	00800044 	movi	r2,1
 304271c:	e0bffbc5 	stb	r2,-17(fp)
        }     
        ThisCluster++;           
 3042720:	e0bffc17 	ldw	r2,-16(fp)
 3042724:	10800044 	addi	r2,r2,1
 3042728:	e0bffc15 	stw	r2,-16(fp)
    while(!bDone){     
 304272c:	e0bffbc3 	ldbu	r2,-17(fp)
 3042730:	1080005c 	xori	r2,r2,1
 3042734:	10803fcc 	andi	r2,r2,255
 3042738:	103fc11e 	bne	r2,zero,3042640 <fatFindUnusedCluster+0x6c>
    }                
    
    return UnusedCluster;
 304273c:	e0bffd17 	ldw	r2,-12(fp)

}
 3042740:	e6ffff04 	addi	sp,fp,-4
 3042744:	dfc00217 	ldw	ra,8(sp)
 3042748:	df000117 	ldw	fp,4(sp)
 304274c:	dc000017 	ldw	r16,0(sp)
 3042750:	dec00304 	addi	sp,sp,12
 3042754:	f800283a 	ret

03042758 <fatDelClusterList>:


bool fatDelClusterList(VOLUME_INFO *pVol, alt_u32 StartCluster){
 3042758:	defff304 	addi	sp,sp,-52
 304275c:	dfc00c15 	stw	ra,48(sp)
 3042760:	df000b15 	stw	fp,44(sp)
 3042764:	dc000a15 	stw	r16,40(sp)
 3042768:	df000b04 	addi	fp,sp,44
 304276c:	e13ff615 	stw	r4,-40(fp)
 3042770:	e17ff515 	stw	r5,-44(fp)
    CLUSTER_TYPE ClusterType;
    bool bSuccess = TRUE;
 3042774:	00800044 	movi	r2,1
 3042778:	e0bffdc5 	stb	r2,-9(fp)
    bool bDone = FALSE;
 304277c:	e03ffd85 	stb	zero,-10(fp)
    alt_u32 ClusterIndex, Secter, ClusterEntryValue;
    void *pFatEntryValue;
    
    
    const int nFatEntrySize = (pVol->Partition_Type == PARTITION_FAT32)?4:2; // 2 byte for FAT16
 3042780:	e0bff617 	ldw	r2,-40(fp)
 3042784:	10800317 	ldw	r2,12(r2)
 3042788:	108002d8 	cmpnei	r2,r2,11
 304278c:	1000021e 	bne	r2,zero,3042798 <fatDelClusterList+0x40>
 3042790:	00800104 	movi	r2,4
 3042794:	00000106 	br	304279c <fatDelClusterList+0x44>
 3042798:	00800084 	movi	r2,2
 304279c:	e0bffc15 	stw	r2,-16(fp)
    const int nFatEntryPerSecter = pVol->BPB_BytsPerSec/nFatEntrySize;
 30427a0:	e0bff617 	ldw	r2,-40(fp)
 30427a4:	10800617 	ldw	r2,24(r2)
 30427a8:	e0fffc17 	ldw	r3,-16(fp)
 30427ac:	180b883a 	mov	r5,r3
 30427b0:	1009883a 	mov	r4,r2
 30427b4:	3048a240 	call	3048a24 <__udivsi3>
 30427b8:	e0bffb15 	stw	r2,-20(fp)
     
    ClusterIndex = StartCluster;
 30427bc:	e0bff517 	ldw	r2,-44(fp)
 30427c0:	e0bffa15 	stw	r2,-24(fp)
    while(bSuccess && !bDone){
 30427c4:	00005306 	br	3042914 <fatDelClusterList+0x1bc>
        // read FAT Table
        Secter = pVol->FatEntrySecter + (ClusterIndex*nFatEntrySize)/pVol->BPB_BytsPerSec;
 30427c8:	e0bff617 	ldw	r2,-40(fp)
 30427cc:	14000d17 	ldw	r16,52(r2)
 30427d0:	e0fffc17 	ldw	r3,-16(fp)
 30427d4:	e0bffa17 	ldw	r2,-24(fp)
 30427d8:	1887383a 	mul	r3,r3,r2
 30427dc:	e0bff617 	ldw	r2,-40(fp)
 30427e0:	10800617 	ldw	r2,24(r2)
 30427e4:	100b883a 	mov	r5,r2
 30427e8:	1809883a 	mov	r4,r3
 30427ec:	3048a240 	call	3048a24 <__udivsi3>
 30427f0:	8085883a 	add	r2,r16,r2
 30427f4:	e0bff915 	stw	r2,-28(fp)
        bSuccess = fatReadSecter(pVol, Secter);
 30427f8:	e17ff917 	ldw	r5,-28(fp)
 30427fc:	e13ff617 	ldw	r4,-40(fp)
 3042800:	30433400 	call	3043340 <fatReadSecter>
 3042804:	e0bffdc5 	stb	r2,-9(fp)
        if (bSuccess){
 3042808:	e0bffdc3 	ldbu	r2,-9(fp)
 304280c:	10004126 	beq	r2,zero,3042914 <fatDelClusterList+0x1bc>
            // get the value of FAT entry
            pFatEntryValue = (pVol->Secter_Data + (ClusterIndex%nFatEntryPerSecter)*nFatEntrySize);
 3042810:	e0bff617 	ldw	r2,-40(fp)
 3042814:	14001004 	addi	r16,r2,64
 3042818:	e0fffb17 	ldw	r3,-20(fp)
 304281c:	e0bffa17 	ldw	r2,-24(fp)
 3042820:	180b883a 	mov	r5,r3
 3042824:	1009883a 	mov	r4,r2
 3042828:	3048a880 	call	3048a88 <__umodsi3>
 304282c:	1007883a 	mov	r3,r2
 3042830:	e0bffc17 	ldw	r2,-16(fp)
 3042834:	1885383a 	mul	r2,r3,r2
 3042838:	8085883a 	add	r2,r16,r2
 304283c:	e0bff815 	stw	r2,-32(fp)
            if (pVol->Partition_Type == PARTITION_FAT32){
 3042840:	e0bff617 	ldw	r2,-40(fp)
 3042844:	10800317 	ldw	r2,12(r2)
 3042848:	108002d8 	cmpnei	r2,r2,11
 304284c:	1000071e 	bne	r2,zero,304286c <fatDelClusterList+0x114>
                ClusterEntryValue = *(alt_u32 *)pFatEntryValue; 
 3042850:	e0bff817 	ldw	r2,-32(fp)
 3042854:	10800017 	ldw	r2,0(r2)
 3042858:	e0bff715 	stw	r2,-36(fp)
                ClusterType = fat32ClusterType(ClusterEntryValue);
 304285c:	e13ff717 	ldw	r4,-36(fp)
 3042860:	304239c0 	call	304239c <fat32ClusterType>
 3042864:	e0bffe15 	stw	r2,-8(fp)
 3042868:	00000706 	br	3042888 <fatDelClusterList+0x130>
            }else{
                ClusterEntryValue = *(alt_u16 *)pFatEntryValue; //(pVol->Secter_Data + (ThisCluster%nFatEntryPerSecter)*nFatEntrySize); 
 304286c:	e0bff817 	ldw	r2,-32(fp)
 3042870:	1080000b 	ldhu	r2,0(r2)
 3042874:	10bfffcc 	andi	r2,r2,65535
 3042878:	e0bff715 	stw	r2,-36(fp)
                ClusterType = fat16ClusterType(ClusterEntryValue);
 304287c:	e13ff717 	ldw	r4,-36(fp)
 3042880:	30422ec0 	call	30422ec <fat16ClusterType>
 3042884:	e0bffe15 	stw	r2,-8(fp)
            }
                
            if (ClusterType != CLUSTER_NEXT_INFILE && ClusterType != CLUSTER_LAST_INFILE){
 3042888:	e0bffe17 	ldw	r2,-8(fp)
 304288c:	10800120 	cmpeqi	r2,r2,4
 3042890:	1000071e 	bne	r2,zero,30428b0 <fatDelClusterList+0x158>
 3042894:	e0bffe17 	ldw	r2,-8(fp)
 3042898:	108000e0 	cmpeqi	r2,r2,3
 304289c:	1000041e 	bne	r2,zero,30428b0 <fatDelClusterList+0x158>
                bDone = TRUE;
 30428a0:	00800044 	movi	r2,1
 30428a4:	e0bffd85 	stb	r2,-10(fp)
                bSuccess = FALSE;
 30428a8:	e03ffdc5 	stb	zero,-9(fp)
 30428ac:	00001906 	br	3042914 <fatDelClusterList+0x1bc>
            }else{
                if (ClusterType == CLUSTER_LAST_INFILE)
 30428b0:	e0bffe17 	ldw	r2,-8(fp)
 30428b4:	108000d8 	cmpnei	r2,r2,3
 30428b8:	1000021e 	bne	r2,zero,30428c4 <fatDelClusterList+0x16c>
                    bDone = TRUE; // the last cluster
 30428bc:	00800044 	movi	r2,1
 30428c0:	e0bffd85 	stb	r2,-10(fp)
                // update
                if (pVol->Partition_Type == PARTITION_FAT32)
 30428c4:	e0bff617 	ldw	r2,-40(fp)
 30428c8:	10800317 	ldw	r2,12(r2)
 30428cc:	108002d8 	cmpnei	r2,r2,11
 30428d0:	1000031e 	bne	r2,zero,30428e0 <fatDelClusterList+0x188>
                    *(alt_u32 *)pFatEntryValue = CLUSTER_UNUSED;
 30428d4:	e0bff817 	ldw	r2,-32(fp)
 30428d8:	10000015 	stw	zero,0(r2)
 30428dc:	00000206 	br	30428e8 <fatDelClusterList+0x190>
                else 
                    *(alt_u16 *)pFatEntryValue = CLUSTER_UNUSED;
 30428e0:	e0bff817 	ldw	r2,-32(fp)
 30428e4:	1000000d 	sth	zero,0(r2)
                //write back FAT Table
                bSuccess = pVol->WriteBlock512(pVol->DiskHandle, pVol->Secter_Index, pVol->Secter_Data);
 30428e8:	e0bff617 	ldw	r2,-40(fp)
 30428ec:	10800217 	ldw	r2,8(r2)
 30428f0:	e0fff617 	ldw	r3,-40(fp)
 30428f4:	19000017 	ldw	r4,0(r3)
 30428f8:	e0fff617 	ldw	r3,-40(fp)
 30428fc:	19409017 	ldw	r5,576(r3)
 3042900:	e0fff617 	ldw	r3,-40(fp)
 3042904:	18c01004 	addi	r3,r3,64
 3042908:	180d883a 	mov	r6,r3
 304290c:	103ee83a 	callr	r2
 3042910:	e0bffdc5 	stb	r2,-9(fp)
    while(bSuccess && !bDone){
 3042914:	e0bffdc3 	ldbu	r2,-9(fp)
 3042918:	10000426 	beq	r2,zero,304292c <fatDelClusterList+0x1d4>
 304291c:	e0bffd83 	ldbu	r2,-10(fp)
 3042920:	1080005c 	xori	r2,r2,1
 3042924:	10803fcc 	andi	r2,r2,255
 3042928:	103fa71e 	bne	r2,zero,30427c8 <fatDelClusterList+0x70>
            }    
        }                
    }  // while                
    
    
    return bSuccess;
 304292c:	e0bffdc3 	ldbu	r2,-9(fp)

}
 3042930:	e6ffff04 	addi	sp,fp,-4
 3042934:	dfc00217 	ldw	ra,8(sp)
 3042938:	df000117 	ldw	fp,4(sp)
 304293c:	dc000017 	ldw	r16,0(sp)
 3042940:	dec00304 	addi	sp,sp,12
 3042944:	f800283a 	ret

03042948 <fatDumpDate>:


void fatDumpDate(unsigned short Date){
 3042948:	defffa04 	addi	sp,sp,-24
 304294c:	dfc00515 	stw	ra,20(sp)
 3042950:	df000415 	stw	fp,16(sp)
 3042954:	df000404 	addi	fp,sp,16
 3042958:	2005883a 	mov	r2,r4
 304295c:	e0bffc0d 	sth	r2,-16(fp)
    int Year, Month, Day;
    Year = ((Date >> 9) & 0x1F) + 1980;
 3042960:	e0bffc0b 	ldhu	r2,-16(fp)
 3042964:	1004d27a 	srli	r2,r2,9
 3042968:	10bfffcc 	andi	r2,r2,65535
 304296c:	108007cc 	andi	r2,r2,31
 3042970:	1081ef04 	addi	r2,r2,1980
 3042974:	e0bfff15 	stw	r2,-4(fp)
    Month = ((Date >> 5) & 0xF);
 3042978:	e0bffc0b 	ldhu	r2,-16(fp)
 304297c:	1004d17a 	srli	r2,r2,5
 3042980:	10bfffcc 	andi	r2,r2,65535
 3042984:	108003cc 	andi	r2,r2,15
 3042988:	e0bffe15 	stw	r2,-8(fp)
    Day = ((Date >> 0) & 0x1F);
 304298c:	e0bffc0b 	ldhu	r2,-16(fp)
 3042990:	108007cc 	andi	r2,r2,31
 3042994:	e0bffd15 	stw	r2,-12(fp)
    FAT_DEBUG(("%d,%d,%d", Year, Month, Day)); 
 3042998:	0100c1b4 	movhi	r4,774
 304299c:	213f3704 	addi	r4,r4,-804
 30429a0:	30450c80 	call	30450c8 <myprintf>
 30429a4:	e1fffd17 	ldw	r7,-12(fp)
 30429a8:	e1bffe17 	ldw	r6,-8(fp)
 30429ac:	e17fff17 	ldw	r5,-4(fp)
 30429b0:	0100c1b4 	movhi	r4,774
 30429b4:	213f3904 	addi	r4,r4,-796
 30429b8:	30450c80 	call	30450c8 <myprintf>
}
 30429bc:	0001883a 	nop
 30429c0:	e037883a 	mov	sp,fp
 30429c4:	dfc00117 	ldw	ra,4(sp)
 30429c8:	df000017 	ldw	fp,0(sp)
 30429cc:	dec00204 	addi	sp,sp,8
 30429d0:	f800283a 	ret

030429d4 <fatDumpTime>:

void fatDumpTime(unsigned short Date){
 30429d4:	defffa04 	addi	sp,sp,-24
 30429d8:	dfc00515 	stw	ra,20(sp)
 30429dc:	df000415 	stw	fp,16(sp)
 30429e0:	df000404 	addi	fp,sp,16
 30429e4:	2005883a 	mov	r2,r4
 30429e8:	e0bffc0d 	sth	r2,-16(fp)
    int H,M,S;
    H = ((Date >> 9) & 0x1F);
 30429ec:	e0bffc0b 	ldhu	r2,-16(fp)
 30429f0:	1004d27a 	srli	r2,r2,9
 30429f4:	10bfffcc 	andi	r2,r2,65535
 30429f8:	108007cc 	andi	r2,r2,31
 30429fc:	e0bfff15 	stw	r2,-4(fp)
    M = ((Date >> 5) & 0x3F);
 3042a00:	e0bffc0b 	ldhu	r2,-16(fp)
 3042a04:	1004d17a 	srli	r2,r2,5
 3042a08:	10bfffcc 	andi	r2,r2,65535
 3042a0c:	10800fcc 	andi	r2,r2,63
 3042a10:	e0bffe15 	stw	r2,-8(fp)
    S = ((Date >> 0) & 0x1F)*2;
 3042a14:	e0bffc0b 	ldhu	r2,-16(fp)
 3042a18:	108007cc 	andi	r2,r2,31
 3042a1c:	1085883a 	add	r2,r2,r2
 3042a20:	e0bffd15 	stw	r2,-12(fp)
    FAT_DEBUG(("%d:%d:%d", H, M, S));     
 3042a24:	0100c1b4 	movhi	r4,774
 3042a28:	213f3704 	addi	r4,r4,-804
 3042a2c:	30450c80 	call	30450c8 <myprintf>
 3042a30:	e1fffd17 	ldw	r7,-12(fp)
 3042a34:	e1bffe17 	ldw	r6,-8(fp)
 3042a38:	e17fff17 	ldw	r5,-4(fp)
 3042a3c:	0100c1b4 	movhi	r4,774
 3042a40:	213f3c04 	addi	r4,r4,-784
 3042a44:	30450c80 	call	30450c8 <myprintf>
}
 3042a48:	0001883a 	nop
 3042a4c:	e037883a 	mov	sp,fp
 3042a50:	dfc00117 	ldw	ra,4(sp)
 3042a54:	df000017 	ldw	fp,0(sp)
 3042a58:	dec00204 	addi	sp,sp,8
 3042a5c:	f800283a 	ret

03042a60 <fatIsLastDir>:

bool fatIsLastDir(FAT_DIRECTORY *pDir){
 3042a60:	defffe04 	addi	sp,sp,-8
 3042a64:	df000115 	stw	fp,4(sp)
 3042a68:	df000104 	addi	fp,sp,4
 3042a6c:	e13fff15 	stw	r4,-4(fp)
    if (pDir->Name[0] == REMAINED_UNUSED_DIR_ENTRY)  // 0x00
 3042a70:	e0bfff17 	ldw	r2,-4(fp)
 3042a74:	10800003 	ldbu	r2,0(r2)
 3042a78:	10803fcc 	andi	r2,r2,255
 3042a7c:	1080201c 	xori	r2,r2,128
 3042a80:	10bfe004 	addi	r2,r2,-128
 3042a84:	1000021e 	bne	r2,zero,3042a90 <fatIsLastDir+0x30>
        return TRUE;
 3042a88:	00800044 	movi	r2,1
 3042a8c:	00000106 	br	3042a94 <fatIsLastDir+0x34>
    return FALSE;        
 3042a90:	0005883a 	mov	r2,zero
}
 3042a94:	e037883a 	mov	sp,fp
 3042a98:	df000017 	ldw	fp,0(sp)
 3042a9c:	dec00104 	addi	sp,sp,4
 3042aa0:	f800283a 	ret

03042aa4 <fatIsValidDir>:


bool fatIsValidDir(FAT_DIRECTORY *pDir){
 3042aa4:	defff704 	addi	sp,sp,-36
 3042aa8:	dfc00815 	stw	ra,32(sp)
 3042aac:	df000715 	stw	fp,28(sp)
 3042ab0:	df000704 	addi	fp,sp,28
 3042ab4:	e13ff915 	stw	r4,-28(fp)
    char szTest[] = {0x00, 0xE5, 0x22, 0x2A, 0x2B, 0x2C, 0x2E, 0x2F, 0x3A, 0x3B, 0x3C, 0x3E, 0x3F, 0x5B, 0x5C, 0x5D, 0x7C};
 3042ab8:	e0fffac4 	addi	r3,fp,-21
 3042abc:	0080c1b4 	movhi	r2,774
 3042ac0:	10bf3f04 	addi	r2,r2,-772
 3042ac4:	01000444 	movi	r4,17
 3042ac8:	200d883a 	mov	r6,r4
 3042acc:	100b883a 	mov	r5,r2
 3042ad0:	1809883a 	mov	r4,r3
 3042ad4:	304be140 	call	304be14 <memcpy>
    int i;
    
    for(i=0;i<sizeof(szTest)/sizeof(szTest[0]);i++){
 3042ad8:	e03fff15 	stw	zero,-4(fp)
 3042adc:	00001106 	br	3042b24 <fatIsValidDir+0x80>
        if (pDir->Name[0] == szTest[i]){
 3042ae0:	e0bff917 	ldw	r2,-28(fp)
 3042ae4:	10c00003 	ldbu	r3,0(r2)
 3042ae8:	e0bfff17 	ldw	r2,-4(fp)
 3042aec:	e085883a 	add	r2,fp,r2
 3042af0:	10bffac3 	ldbu	r2,-21(r2)
 3042af4:	18c03fcc 	andi	r3,r3,255
 3042af8:	18c0201c 	xori	r3,r3,128
 3042afc:	18ffe004 	addi	r3,r3,-128
 3042b00:	10803fcc 	andi	r2,r2,255
 3042b04:	1080201c 	xori	r2,r2,128
 3042b08:	10bfe004 	addi	r2,r2,-128
 3042b0c:	1880021e 	bne	r3,r2,3042b18 <fatIsValidDir+0x74>
            return FALSE;
 3042b10:	0005883a 	mov	r2,zero
 3042b14:	00000706 	br	3042b34 <fatIsValidDir+0x90>
    for(i=0;i<sizeof(szTest)/sizeof(szTest[0]);i++){
 3042b18:	e0bfff17 	ldw	r2,-4(fp)
 3042b1c:	10800044 	addi	r2,r2,1
 3042b20:	e0bfff15 	stw	r2,-4(fp)
 3042b24:	e0bfff17 	ldw	r2,-4(fp)
 3042b28:	10800470 	cmpltui	r2,r2,17
 3042b2c:	103fec1e 	bne	r2,zero,3042ae0 <fatIsValidDir+0x3c>
        }
    }    
    return TRUE;
 3042b30:	00800044 	movi	r2,1
    
}
 3042b34:	e037883a 	mov	sp,fp
 3042b38:	dfc00117 	ldw	ra,4(sp)
 3042b3c:	df000017 	ldw	fp,0(sp)
 3042b40:	dec00204 	addi	sp,sp,8
 3042b44:	f800283a 	ret

03042b48 <fatIsUnusedDir>:

bool fatIsUnusedDir(FAT_DIRECTORY *pDir){
 3042b48:	defffe04 	addi	sp,sp,-8
 3042b4c:	df000115 	stw	fp,4(sp)
 3042b50:	df000104 	addi	fp,sp,4
 3042b54:	e13fff15 	stw	r4,-4(fp)
    if (pDir->Name[0] == (alt_8)UNUSED_DIR_ENTRY)
 3042b58:	e0bfff17 	ldw	r2,-4(fp)
 3042b5c:	10800003 	ldbu	r2,0(r2)
 3042b60:	10803fcc 	andi	r2,r2,255
 3042b64:	1080201c 	xori	r2,r2,128
 3042b68:	10bfe004 	addi	r2,r2,-128
 3042b6c:	10bff958 	cmpnei	r2,r2,-27
 3042b70:	1000021e 	bne	r2,zero,3042b7c <fatIsUnusedDir+0x34>
        return TRUE;
 3042b74:	00800044 	movi	r2,1
 3042b78:	00000106 	br	3042b80 <fatIsUnusedDir+0x38>
    return FALSE; 
 3042b7c:	0005883a 	mov	r2,zero
}
 3042b80:	e037883a 	mov	sp,fp
 3042b84:	df000017 	ldw	fp,0(sp)
 3042b88:	dec00104 	addi	sp,sp,4
 3042b8c:	f800283a 	ret

03042b90 <fatDump>:

// debug
void fatDump(FAT_DIRECTORY *pDir){
 3042b90:	defff304 	addi	sp,sp,-52
 3042b94:	dfc00c15 	stw	ra,48(sp)
 3042b98:	df000b15 	stw	fp,44(sp)
 3042b9c:	df000b04 	addi	fp,sp,44
 3042ba0:	e13ffa15 	stw	r4,-24(fp)
    char szInvalidName[] = {0x22, 0x2A, 0x2B, 0x2C, 0x2E, 0x2F, 0x3A, 0x3B, 0x3C, 0x3E, 0x3F, 0x5B, 0x5C, 0x5D, 0x7C};
 3042ba4:	e0fffb44 	addi	r3,fp,-19
 3042ba8:	0080c1b4 	movhi	r2,774
 3042bac:	10bfaf04 	addi	r2,r2,-324
 3042bb0:	010003c4 	movi	r4,15
 3042bb4:	200d883a 	mov	r6,r4
 3042bb8:	100b883a 	mov	r5,r2
 3042bbc:	1809883a 	mov	r4,r3
 3042bc0:	304be140 	call	304be14 <memcpy>
    int i;
    if (pDir->Name[0] == (char)0xE5){
 3042bc4:	e0bffa17 	ldw	r2,-24(fp)
 3042bc8:	10800003 	ldbu	r2,0(r2)
 3042bcc:	10803fcc 	andi	r2,r2,255
 3042bd0:	1080201c 	xori	r2,r2,128
 3042bd4:	10bfe004 	addi	r2,r2,-128
 3042bd8:	10bff958 	cmpnei	r2,r2,-27
 3042bdc:	1000071e 	bne	r2,zero,3042bfc <fatDump+0x6c>
        FAT_DEBUG(("the directory entry is free.\n"));
 3042be0:	0100c1b4 	movhi	r4,774
 3042be4:	213f3704 	addi	r4,r4,-804
 3042be8:	30450c80 	call	30450c8 <myprintf>
 3042bec:	0100c1b4 	movhi	r4,774
 3042bf0:	213f4404 	addi	r4,r4,-752
 3042bf4:	30450c80 	call	30450c8 <myprintf>
        return;
 3042bf8:	0001aa06 	br	30432a4 <fatDump+0x714>
    }
    if (pDir->Name[0] == 0x00){
 3042bfc:	e0bffa17 	ldw	r2,-24(fp)
 3042c00:	10800003 	ldbu	r2,0(r2)
 3042c04:	10803fcc 	andi	r2,r2,255
 3042c08:	1080201c 	xori	r2,r2,128
 3042c0c:	10bfe004 	addi	r2,r2,-128
 3042c10:	1000071e 	bne	r2,zero,3042c30 <fatDump+0xa0>
        FAT_DEBUG(("the directory entry is free, and there are no allocated directory entries after tis one.\n"));
 3042c14:	0100c1b4 	movhi	r4,774
 3042c18:	213f3704 	addi	r4,r4,-804
 3042c1c:	30450c80 	call	30450c8 <myprintf>
 3042c20:	0100c1b4 	movhi	r4,774
 3042c24:	213f4c04 	addi	r4,r4,-720
 3042c28:	30450c80 	call	30450c8 <myprintf>
        return;
 3042c2c:	00019d06 	br	30432a4 <fatDump+0x714>
    }
    
    if (pDir->Name[0] <= 0x20 && pDir->Name[0] != 0x05){
 3042c30:	e0bffa17 	ldw	r2,-24(fp)
 3042c34:	10800003 	ldbu	r2,0(r2)
 3042c38:	10803fcc 	andi	r2,r2,255
 3042c3c:	1080201c 	xori	r2,r2,128
 3042c40:	10bfe004 	addi	r2,r2,-128
 3042c44:	10800848 	cmpgei	r2,r2,33
 3042c48:	10000e1e 	bne	r2,zero,3042c84 <fatDump+0xf4>
 3042c4c:	e0bffa17 	ldw	r2,-24(fp)
 3042c50:	10800003 	ldbu	r2,0(r2)
 3042c54:	10803fcc 	andi	r2,r2,255
 3042c58:	1080201c 	xori	r2,r2,128
 3042c5c:	10bfe004 	addi	r2,r2,-128
 3042c60:	10800160 	cmpeqi	r2,r2,5
 3042c64:	1000071e 	bne	r2,zero,3042c84 <fatDump+0xf4>
        FAT_DEBUG(("Invalid file name.\n"));
 3042c68:	0100c1b4 	movhi	r4,774
 3042c6c:	213f3704 	addi	r4,r4,-804
 3042c70:	30450c80 	call	30450c8 <myprintf>
 3042c74:	0100c1b4 	movhi	r4,774
 3042c78:	213f6304 	addi	r4,r4,-628
 3042c7c:	30450c80 	call	30450c8 <myprintf>
        return;
 3042c80:	00018806 	br	30432a4 <fatDump+0x714>
    }
    
    for(i=0;i<sizeof(szInvalidName)/sizeof(szInvalidName[0]);i++){
 3042c84:	e03fff15 	stw	zero,-4(fp)
 3042c88:	00001606 	br	3042ce4 <fatDump+0x154>
        if (pDir->Name[0] == szInvalidName[i]){
 3042c8c:	e0bffa17 	ldw	r2,-24(fp)
 3042c90:	10c00003 	ldbu	r3,0(r2)
 3042c94:	e0bfff17 	ldw	r2,-4(fp)
 3042c98:	e085883a 	add	r2,fp,r2
 3042c9c:	10bffb43 	ldbu	r2,-19(r2)
 3042ca0:	18c03fcc 	andi	r3,r3,255
 3042ca4:	18c0201c 	xori	r3,r3,128
 3042ca8:	18ffe004 	addi	r3,r3,-128
 3042cac:	10803fcc 	andi	r2,r2,255
 3042cb0:	1080201c 	xori	r2,r2,128
 3042cb4:	10bfe004 	addi	r2,r2,-128
 3042cb8:	1880071e 	bne	r3,r2,3042cd8 <fatDump+0x148>
            FAT_DEBUG(("Invalid file name.\n"));
 3042cbc:	0100c1b4 	movhi	r4,774
 3042cc0:	213f3704 	addi	r4,r4,-804
 3042cc4:	30450c80 	call	30450c8 <myprintf>
 3042cc8:	0100c1b4 	movhi	r4,774
 3042ccc:	213f6304 	addi	r4,r4,-628
 3042cd0:	30450c80 	call	30450c8 <myprintf>
            return;
 3042cd4:	00017306 	br	30432a4 <fatDump+0x714>
    for(i=0;i<sizeof(szInvalidName)/sizeof(szInvalidName[0]);i++){
 3042cd8:	e0bfff17 	ldw	r2,-4(fp)
 3042cdc:	10800044 	addi	r2,r2,1
 3042ce0:	e0bfff15 	stw	r2,-4(fp)
 3042ce4:	e0bfff17 	ldw	r2,-4(fp)
 3042ce8:	108003f0 	cmpltui	r2,r2,15
 3042cec:	103fe71e 	bne	r2,zero,3042c8c <fatDump+0xfc>
        }
    }    
    
    //printf("sizeof(FAT_TABLE):%d\n", (int)sizeof(FAT_TABLE));
    if (pDir->Name[0] == 0x05){
 3042cf0:	e0bffa17 	ldw	r2,-24(fp)
 3042cf4:	10800003 	ldbu	r2,0(r2)
 3042cf8:	10803fcc 	andi	r2,r2,255
 3042cfc:	1080201c 	xori	r2,r2,128
 3042d00:	10bfe004 	addi	r2,r2,-128
 3042d04:	10800158 	cmpnei	r2,r2,5
 3042d08:	1000311e 	bne	r2,zero,3042dd0 <fatDump+0x240>
        FAT_DEBUG(("Name:%c%c%c%c%c%c%c%c\n", 0xE5,pDir->Name[1],pDir->Name[2],pDir->Name[3],pDir->Name[4],pDir->Name[5],pDir->Name[6],pDir->Name[6]));
 3042d0c:	0100c1b4 	movhi	r4,774
 3042d10:	213f3704 	addi	r4,r4,-804
 3042d14:	30450c80 	call	30450c8 <myprintf>
 3042d18:	e0bffa17 	ldw	r2,-24(fp)
 3042d1c:	10800043 	ldbu	r2,1(r2)
 3042d20:	12003fcc 	andi	r8,r2,255
 3042d24:	4200201c 	xori	r8,r8,128
 3042d28:	423fe004 	addi	r8,r8,-128
 3042d2c:	e0bffa17 	ldw	r2,-24(fp)
 3042d30:	10800083 	ldbu	r2,2(r2)
 3042d34:	11c03fcc 	andi	r7,r2,255
 3042d38:	39c0201c 	xori	r7,r7,128
 3042d3c:	39ffe004 	addi	r7,r7,-128
 3042d40:	e0bffa17 	ldw	r2,-24(fp)
 3042d44:	108000c3 	ldbu	r2,3(r2)
 3042d48:	10803fcc 	andi	r2,r2,255
 3042d4c:	1080201c 	xori	r2,r2,128
 3042d50:	10bfe004 	addi	r2,r2,-128
 3042d54:	e0fffa17 	ldw	r3,-24(fp)
 3042d58:	18c00103 	ldbu	r3,4(r3)
 3042d5c:	18c03fcc 	andi	r3,r3,255
 3042d60:	18c0201c 	xori	r3,r3,128
 3042d64:	18ffe004 	addi	r3,r3,-128
 3042d68:	e13ffa17 	ldw	r4,-24(fp)
 3042d6c:	21000143 	ldbu	r4,5(r4)
 3042d70:	21003fcc 	andi	r4,r4,255
 3042d74:	2100201c 	xori	r4,r4,128
 3042d78:	213fe004 	addi	r4,r4,-128
 3042d7c:	e17ffa17 	ldw	r5,-24(fp)
 3042d80:	29400183 	ldbu	r5,6(r5)
 3042d84:	29403fcc 	andi	r5,r5,255
 3042d88:	2940201c 	xori	r5,r5,128
 3042d8c:	297fe004 	addi	r5,r5,-128
 3042d90:	e1bffa17 	ldw	r6,-24(fp)
 3042d94:	31800183 	ldbu	r6,6(r6)
 3042d98:	31803fcc 	andi	r6,r6,255
 3042d9c:	3180201c 	xori	r6,r6,128
 3042da0:	31bfe004 	addi	r6,r6,-128
 3042da4:	d9800415 	stw	r6,16(sp)
 3042da8:	d9400315 	stw	r5,12(sp)
 3042dac:	d9000215 	stw	r4,8(sp)
 3042db0:	d8c00115 	stw	r3,4(sp)
 3042db4:	d8800015 	stw	r2,0(sp)
 3042db8:	400d883a 	mov	r6,r8
 3042dbc:	01403944 	movi	r5,229
 3042dc0:	0100c1b4 	movhi	r4,774
 3042dc4:	213f6804 	addi	r4,r4,-608
 3042dc8:	30450c80 	call	30450c8 <myprintf>
 3042dcc:	00003506 	br	3042ea4 <fatDump+0x314>
    }else{
        FAT_DEBUG(("Name:%c%c%c%c%c%c%c%c\n", pDir->Name[0],pDir->Name[1],pDir->Name[2],pDir->Name[3],pDir->Name[4],pDir->Name[5],pDir->Name[6],pDir->Name[6]));
 3042dd0:	0100c1b4 	movhi	r4,774
 3042dd4:	213f3704 	addi	r4,r4,-804
 3042dd8:	30450c80 	call	30450c8 <myprintf>
 3042ddc:	e0bffa17 	ldw	r2,-24(fp)
 3042de0:	10800003 	ldbu	r2,0(r2)
 3042de4:	12003fcc 	andi	r8,r2,255
 3042de8:	4200201c 	xori	r8,r8,128
 3042dec:	423fe004 	addi	r8,r8,-128
 3042df0:	e0bffa17 	ldw	r2,-24(fp)
 3042df4:	10800043 	ldbu	r2,1(r2)
 3042df8:	12403fcc 	andi	r9,r2,255
 3042dfc:	4a40201c 	xori	r9,r9,128
 3042e00:	4a7fe004 	addi	r9,r9,-128
 3042e04:	e0bffa17 	ldw	r2,-24(fp)
 3042e08:	10800083 	ldbu	r2,2(r2)
 3042e0c:	11c03fcc 	andi	r7,r2,255
 3042e10:	39c0201c 	xori	r7,r7,128
 3042e14:	39ffe004 	addi	r7,r7,-128
 3042e18:	e0bffa17 	ldw	r2,-24(fp)
 3042e1c:	108000c3 	ldbu	r2,3(r2)
 3042e20:	10803fcc 	andi	r2,r2,255
 3042e24:	1080201c 	xori	r2,r2,128
 3042e28:	10bfe004 	addi	r2,r2,-128
 3042e2c:	e0fffa17 	ldw	r3,-24(fp)
 3042e30:	18c00103 	ldbu	r3,4(r3)
 3042e34:	18c03fcc 	andi	r3,r3,255
 3042e38:	18c0201c 	xori	r3,r3,128
 3042e3c:	18ffe004 	addi	r3,r3,-128
 3042e40:	e13ffa17 	ldw	r4,-24(fp)
 3042e44:	21000143 	ldbu	r4,5(r4)
 3042e48:	21003fcc 	andi	r4,r4,255
 3042e4c:	2100201c 	xori	r4,r4,128
 3042e50:	213fe004 	addi	r4,r4,-128
 3042e54:	e17ffa17 	ldw	r5,-24(fp)
 3042e58:	29400183 	ldbu	r5,6(r5)
 3042e5c:	29403fcc 	andi	r5,r5,255
 3042e60:	2940201c 	xori	r5,r5,128
 3042e64:	297fe004 	addi	r5,r5,-128
 3042e68:	e1bffa17 	ldw	r6,-24(fp)
 3042e6c:	31800183 	ldbu	r6,6(r6)
 3042e70:	31803fcc 	andi	r6,r6,255
 3042e74:	3180201c 	xori	r6,r6,128
 3042e78:	31bfe004 	addi	r6,r6,-128
 3042e7c:	d9800415 	stw	r6,16(sp)
 3042e80:	d9400315 	stw	r5,12(sp)
 3042e84:	d9000215 	stw	r4,8(sp)
 3042e88:	d8c00115 	stw	r3,4(sp)
 3042e8c:	d8800015 	stw	r2,0(sp)
 3042e90:	480d883a 	mov	r6,r9
 3042e94:	400b883a 	mov	r5,r8
 3042e98:	0100c1b4 	movhi	r4,774
 3042e9c:	213f6804 	addi	r4,r4,-608
 3042ea0:	30450c80 	call	30450c8 <myprintf>
    }        
    FAT_DEBUG(("Extention:%c%c%c\n", pDir->Extension[0],pDir->Extension[1],pDir->Extension[2]));
 3042ea4:	0100c1b4 	movhi	r4,774
 3042ea8:	213f3704 	addi	r4,r4,-804
 3042eac:	30450c80 	call	30450c8 <myprintf>
 3042eb0:	e0bffa17 	ldw	r2,-24(fp)
 3042eb4:	10800203 	ldbu	r2,8(r2)
 3042eb8:	10c03fcc 	andi	r3,r2,255
 3042ebc:	18c0201c 	xori	r3,r3,128
 3042ec0:	18ffe004 	addi	r3,r3,-128
 3042ec4:	e0bffa17 	ldw	r2,-24(fp)
 3042ec8:	10800243 	ldbu	r2,9(r2)
 3042ecc:	11003fcc 	andi	r4,r2,255
 3042ed0:	2100201c 	xori	r4,r4,128
 3042ed4:	213fe004 	addi	r4,r4,-128
 3042ed8:	e0bffa17 	ldw	r2,-24(fp)
 3042edc:	10800283 	ldbu	r2,10(r2)
 3042ee0:	10803fcc 	andi	r2,r2,255
 3042ee4:	1080201c 	xori	r2,r2,128
 3042ee8:	10bfe004 	addi	r2,r2,-128
 3042eec:	100f883a 	mov	r7,r2
 3042ef0:	200d883a 	mov	r6,r4
 3042ef4:	180b883a 	mov	r5,r3
 3042ef8:	0100c1b4 	movhi	r4,774
 3042efc:	213f6e04 	addi	r4,r4,-584
 3042f00:	30450c80 	call	30450c8 <myprintf>
    FAT_DEBUG(("Attribute:%02Xh\n", pDir->Attribute));
 3042f04:	0100c1b4 	movhi	r4,774
 3042f08:	213f3704 	addi	r4,r4,-804
 3042f0c:	30450c80 	call	30450c8 <myprintf>
 3042f10:	e0bffa17 	ldw	r2,-24(fp)
 3042f14:	108002c3 	ldbu	r2,11(r2)
 3042f18:	10803fcc 	andi	r2,r2,255
 3042f1c:	1080201c 	xori	r2,r2,128
 3042f20:	10bfe004 	addi	r2,r2,-128
 3042f24:	100b883a 	mov	r5,r2
 3042f28:	0100c1b4 	movhi	r4,774
 3042f2c:	213f7304 	addi	r4,r4,-564
 3042f30:	30450c80 	call	30450c8 <myprintf>
    if (pDir->Attribute & ATTR_READ_ONLY)
 3042f34:	e0bffa17 	ldw	r2,-24(fp)
 3042f38:	108002c3 	ldbu	r2,11(r2)
 3042f3c:	10803fcc 	andi	r2,r2,255
 3042f40:	1080004c 	andi	r2,r2,1
 3042f44:	10000626 	beq	r2,zero,3042f60 <fatDump+0x3d0>
        FAT_DEBUG(("  Read-Only\n"));
 3042f48:	0100c1b4 	movhi	r4,774
 3042f4c:	213f3704 	addi	r4,r4,-804
 3042f50:	30450c80 	call	30450c8 <myprintf>
 3042f54:	0100c1b4 	movhi	r4,774
 3042f58:	213f7804 	addi	r4,r4,-544
 3042f5c:	30450c80 	call	30450c8 <myprintf>
    if (pDir->Attribute & ATTR_HIDDEN)
 3042f60:	e0bffa17 	ldw	r2,-24(fp)
 3042f64:	108002c3 	ldbu	r2,11(r2)
 3042f68:	10803fcc 	andi	r2,r2,255
 3042f6c:	1080008c 	andi	r2,r2,2
 3042f70:	10000626 	beq	r2,zero,3042f8c <fatDump+0x3fc>
        FAT_DEBUG(("  Hidden\n"));
 3042f74:	0100c1b4 	movhi	r4,774
 3042f78:	213f3704 	addi	r4,r4,-804
 3042f7c:	30450c80 	call	30450c8 <myprintf>
 3042f80:	0100c1b4 	movhi	r4,774
 3042f84:	213f7c04 	addi	r4,r4,-528
 3042f88:	30450c80 	call	30450c8 <myprintf>
    if (pDir->Attribute & ATTR_SYSTEM)
 3042f8c:	e0bffa17 	ldw	r2,-24(fp)
 3042f90:	108002c3 	ldbu	r2,11(r2)
 3042f94:	10803fcc 	andi	r2,r2,255
 3042f98:	1080010c 	andi	r2,r2,4
 3042f9c:	10000626 	beq	r2,zero,3042fb8 <fatDump+0x428>
        FAT_DEBUG(("  System\n"));
 3042fa0:	0100c1b4 	movhi	r4,774
 3042fa4:	213f3704 	addi	r4,r4,-804
 3042fa8:	30450c80 	call	30450c8 <myprintf>
 3042fac:	0100c1b4 	movhi	r4,774
 3042fb0:	213f7f04 	addi	r4,r4,-516
 3042fb4:	30450c80 	call	30450c8 <myprintf>
    if (pDir->Attribute & ATTR_VOLUME_ID)
 3042fb8:	e0bffa17 	ldw	r2,-24(fp)
 3042fbc:	108002c3 	ldbu	r2,11(r2)
 3042fc0:	10803fcc 	andi	r2,r2,255
 3042fc4:	1080020c 	andi	r2,r2,8
 3042fc8:	10000626 	beq	r2,zero,3042fe4 <fatDump+0x454>
        FAT_DEBUG(("  Volume\n"));
 3042fcc:	0100c1b4 	movhi	r4,774
 3042fd0:	213f3704 	addi	r4,r4,-804
 3042fd4:	30450c80 	call	30450c8 <myprintf>
 3042fd8:	0100c1b4 	movhi	r4,774
 3042fdc:	213f8204 	addi	r4,r4,-504
 3042fe0:	30450c80 	call	30450c8 <myprintf>
    if (pDir->Attribute & ATTR_DIRECTORY)
 3042fe4:	e0bffa17 	ldw	r2,-24(fp)
 3042fe8:	108002c3 	ldbu	r2,11(r2)
 3042fec:	10803fcc 	andi	r2,r2,255
 3042ff0:	1080040c 	andi	r2,r2,16
 3042ff4:	10000626 	beq	r2,zero,3043010 <fatDump+0x480>
        FAT_DEBUG(("  Directory\n"));
 3042ff8:	0100c1b4 	movhi	r4,774
 3042ffc:	213f3704 	addi	r4,r4,-804
 3043000:	30450c80 	call	30450c8 <myprintf>
 3043004:	0100c1b4 	movhi	r4,774
 3043008:	213f8504 	addi	r4,r4,-492
 304300c:	30450c80 	call	30450c8 <myprintf>
    if (pDir->Attribute & ATTR_ARCHIVE)
 3043010:	e0bffa17 	ldw	r2,-24(fp)
 3043014:	108002c3 	ldbu	r2,11(r2)
 3043018:	10803fcc 	andi	r2,r2,255
 304301c:	1080080c 	andi	r2,r2,32
 3043020:	10000626 	beq	r2,zero,304303c <fatDump+0x4ac>
        FAT_DEBUG(("  Archive\n"));
 3043024:	0100c1b4 	movhi	r4,774
 3043028:	213f3704 	addi	r4,r4,-804
 304302c:	30450c80 	call	30450c8 <myprintf>
 3043030:	0100c1b4 	movhi	r4,774
 3043034:	213f8904 	addi	r4,r4,-476
 3043038:	30450c80 	call	30450c8 <myprintf>
    if (pDir->Attribute & ATTR_LONG_NAME)
 304303c:	e0bffa17 	ldw	r2,-24(fp)
 3043040:	108002c3 	ldbu	r2,11(r2)
 3043044:	10803fcc 	andi	r2,r2,255
 3043048:	108003cc 	andi	r2,r2,15
 304304c:	10000626 	beq	r2,zero,3043068 <fatDump+0x4d8>
        FAT_DEBUG(("  Long Name\n"));
 3043050:	0100c1b4 	movhi	r4,774
 3043054:	213f3704 	addi	r4,r4,-804
 3043058:	30450c80 	call	30450c8 <myprintf>
 304305c:	0100c1b4 	movhi	r4,774
 3043060:	213f8c04 	addi	r4,r4,-464
 3043064:	30450c80 	call	30450c8 <myprintf>
    FAT_DEBUG(("CreateTime:")); fatDumpTime(pDir->CreateTime);FAT_DEBUG(("\n"));
 3043068:	0100c1b4 	movhi	r4,774
 304306c:	213f3704 	addi	r4,r4,-804
 3043070:	30450c80 	call	30450c8 <myprintf>
 3043074:	0100c1b4 	movhi	r4,774
 3043078:	213f9004 	addi	r4,r4,-448
 304307c:	30450c80 	call	30450c8 <myprintf>
 3043080:	e0bffa17 	ldw	r2,-24(fp)
 3043084:	10c00383 	ldbu	r3,14(r2)
 3043088:	108003c3 	ldbu	r2,15(r2)
 304308c:	1004923a 	slli	r2,r2,8
 3043090:	10c4b03a 	or	r2,r2,r3
 3043094:	10bfffcc 	andi	r2,r2,65535
 3043098:	1009883a 	mov	r4,r2
 304309c:	30429d40 	call	30429d4 <fatDumpTime>
 30430a0:	0100c1b4 	movhi	r4,774
 30430a4:	213f3704 	addi	r4,r4,-804
 30430a8:	30450c80 	call	30450c8 <myprintf>
 30430ac:	0100c1b4 	movhi	r4,774
 30430b0:	213f9304 	addi	r4,r4,-436
 30430b4:	30450c80 	call	30450c8 <myprintf>
    FAT_DEBUG(("CreateDate:")); fatDumpDate(pDir->LastAccessDate);FAT_DEBUG(("\n"));
 30430b8:	0100c1b4 	movhi	r4,774
 30430bc:	213f3704 	addi	r4,r4,-804
 30430c0:	30450c80 	call	30450c8 <myprintf>
 30430c4:	0100c1b4 	movhi	r4,774
 30430c8:	213f9404 	addi	r4,r4,-432
 30430cc:	30450c80 	call	30450c8 <myprintf>
 30430d0:	e0bffa17 	ldw	r2,-24(fp)
 30430d4:	10c00483 	ldbu	r3,18(r2)
 30430d8:	108004c3 	ldbu	r2,19(r2)
 30430dc:	1004923a 	slli	r2,r2,8
 30430e0:	10c4b03a 	or	r2,r2,r3
 30430e4:	10bfffcc 	andi	r2,r2,65535
 30430e8:	1009883a 	mov	r4,r2
 30430ec:	30429480 	call	3042948 <fatDumpDate>
 30430f0:	0100c1b4 	movhi	r4,774
 30430f4:	213f3704 	addi	r4,r4,-804
 30430f8:	30450c80 	call	30450c8 <myprintf>
 30430fc:	0100c1b4 	movhi	r4,774
 3043100:	213f9304 	addi	r4,r4,-436
 3043104:	30450c80 	call	30450c8 <myprintf>
    FAT_DEBUG(("ClusterHi:%04Xh\n", pDir->FirstLogicalClusterHi));
 3043108:	0100c1b4 	movhi	r4,774
 304310c:	213f3704 	addi	r4,r4,-804
 3043110:	30450c80 	call	30450c8 <myprintf>
 3043114:	e0bffa17 	ldw	r2,-24(fp)
 3043118:	10c00503 	ldbu	r3,20(r2)
 304311c:	10800543 	ldbu	r2,21(r2)
 3043120:	1004923a 	slli	r2,r2,8
 3043124:	10c4b03a 	or	r2,r2,r3
 3043128:	10bfffcc 	andi	r2,r2,65535
 304312c:	100b883a 	mov	r5,r2
 3043130:	0100c1b4 	movhi	r4,774
 3043134:	213f9704 	addi	r4,r4,-420
 3043138:	30450c80 	call	30450c8 <myprintf>
    FAT_DEBUG(("LastWriteTime:")); fatDumpTime(pDir->LastWriteTime);FAT_DEBUG(("\n"));
 304313c:	0100c1b4 	movhi	r4,774
 3043140:	213f3704 	addi	r4,r4,-804
 3043144:	30450c80 	call	30450c8 <myprintf>
 3043148:	0100c1b4 	movhi	r4,774
 304314c:	213f9c04 	addi	r4,r4,-400
 3043150:	30450c80 	call	30450c8 <myprintf>
 3043154:	e0bffa17 	ldw	r2,-24(fp)
 3043158:	10c00583 	ldbu	r3,22(r2)
 304315c:	108005c3 	ldbu	r2,23(r2)
 3043160:	1004923a 	slli	r2,r2,8
 3043164:	10c4b03a 	or	r2,r2,r3
 3043168:	10bfffcc 	andi	r2,r2,65535
 304316c:	1009883a 	mov	r4,r2
 3043170:	30429d40 	call	30429d4 <fatDumpTime>
 3043174:	0100c1b4 	movhi	r4,774
 3043178:	213f3704 	addi	r4,r4,-804
 304317c:	30450c80 	call	30450c8 <myprintf>
 3043180:	0100c1b4 	movhi	r4,774
 3043184:	213f9304 	addi	r4,r4,-436
 3043188:	30450c80 	call	30450c8 <myprintf>
    FAT_DEBUG(("LastWriteDate:")); fatDumpDate(pDir->LastWriteDate);FAT_DEBUG(("\n"));
 304318c:	0100c1b4 	movhi	r4,774
 3043190:	213f3704 	addi	r4,r4,-804
 3043194:	30450c80 	call	30450c8 <myprintf>
 3043198:	0100c1b4 	movhi	r4,774
 304319c:	213fa004 	addi	r4,r4,-384
 30431a0:	30450c80 	call	30450c8 <myprintf>
 30431a4:	e0bffa17 	ldw	r2,-24(fp)
 30431a8:	10c00603 	ldbu	r3,24(r2)
 30431ac:	10800643 	ldbu	r2,25(r2)
 30431b0:	1004923a 	slli	r2,r2,8
 30431b4:	10c4b03a 	or	r2,r2,r3
 30431b8:	10bfffcc 	andi	r2,r2,65535
 30431bc:	1009883a 	mov	r4,r2
 30431c0:	30429480 	call	3042948 <fatDumpDate>
 30431c4:	0100c1b4 	movhi	r4,774
 30431c8:	213f3704 	addi	r4,r4,-804
 30431cc:	30450c80 	call	30450c8 <myprintf>
 30431d0:	0100c1b4 	movhi	r4,774
 30431d4:	213f9304 	addi	r4,r4,-436
 30431d8:	30450c80 	call	30450c8 <myprintf>
    FAT_DEBUG(("Cluster:%04Xh(%d)\n", pDir->FirstLogicalCluster,pDir->FirstLogicalCluster));
 30431dc:	0100c1b4 	movhi	r4,774
 30431e0:	213f3704 	addi	r4,r4,-804
 30431e4:	30450c80 	call	30450c8 <myprintf>
 30431e8:	e0bffa17 	ldw	r2,-24(fp)
 30431ec:	10c00683 	ldbu	r3,26(r2)
 30431f0:	108006c3 	ldbu	r2,27(r2)
 30431f4:	1004923a 	slli	r2,r2,8
 30431f8:	10c4b03a 	or	r2,r2,r3
 30431fc:	113fffcc 	andi	r4,r2,65535
 3043200:	e0bffa17 	ldw	r2,-24(fp)
 3043204:	10c00683 	ldbu	r3,26(r2)
 3043208:	108006c3 	ldbu	r2,27(r2)
 304320c:	1004923a 	slli	r2,r2,8
 3043210:	10c4b03a 	or	r2,r2,r3
 3043214:	10bfffcc 	andi	r2,r2,65535
 3043218:	100d883a 	mov	r6,r2
 304321c:	200b883a 	mov	r5,r4
 3043220:	0100c1b4 	movhi	r4,774
 3043224:	213fa404 	addi	r4,r4,-368
 3043228:	30450c80 	call	30450c8 <myprintf>
    FAT_DEBUG(("File Size:%08Xh(%ld)\n", pDir->FileSize, (long)pDir->FileSize));
 304322c:	0100c1b4 	movhi	r4,774
 3043230:	213f3704 	addi	r4,r4,-804
 3043234:	30450c80 	call	30450c8 <myprintf>
 3043238:	e0bffa17 	ldw	r2,-24(fp)
 304323c:	10c00703 	ldbu	r3,28(r2)
 3043240:	11000743 	ldbu	r4,29(r2)
 3043244:	2008923a 	slli	r4,r4,8
 3043248:	20c6b03a 	or	r3,r4,r3
 304324c:	11000783 	ldbu	r4,30(r2)
 3043250:	2008943a 	slli	r4,r4,16
 3043254:	20c6b03a 	or	r3,r4,r3
 3043258:	108007c3 	ldbu	r2,31(r2)
 304325c:	1004963a 	slli	r2,r2,24
 3043260:	10c4b03a 	or	r2,r2,r3
 3043264:	100b883a 	mov	r5,r2
 3043268:	e0bffa17 	ldw	r2,-24(fp)
 304326c:	10c00703 	ldbu	r3,28(r2)
 3043270:	11000743 	ldbu	r4,29(r2)
 3043274:	2008923a 	slli	r4,r4,8
 3043278:	20c6b03a 	or	r3,r4,r3
 304327c:	11000783 	ldbu	r4,30(r2)
 3043280:	2008943a 	slli	r4,r4,16
 3043284:	20c6b03a 	or	r3,r4,r3
 3043288:	108007c3 	ldbu	r2,31(r2)
 304328c:	1004963a 	slli	r2,r2,24
 3043290:	10c4b03a 	or	r2,r2,r3
 3043294:	100d883a 	mov	r6,r2
 3043298:	0100c1b4 	movhi	r4,774
 304329c:	213fa904 	addi	r4,r4,-348
 30432a0:	30450c80 	call	30450c8 <myprintf>
}
 30432a4:	e037883a 	mov	sp,fp
 30432a8:	dfc00117 	ldw	ra,4(sp)
 30432ac:	df000017 	ldw	fp,0(sp)
 30432b0:	dec00204 	addi	sp,sp,8
 30432b4:	f800283a 	ret

030432b8 <fatArray2Value>:


unsigned int fatArray2Value(unsigned char *pValue, unsigned int nNum){
 30432b8:	defffa04 	addi	sp,sp,-24
 30432bc:	df000515 	stw	fp,20(sp)
 30432c0:	df000504 	addi	fp,sp,20
 30432c4:	e13ffc15 	stw	r4,-16(fp)
 30432c8:	e17ffb15 	stw	r5,-20(fp)
    alt_u8 *pMSB = (pValue + nNum - 1);
 30432cc:	e0bffb17 	ldw	r2,-20(fp)
 30432d0:	10bfffc4 	addi	r2,r2,-1
 30432d4:	e0fffc17 	ldw	r3,-16(fp)
 30432d8:	1885883a 	add	r2,r3,r2
 30432dc:	e0bfff15 	stw	r2,-4(fp)
    alt_u32 nValue;
    int i;
    for(i=0;i<nNum;i++){
 30432e0:	e03ffd15 	stw	zero,-12(fp)
 30432e4:	00000e06 	br	3043320 <fatArray2Value+0x68>
        nValue <<= 8;
 30432e8:	e0bffe17 	ldw	r2,-8(fp)
 30432ec:	1004923a 	slli	r2,r2,8
 30432f0:	e0bffe15 	stw	r2,-8(fp)
        nValue |= *pMSB--;
 30432f4:	e0bfff17 	ldw	r2,-4(fp)
 30432f8:	10ffffc4 	addi	r3,r2,-1
 30432fc:	e0ffff15 	stw	r3,-4(fp)
 3043300:	10800003 	ldbu	r2,0(r2)
 3043304:	10803fcc 	andi	r2,r2,255
 3043308:	e0fffe17 	ldw	r3,-8(fp)
 304330c:	1884b03a 	or	r2,r3,r2
 3043310:	e0bffe15 	stw	r2,-8(fp)
    for(i=0;i<nNum;i++){
 3043314:	e0bffd17 	ldw	r2,-12(fp)
 3043318:	10800044 	addi	r2,r2,1
 304331c:	e0bffd15 	stw	r2,-12(fp)
 3043320:	e0fffd17 	ldw	r3,-12(fp)
 3043324:	e0bffb17 	ldw	r2,-20(fp)
 3043328:	18bfef36 	bltu	r3,r2,30432e8 <fatArray2Value+0x30>
        
    }
    
    return nValue;
 304332c:	e0bffe17 	ldw	r2,-8(fp)
}
 3043330:	e037883a 	mov	sp,fp
 3043334:	df000017 	ldw	fp,0(sp)
 3043338:	dec00104 	addi	sp,sp,4
 304333c:	f800283a 	ret

03043340 <fatReadSecter>:

//=================================================================================
//// add in v2.0
bool fatReadSecter(VOLUME_INFO *pVol, alt_u32 nSecter){
 3043340:	defffb04 	addi	sp,sp,-20
 3043344:	dfc00415 	stw	ra,16(sp)
 3043348:	df000315 	stw	fp,12(sp)
 304334c:	df000304 	addi	fp,sp,12
 3043350:	e13ffe15 	stw	r4,-8(fp)
 3043354:	e17ffd15 	stw	r5,-12(fp)
    bool bSuccess = TRUE;
 3043358:	00800044 	movi	r2,1
 304335c:	e0bfffc5 	stb	r2,-1(fp)
    if (nSecter != pVol->Secter_Index){
 3043360:	e0bffe17 	ldw	r2,-8(fp)
 3043364:	10809017 	ldw	r2,576(r2)
 3043368:	e0fffd17 	ldw	r3,-12(fp)
 304336c:	18801426 	beq	r3,r2,30433c0 <fatReadSecter+0x80>
        if (!pVol->ReadBlock512(pVol->DiskHandle, nSecter, pVol->Secter_Data)){
 3043370:	e0bffe17 	ldw	r2,-8(fp)
 3043374:	10800117 	ldw	r2,4(r2)
 3043378:	e0fffe17 	ldw	r3,-8(fp)
 304337c:	19000017 	ldw	r4,0(r3)
 3043380:	e0fffe17 	ldw	r3,-8(fp)
 3043384:	18c01004 	addi	r3,r3,64
 3043388:	180d883a 	mov	r6,r3
 304338c:	e17ffd17 	ldw	r5,-12(fp)
 3043390:	103ee83a 	callr	r2
 3043394:	1080005c 	xori	r2,r2,1
 3043398:	10803fcc 	andi	r2,r2,255
 304339c:	10000526 	beq	r2,zero,30433b4 <fatReadSecter+0x74>
            pVol->Secter_Index = -1;
 30433a0:	e0bffe17 	ldw	r2,-8(fp)
 30433a4:	00ffffc4 	movi	r3,-1
 30433a8:	10c09015 	stw	r3,576(r2)
            bSuccess = FALSE;
 30433ac:	e03fffc5 	stb	zero,-1(fp)
 30433b0:	00000306 	br	30433c0 <fatReadSecter+0x80>
        }else{
            pVol->Secter_Index = nSecter;
 30433b4:	e0bffe17 	ldw	r2,-8(fp)
 30433b8:	e0fffd17 	ldw	r3,-12(fp)
 30433bc:	10c09015 	stw	r3,576(r2)
        }
    }
    return bSuccess;          
 30433c0:	e0bfffc3 	ldbu	r2,-1(fp)
}     
 30433c4:	e037883a 	mov	sp,fp
 30433c8:	dfc00117 	ldw	ra,4(sp)
 30433cc:	df000017 	ldw	fp,0(sp)
 30433d0:	dec00204 	addi	sp,sp,8
 30433d4:	f800283a 	ret

030433d8 <fatFindDirectory>:

//=================================================================================
//// add in v2.0
FAT_DIRECTORY* fatFindDirectory(VOLUME_INFO *pVol, alt_u32 nDirectoryIndex){
 30433d8:	defff804 	addi	sp,sp,-32
 30433dc:	dfc00715 	stw	ra,28(sp)
 30433e0:	df000615 	stw	fp,24(sp)
 30433e4:	df000604 	addi	fp,sp,24
 30433e8:	e13ffb15 	stw	r4,-20(fp)
 30433ec:	e17ffa15 	stw	r5,-24(fp)
    FAT_DIRECTORY *pDir=NULL;
 30433f0:	e03fff15 	stw	zero,-4(fp)
    alt_u32 nSecterOffset, nSecter, nByteOffset;
             
    nSecterOffset = (sizeof(FAT_DIRECTORY)*nDirectoryIndex)/pVol->BPB_BytsPerSec;
 30433f4:	e0bffa17 	ldw	r2,-24(fp)
 30433f8:	1006917a 	slli	r3,r2,5
 30433fc:	e0bffb17 	ldw	r2,-20(fp)
 3043400:	10800617 	ldw	r2,24(r2)
 3043404:	100b883a 	mov	r5,r2
 3043408:	1809883a 	mov	r4,r3
 304340c:	3048a240 	call	3048a24 <__udivsi3>
 3043410:	e0bffe15 	stw	r2,-8(fp)
    nSecter = pVol->RootDirectoryEntrySecter + nSecterOffset;
 3043414:	e0bffb17 	ldw	r2,-20(fp)
 3043418:	10800e17 	ldw	r2,56(r2)
 304341c:	e0fffe17 	ldw	r3,-8(fp)
 3043420:	1885883a 	add	r2,r3,r2
 3043424:	e0bffd15 	stw	r2,-12(fp)
        // read sector
    if (fatReadSecter(pVol, nSecter)){
 3043428:	e17ffd17 	ldw	r5,-12(fp)
 304342c:	e13ffb17 	ldw	r4,-20(fp)
 3043430:	30433400 	call	3043340 <fatReadSecter>
 3043434:	10803fcc 	andi	r2,r2,255
 3043438:	10000d26 	beq	r2,zero,3043470 <fatFindDirectory+0x98>
        nByteOffset = (sizeof(FAT_DIRECTORY)*nDirectoryIndex)%pVol->BPB_BytsPerSec; 
 304343c:	e0bffa17 	ldw	r2,-24(fp)
 3043440:	1006917a 	slli	r3,r2,5
 3043444:	e0bffb17 	ldw	r2,-20(fp)
 3043448:	10800617 	ldw	r2,24(r2)
 304344c:	100b883a 	mov	r5,r2
 3043450:	1809883a 	mov	r4,r3
 3043454:	3048a880 	call	3048a88 <__umodsi3>
 3043458:	e0bffc15 	stw	r2,-16(fp)
        pDir = (FAT_DIRECTORY *)(pVol->Secter_Data + nByteOffset);
 304345c:	e0bffb17 	ldw	r2,-20(fp)
 3043460:	10c01004 	addi	r3,r2,64
 3043464:	e0bffc17 	ldw	r2,-16(fp)
 3043468:	1885883a 	add	r2,r3,r2
 304346c:	e0bfff15 	stw	r2,-4(fp)
    }        
        
    return pDir;        
 3043470:	e0bfff17 	ldw	r2,-4(fp)
}
 3043474:	e037883a 	mov	sp,fp
 3043478:	dfc00117 	ldw	ra,4(sp)
 304347c:	df000017 	ldw	fp,0(sp)
 3043480:	dec00204 	addi	sp,sp,8
 3043484:	f800283a 	ret

03043488 <fatFindUnusedDirectory>:

//=================================================================================
//// add in v2.0
alt_u32 fatFindUnusedDirectory(VOLUME_INFO *pVol){
 3043488:	defff604 	addi	sp,sp,-40
 304348c:	dfc00915 	stw	ra,36(sp)
 3043490:	df000815 	stw	fp,32(sp)
 3043494:	df000804 	addi	fp,sp,32
 3043498:	e13ff815 	stw	r4,-32(fp)
    alt_u32 Dir = -1;
 304349c:	00bfffc4 	movi	r2,-1
 30434a0:	e0bfff15 	stw	r2,-4(fp)
    FAT_DIRECTORY *pDir=NULL;
 30434a4:	e03ffc15 	stw	zero,-16(fp)
    alt_u32 nSecterOffset, nSecter, nByteOffset;
    alt_u32 nDirectoryIndex = 2; //??? start from ?
 30434a8:	00800084 	movi	r2,2
 30434ac:	e0bffe15 	stw	r2,-8(fp)
    bool bDone = FALSE;
 30434b0:	e03ffdc5 	stb	zero,-9(fp)
             
    while(!bDone){             
 30434b4:	00003406 	br	3043588 <fatFindUnusedDirectory+0x100>
        nSecterOffset = (sizeof(FAT_DIRECTORY)*nDirectoryIndex)/pVol->BPB_BytsPerSec;
 30434b8:	e0bffe17 	ldw	r2,-8(fp)
 30434bc:	1006917a 	slli	r3,r2,5
 30434c0:	e0bff817 	ldw	r2,-32(fp)
 30434c4:	10800617 	ldw	r2,24(r2)
 30434c8:	100b883a 	mov	r5,r2
 30434cc:	1809883a 	mov	r4,r3
 30434d0:	3048a240 	call	3048a24 <__udivsi3>
 30434d4:	e0bffb15 	stw	r2,-20(fp)
        nSecter = pVol->RootDirectoryEntrySecter + nSecterOffset;
 30434d8:	e0bff817 	ldw	r2,-32(fp)
 30434dc:	10800e17 	ldw	r2,56(r2)
 30434e0:	e0fffb17 	ldw	r3,-20(fp)
 30434e4:	1885883a 	add	r2,r3,r2
 30434e8:	e0bffa15 	stw	r2,-24(fp)
            // read sector
        if (fatReadSecter(pVol, nSecter)){
 30434ec:	e17ffa17 	ldw	r5,-24(fp)
 30434f0:	e13ff817 	ldw	r4,-32(fp)
 30434f4:	30433400 	call	3043340 <fatReadSecter>
 30434f8:	10803fcc 	andi	r2,r2,255
 30434fc:	10002126 	beq	r2,zero,3043584 <fatFindUnusedDirectory+0xfc>
            nByteOffset = (sizeof(FAT_DIRECTORY)*nDirectoryIndex)%pVol->BPB_BytsPerSec; 
 3043500:	e0bffe17 	ldw	r2,-8(fp)
 3043504:	1006917a 	slli	r3,r2,5
 3043508:	e0bff817 	ldw	r2,-32(fp)
 304350c:	10800617 	ldw	r2,24(r2)
 3043510:	100b883a 	mov	r5,r2
 3043514:	1809883a 	mov	r4,r3
 3043518:	3048a880 	call	3048a88 <__umodsi3>
 304351c:	e0bff915 	stw	r2,-28(fp)
            pDir = (FAT_DIRECTORY *)(pVol->Secter_Data + nByteOffset);
 3043520:	e0bff817 	ldw	r2,-32(fp)
 3043524:	10c01004 	addi	r3,r2,64
 3043528:	e0bff917 	ldw	r2,-28(fp)
 304352c:	1885883a 	add	r2,r3,r2
 3043530:	e0bffc15 	stw	r2,-16(fp)
            if (fatIsLastDir(pDir) || fatIsUnusedDir(pDir)){
 3043534:	e13ffc17 	ldw	r4,-16(fp)
 3043538:	3042a600 	call	3042a60 <fatIsLastDir>
 304353c:	10803fcc 	andi	r2,r2,255
 3043540:	1000041e 	bne	r2,zero,3043554 <fatFindUnusedDirectory+0xcc>
 3043544:	e13ffc17 	ldw	r4,-16(fp)
 3043548:	3042b480 	call	3042b48 <fatIsUnusedDir>
 304354c:	10803fcc 	andi	r2,r2,255
 3043550:	10000826 	beq	r2,zero,3043574 <fatFindUnusedDirectory+0xec>
                bDone = TRUE;
 3043554:	00800044 	movi	r2,1
 3043558:	e0bffdc5 	stb	r2,-9(fp)
                if (fatIsUnusedDir(pDir))
 304355c:	e13ffc17 	ldw	r4,-16(fp)
 3043560:	3042b480 	call	3042b48 <fatIsUnusedDir>
 3043564:	10803fcc 	andi	r2,r2,255
 3043568:	10000226 	beq	r2,zero,3043574 <fatFindUnusedDirectory+0xec>
                    Dir = nDirectoryIndex;
 304356c:	e0bffe17 	ldw	r2,-8(fp)
 3043570:	e0bfff15 	stw	r2,-4(fp)
            }
            nDirectoryIndex++;        
 3043574:	e0bffe17 	ldw	r2,-8(fp)
 3043578:	10800044 	addi	r2,r2,1
 304357c:	e0bffe15 	stw	r2,-8(fp)
 3043580:	00000106 	br	3043588 <fatFindUnusedDirectory+0x100>
        }else{
                bDone = FALSE;
 3043584:	e03ffdc5 	stb	zero,-9(fp)
    while(!bDone){             
 3043588:	e0bffdc3 	ldbu	r2,-9(fp)
 304358c:	1080005c 	xori	r2,r2,1
 3043590:	10803fcc 	andi	r2,r2,255
 3043594:	103fc81e 	bne	r2,zero,30434b8 <fatFindUnusedDirectory+0x30>
        }
    }             
    
    return Dir;      
 3043598:	e0bfff17 	ldw	r2,-4(fp)
}
 304359c:	e037883a 	mov	sp,fp
 30435a0:	dfc00117 	ldw	ra,4(sp)
 30435a4:	df000017 	ldw	fp,0(sp)
 30435a8:	dec00204 	addi	sp,sp,8
 30435ac:	f800283a 	ret

030435b0 <fatMount>:

//=================================================================================
bool fatMount(VOLUME_INFO *pVol){
 30435b0:	deff7604 	addi	sp,sp,-552
 30435b4:	dfc08915 	stw	ra,548(sp)
 30435b8:	df008815 	stw	fp,544(sp)
 30435bc:	dc008715 	stw	r16,540(sp)
 30435c0:	df008804 	addi	fp,sp,544
 30435c4:	e13f7815 	stw	r4,-544(fp)
    bool bSuccess = TRUE;
 30435c8:	00800044 	movi	r2,1
 30435cc:	e0bffec5 	stb	r2,-5(fp)
    // 1DEh( 16 bytes): 3nd Partition Entry
    // 1EEh( 16 bytes): 4nd Partition Entry
    // 1FEh(  2 bytes): Executable Maker (55h AAh)
    
    // read first block (secotor 0), BPB(BIOS Parameter Block) or called as boot sector or reserved sector
    if (!pVol->ReadBlock512(pVol->DiskHandle, 0, szBlock)){
 30435d0:	e0bf7817 	ldw	r2,-544(fp)
 30435d4:	10800117 	ldw	r2,4(r2)
 30435d8:	e0ff7817 	ldw	r3,-544(fp)
 30435dc:	18c00017 	ldw	r3,0(r3)
 30435e0:	e13f7904 	addi	r4,fp,-540
 30435e4:	200d883a 	mov	r6,r4
 30435e8:	000b883a 	mov	r5,zero
 30435ec:	1809883a 	mov	r4,r3
 30435f0:	103ee83a 	callr	r2
 30435f4:	1080005c 	xori	r2,r2,1
 30435f8:	10803fcc 	andi	r2,r2,255
 30435fc:	10000826 	beq	r2,zero,3043620 <fatMount+0x70>
        FAT_DEBUG(("Read section 0 error.\n"));
 3043600:	0100c1b4 	movhi	r4,774
 3043604:	213f3704 	addi	r4,r4,-804
 3043608:	30450c80 	call	30450c8 <myprintf>
 304360c:	0100c1b4 	movhi	r4,774
 3043610:	213fb304 	addi	r4,r4,-308
 3043614:	30450c80 	call	30450c8 <myprintf>
        return FALSE;
 3043618:	0005883a 	mov	r2,zero
 304361c:	0000da06 	br	3043988 <fatMount+0x3d8>
        return FALSE;
    }
    */
        
    // check file system 
    FirstPartitionEntry = 0x1BE;
 3043620:	00806f84 	movi	r2,446
 3043624:	e0bffd15 	stw	r2,-12(fp)
    //PartitionType = szBlock[FirstPartitionEntry + 4];
    PartitionType = szBlock[0x01C2];
 3043628:	e0bfe983 	ldbu	r2,-90(fp)
 304362c:	10803fcc 	andi	r2,r2,255
 3043630:	e0bffc15 	stw	r2,-16(fp)
    if (PartitionType == PARTITION_FAT16){
 3043634:	e0bffc17 	ldw	r2,-16(fp)
 3043638:	10800198 	cmpnei	r2,r2,6
 304363c:	1000071e 	bne	r2,zero,304365c <fatMount+0xac>
        FAT_DEBUG(("FAT16\n"));
 3043640:	0100c1b4 	movhi	r4,774
 3043644:	213f3704 	addi	r4,r4,-804
 3043648:	30450c80 	call	30450c8 <myprintf>
 304364c:	0100c1b4 	movhi	r4,774
 3043650:	213fb904 	addi	r4,r4,-284
 3043654:	30450c80 	call	30450c8 <myprintf>
 3043658:	00001306 	br	30436a8 <fatMount+0xf8>
    }else if (PartitionType == PARTITION_FAT32){
 304365c:	e0bffc17 	ldw	r2,-16(fp)
 3043660:	108002d8 	cmpnei	r2,r2,11
 3043664:	1000071e 	bne	r2,zero,3043684 <fatMount+0xd4>
        FAT_DEBUG(("FAT32\n"));
 3043668:	0100c1b4 	movhi	r4,774
 304366c:	213f3704 	addi	r4,r4,-804
 3043670:	30450c80 	call	30450c8 <myprintf>
 3043674:	0100c1b4 	movhi	r4,774
 3043678:	213fbb04 	addi	r4,r4,-276
 304367c:	30450c80 	call	30450c8 <myprintf>
 3043680:	00000906 	br	30436a8 <fatMount+0xf8>
    }else{        
        FAT_DEBUG(("the partition type(%d) is not supported.\n", PartitionType));
 3043684:	0100c1b4 	movhi	r4,774
 3043688:	213f3704 	addi	r4,r4,-804
 304368c:	30450c80 	call	30450c8 <myprintf>
 3043690:	e17ffc17 	ldw	r5,-16(fp)
 3043694:	0100c1b4 	movhi	r4,774
 3043698:	213fbd04 	addi	r4,r4,-268
 304369c:	30450c80 	call	30450c8 <myprintf>
        return FALSE; // only support FAT16 in this example
 30436a0:	0005883a 	mov	r2,zero
 30436a4:	0000b806 	br	3043988 <fatMount+0x3d8>
    }       
    pVol->Partition_Type = PartitionType; 
 30436a8:	e0fffc17 	ldw	r3,-16(fp)
 30436ac:	e0bf7817 	ldw	r2,-544(fp)
 30436b0:	10c00315 	stw	r3,12(r2)
    // 2.2 Find the first section of partition 1                    
    FirstSectionInVolume1 = fatArray2Value(&szBlock[FirstPartitionEntry + 8],4);
 30436b4:	e0bffd17 	ldw	r2,-12(fp)
 30436b8:	10800204 	addi	r2,r2,8
 30436bc:	e0ff7904 	addi	r3,fp,-540
 30436c0:	1885883a 	add	r2,r3,r2
 30436c4:	01400104 	movi	r5,4
 30436c8:	1009883a 	mov	r4,r2
 30436cc:	30432b80 	call	30432b8 <fatArray2Value>
 30436d0:	e0bffb15 	stw	r2,-20(fp)
                            //szBlock[FirstPartitionEntry + 8 + 1]*256 + 
                            //szBlock[FirstPartitionEntry + 8];        
    
    //3 Parsing the Volume Boot Record(BR)
    //3.1  Read the Volume Boot Record(BR)
    if (!pVol->ReadBlock512(pVol->DiskHandle, FirstSectionInVolume1, szBlock)){
 30436d4:	e0bf7817 	ldw	r2,-544(fp)
 30436d8:	10800117 	ldw	r2,4(r2)
 30436dc:	e0ff7817 	ldw	r3,-544(fp)
 30436e0:	18c00017 	ldw	r3,0(r3)
 30436e4:	e13ffb17 	ldw	r4,-20(fp)
 30436e8:	e17f7904 	addi	r5,fp,-540
 30436ec:	280d883a 	mov	r6,r5
 30436f0:	200b883a 	mov	r5,r4
 30436f4:	1809883a 	mov	r4,r3
 30436f8:	103ee83a 	callr	r2
 30436fc:	1080005c 	xori	r2,r2,1
 3043700:	10803fcc 	andi	r2,r2,255
 3043704:	10000826 	beq	r2,zero,3043728 <fatMount+0x178>
        FAT_DEBUG(("Read first sector in volume one fail.\n"));
 3043708:	0100c1b4 	movhi	r4,774
 304370c:	213f3704 	addi	r4,r4,-804
 3043710:	30450c80 	call	30450c8 <myprintf>
 3043714:	0100c1b4 	movhi	r4,774
 3043718:	213fc804 	addi	r4,r4,-224
 304371c:	30450c80 	call	30450c8 <myprintf>
        return FALSE;
 3043720:	0005883a 	mov	r2,zero
 3043724:	00009806 	br	3043988 <fatMount+0x3d8>
    }        
    pVol->PartitionStartSecter = FirstSectionInVolume1;     
 3043728:	e0fffb17 	ldw	r3,-20(fp)
 304372c:	e0bf7817 	ldw	r2,-544(fp)
 3043730:	10c00515 	stw	r3,20(r2)
    pVol->BPB_BytsPerSec = szBlock[0x0B+1]*256 + szBlock[0x0B];
 3043734:	e0bf7c03 	ldbu	r2,-528(fp)
 3043738:	10803fcc 	andi	r2,r2,255
 304373c:	1006923a 	slli	r3,r2,8
 3043740:	e0bf7bc3 	ldbu	r2,-529(fp)
 3043744:	10803fcc 	andi	r2,r2,255
 3043748:	1885883a 	add	r2,r3,r2
 304374c:	1007883a 	mov	r3,r2
 3043750:	e0bf7817 	ldw	r2,-544(fp)
 3043754:	10c00615 	stw	r3,24(r2)
    pVol->BPB_SecPerCluster = szBlock[0x0D];
 3043758:	e0bf7c43 	ldbu	r2,-527(fp)
 304375c:	10c03fcc 	andi	r3,r2,255
 3043760:	e0bf7817 	ldw	r2,-544(fp)
 3043764:	10c00715 	stw	r3,28(r2)
    pVol->BPB_RsvdSecCnt = szBlock[0x0E + 1]*256 + szBlock[0x0E]; 
 3043768:	e0bf7cc3 	ldbu	r2,-525(fp)
 304376c:	10803fcc 	andi	r2,r2,255
 3043770:	1006923a 	slli	r3,r2,8
 3043774:	e0bf7c83 	ldbu	r2,-526(fp)
 3043778:	10803fcc 	andi	r2,r2,255
 304377c:	1885883a 	add	r2,r3,r2
 3043780:	1007883a 	mov	r3,r2
 3043784:	e0bf7817 	ldw	r2,-544(fp)
 3043788:	10c00815 	stw	r3,32(r2)
    pVol->BPB_NumFATs = szBlock[0x10];
 304378c:	e0bf7d03 	ldbu	r2,-524(fp)
 3043790:	10c03fcc 	andi	r3,r2,255
 3043794:	e0bf7817 	ldw	r2,-544(fp)
 3043798:	10c00915 	stw	r3,36(r2)
    pVol->BPB_RootEntCnt = szBlock[0x11+1]*256 + szBlock[0x11]; 
 304379c:	e0bf7d83 	ldbu	r2,-522(fp)
 30437a0:	10803fcc 	andi	r2,r2,255
 30437a4:	1006923a 	slli	r3,r2,8
 30437a8:	e0bf7d43 	ldbu	r2,-523(fp)
 30437ac:	10803fcc 	andi	r2,r2,255
 30437b0:	1885883a 	add	r2,r3,r2
 30437b4:	1007883a 	mov	r3,r2
 30437b8:	e0bf7817 	ldw	r2,-544(fp)
 30437bc:	10c00a15 	stw	r3,40(r2)
    pVol->BPB_FATSz = szBlock[0x16+1]*256 + szBlock[0x16];
 30437c0:	e0bf7ec3 	ldbu	r2,-517(fp)
 30437c4:	10803fcc 	andi	r2,r2,255
 30437c8:	1006923a 	slli	r3,r2,8
 30437cc:	e0bf7e83 	ldbu	r2,-518(fp)
 30437d0:	10803fcc 	andi	r2,r2,255
 30437d4:	1885883a 	add	r2,r3,r2
 30437d8:	1007883a 	mov	r3,r2
 30437dc:	e0bf7817 	ldw	r2,-544(fp)
 30437e0:	10c00b15 	stw	r3,44(r2)
    
    // add for v2.0
    pVol->Secter_Index = -1;
 30437e4:	e0bf7817 	ldw	r2,-544(fp)
 30437e8:	00ffffc4 	movi	r3,-1
 30437ec:	10c09015 	stw	r3,576(r2)
    memset(pVol->Secter_Data, 0, MY_SECTER_SIZE); // 512 bytes
 30437f0:	e0bf7817 	ldw	r2,-544(fp)
 30437f4:	10801004 	addi	r2,r2,64
 30437f8:	01808004 	movi	r6,512
 30437fc:	000b883a 	mov	r5,zero
 3043800:	1009883a 	mov	r4,r2
 3043804:	304bf140 	call	304bf14 <memset>
    
    if (pVol->Partition_Type == PARTITION_FAT32){
 3043808:	e0bf7817 	ldw	r2,-544(fp)
 304380c:	10800317 	ldw	r2,12(r2)
 3043810:	108002d8 	cmpnei	r2,r2,11
 3043814:	1000081e 	bne	r2,zero,3043838 <fatMount+0x288>
        pVol->BPB_FATSz = fatArray2Value(&szBlock[0x24], 4);  // BPB_FATSz32
 3043818:	e0bf7904 	addi	r2,fp,-540
 304381c:	10800904 	addi	r2,r2,36
 3043820:	01400104 	movi	r5,4
 3043824:	1009883a 	mov	r4,r2
 3043828:	30432b80 	call	30432b8 <fatArray2Value>
 304382c:	1007883a 	mov	r3,r2
 3043830:	e0bf7817 	ldw	r2,-544(fp)
 3043834:	10c00b15 	stw	r3,44(r2)
        //pVol->BPB_RootEntCnt = fatArray2Value(&szBlock[0x2C], 4);  // BPB_RootClus            
    }
    
    if (pVol->BPB_BytsPerSec != MY_SECTER_SIZE){
 3043838:	e0bf7817 	ldw	r2,-544(fp)
 304383c:	10800617 	ldw	r2,24(r2)
 3043840:	10808020 	cmpeqi	r2,r2,512
 3043844:	1000091e 	bne	r2,zero,304386c <fatMount+0x2bc>
        FAT_DEBUG(("This program only supports FAT BPB_BytsPerSec == %d\n", MY_SECTER_SIZE));
 3043848:	0100c1b4 	movhi	r4,774
 304384c:	213f3704 	addi	r4,r4,-804
 3043850:	30450c80 	call	30450c8 <myprintf>
 3043854:	01408004 	movi	r5,512
 3043858:	0100c1b4 	movhi	r4,774
 304385c:	213fd204 	addi	r4,r4,-184
 3043860:	30450c80 	call	30450c8 <myprintf>
        return FALSE; // only support FAT16 in this example
 3043864:	0005883a 	mov	r2,zero
 3043868:	00004706 	br	3043988 <fatMount+0x3d8>
    FAT_DEBUG(("Number of Copyies of FAT: %02Xh(%d)\n", gVolumeInfo.BPB_NumFATs, gVolumeInfo.BPB_NumFATs));
    FAT_DEBUG(("Maxmun Root Directory Entries: %04Xh(%d)\n", gVolumeInfo.BPB_RootEntCnt, gVolumeInfo.BPB_RootEntCnt));
    FAT_DEBUG(("Sectors Per FAT: %04Xh(%d)\n", gVolumeInfo.BPB_FATSz, gVolumeInfo.BPB_FATSz));
#endif    
    //
    pVol->FatEntrySecter = pVol->PartitionStartSecter + pVol->BPB_RsvdSecCnt;
 304386c:	e0bf7817 	ldw	r2,-544(fp)
 3043870:	10c00517 	ldw	r3,20(r2)
 3043874:	e0bf7817 	ldw	r2,-544(fp)
 3043878:	10800817 	ldw	r2,32(r2)
 304387c:	1887883a 	add	r3,r3,r2
 3043880:	e0bf7817 	ldw	r2,-544(fp)
 3043884:	10c00d15 	stw	r3,52(r2)
    pVol->RootDirectoryEntrySecter = pVol->FatEntrySecter + pVol->BPB_NumFATs * pVol->BPB_FATSz;
 3043888:	e0bf7817 	ldw	r2,-544(fp)
 304388c:	10c00d17 	ldw	r3,52(r2)
 3043890:	e0bf7817 	ldw	r2,-544(fp)
 3043894:	11000917 	ldw	r4,36(r2)
 3043898:	e0bf7817 	ldw	r2,-544(fp)
 304389c:	10800b17 	ldw	r2,44(r2)
 30438a0:	2085383a 	mul	r2,r4,r2
 30438a4:	1887883a 	add	r3,r3,r2
 30438a8:	e0bf7817 	ldw	r2,-544(fp)
 30438ac:	10c00e15 	stw	r3,56(r2)
    pVol->DataEntrySecter = pVol->RootDirectoryEntrySecter + ((pVol->BPB_RootEntCnt*32)+(pVol->BPB_BytsPerSec-1))/pVol->BPB_BytsPerSec;
 30438b0:	e0bf7817 	ldw	r2,-544(fp)
 30438b4:	14000e17 	ldw	r16,56(r2)
 30438b8:	e0bf7817 	ldw	r2,-544(fp)
 30438bc:	10800a17 	ldw	r2,40(r2)
 30438c0:	1006917a 	slli	r3,r2,5
 30438c4:	e0bf7817 	ldw	r2,-544(fp)
 30438c8:	10800617 	ldw	r2,24(r2)
 30438cc:	1885883a 	add	r2,r3,r2
 30438d0:	10ffffc4 	addi	r3,r2,-1
 30438d4:	e0bf7817 	ldw	r2,-544(fp)
 30438d8:	10800617 	ldw	r2,24(r2)
 30438dc:	100b883a 	mov	r5,r2
 30438e0:	1809883a 	mov	r4,r3
 30438e4:	3048a240 	call	3048a24 <__udivsi3>
 30438e8:	8087883a 	add	r3,r16,r2
 30438ec:	e0bf7817 	ldw	r2,-544(fp)
 30438f0:	10c00f15 	stw	r3,60(r2)
    
    // read FAT table into memory
    pVol->nBytesPerCluster = pVol->BPB_BytsPerSec * pVol->BPB_SecPerCluster;
 30438f4:	e0bf7817 	ldw	r2,-544(fp)
 30438f8:	10c00617 	ldw	r3,24(r2)
 30438fc:	e0bf7817 	ldw	r2,-544(fp)
 3043900:	10800717 	ldw	r2,28(r2)
 3043904:	1887383a 	mul	r3,r3,r2
 3043908:	e0bf7817 	ldw	r2,-544(fp)
 304390c:	10c00c15 	stw	r3,48(r2)
    nFatTableSecterNum = pVol->BPB_NumFATs * pVol->BPB_FATSz;
 3043910:	e0bf7817 	ldw	r2,-544(fp)
 3043914:	10c00917 	ldw	r3,36(r2)
 3043918:	e0bf7817 	ldw	r2,-544(fp)
 304391c:	10800b17 	ldw	r2,44(r2)
 3043920:	1885383a 	mul	r2,r3,r2
 3043924:	e0bffa15 	stw	r2,-24(fp)
    nFatTableSize = nFatTableSecterNum * pVol->BPB_BytsPerSec;
 3043928:	e0bf7817 	ldw	r2,-544(fp)
 304392c:	10c00617 	ldw	r3,24(r2)
 3043930:	e0bffa17 	ldw	r2,-24(fp)
 3043934:	1885383a 	mul	r2,r3,r2
 3043938:	e0bff915 	stw	r2,-28(fp)
        pVol->szFatTable = 0;
    }
#endif    
    
  
    if (bSuccess){
 304393c:	e0bffec3 	ldbu	r2,-5(fp)
 3043940:	10000726 	beq	r2,zero,3043960 <fatMount+0x3b0>
        FAT_DEBUG(("Fat_Mount success\n"));
 3043944:	0100c1b4 	movhi	r4,774
 3043948:	213f3704 	addi	r4,r4,-804
 304394c:	30450c80 	call	30450c8 <myprintf>
 3043950:	0100c1b4 	movhi	r4,774
 3043954:	213fe004 	addi	r4,r4,-128
 3043958:	30450c80 	call	30450c8 <myprintf>
 304395c:	00000606 	br	3043978 <fatMount+0x3c8>
    }else{        
        FAT_DEBUG(("Fat_Mount fail\n"));
 3043960:	0100c1b4 	movhi	r4,774
 3043964:	213f3704 	addi	r4,r4,-804
 3043968:	30450c80 	call	30450c8 <myprintf>
 304396c:	0100c1b4 	movhi	r4,774
 3043970:	213fe504 	addi	r4,r4,-108
 3043974:	30450c80 	call	30450c8 <myprintf>
    }        
    pVol->bMount = bSuccess;
 3043978:	e0bf7817 	ldw	r2,-544(fp)
 304397c:	e0fffec3 	ldbu	r3,-5(fp)
 3043980:	10c00405 	stb	r3,16(r2)
    return bSuccess;   
 3043984:	e0bffec3 	ldbu	r2,-5(fp)
    

}
 3043988:	e6ffff04 	addi	sp,fp,-4
 304398c:	dfc00217 	ldw	ra,8(sp)
 3043990:	df000117 	ldw	fp,4(sp)
 3043994:	dc000017 	ldw	r16,0(sp)
 3043998:	dec00304 	addi	sp,sp,12
 304399c:	f800283a 	ret

030439a0 <SD_ReadBlock512>:

//===================== SUPPORT_SD_CARD =================================================
#ifdef SUPPORT_SD_CARD

bool SD_ReadBlock512(DISK_HANDLE DiskHandle, alt_u32 PysicalSelector, alt_u8 szBuf[512]){
 30439a0:	defffb04 	addi	sp,sp,-20
 30439a4:	dfc00415 	stw	ra,16(sp)
 30439a8:	df000315 	stw	fp,12(sp)
 30439ac:	df000304 	addi	fp,sp,12
 30439b0:	e13fff15 	stw	r4,-4(fp)
 30439b4:	e17ffe15 	stw	r5,-8(fp)
 30439b8:	e1bffd15 	stw	r6,-12(fp)
    return SDLIB_ReadBlock512(PysicalSelector, szBuf);
 30439bc:	e17ffd17 	ldw	r5,-12(fp)
 30439c0:	e13ffe17 	ldw	r4,-8(fp)
 30439c4:	30471d40 	call	30471d4 <SDLIB_ReadBlock512>
}
 30439c8:	e037883a 	mov	sp,fp
 30439cc:	dfc00117 	ldw	ra,4(sp)
 30439d0:	df000017 	ldw	fp,0(sp)
 30439d4:	dec00204 	addi	sp,sp,8
 30439d8:	f800283a 	ret

030439dc <SD_WriteBlock512>:

bool SD_WriteBlock512(DISK_HANDLE DiskHandle, alt_u32 PysicalSelector, alt_u8 szBuf[512]){
 30439dc:	defffb04 	addi	sp,sp,-20
 30439e0:	dfc00415 	stw	ra,16(sp)
 30439e4:	df000315 	stw	fp,12(sp)
 30439e8:	df000304 	addi	fp,sp,12
 30439ec:	e13fff15 	stw	r4,-4(fp)
 30439f0:	e17ffe15 	stw	r5,-8(fp)
 30439f4:	e1bffd15 	stw	r6,-12(fp)
    return SDLIB_WriteBlock512(PysicalSelector, szBuf);
 30439f8:	e17ffd17 	ldw	r5,-12(fp)
 30439fc:	e13ffe17 	ldw	r4,-8(fp)
 3043a00:	30472500 	call	3047250 <SDLIB_WriteBlock512>
}
 3043a04:	e037883a 	mov	sp,fp
 3043a08:	dfc00117 	ldw	ra,4(sp)
 3043a0c:	df000017 	ldw	fp,0(sp)
 3043a10:	dec00204 	addi	sp,sp,8
 3043a14:	f800283a 	ret

03043a18 <fatMountSdcard>:

FAT_HANDLE fatMountSdcard(void){
 3043a18:	defff804 	addi	sp,sp,-32
 3043a1c:	dfc00715 	stw	ra,28(sp)
 3043a20:	df000615 	stw	fp,24(sp)
 3043a24:	df000604 	addi	fp,sp,24
    FAT_HANDLE hFat = 0;
 3043a28:	e03fff15 	stw	zero,-4(fp)
    VOLUME_INFO *pVol;
    const int nMaxTry=10;
 3043a2c:	00800284 	movi	r2,10
 3043a30:	e0bffc15 	stw	r2,-16(fp)
    bool bFind = FALSE;
 3043a34:	e03ffec5 	stb	zero,-5(fp)
    int nTry=0;
 3043a38:	e03ffd15 	stw	zero,-12(fp)
    bool bSuccess = TRUE;
 3043a3c:	00800044 	movi	r2,1
 3043a40:	e0bffbc5 	stb	r2,-17(fp)
    
        
    //1. chek whether SD Card existed. Init SD card if it is present.
    while(!bFind && nTry++ < nMaxTry){
 3043a44:	00000906 	br	3043a6c <fatMountSdcard+0x54>
        bFind = SDLIB_Init();
 3043a48:	3046e9c0 	call	3046e9c <SDLIB_Init>
 3043a4c:	e0bffec5 	stb	r2,-5(fp)
        if (!bFind)
 3043a50:	e0bffec3 	ldbu	r2,-5(fp)
 3043a54:	1080005c 	xori	r2,r2,1
 3043a58:	10803fcc 	andi	r2,r2,255
 3043a5c:	10000326 	beq	r2,zero,3043a6c <fatMountSdcard+0x54>
            usleep(100*1000);
 3043a60:	010000b4 	movhi	r4,2
 3043a64:	2121a804 	addi	r4,r4,-31072
 3043a68:	305b02c0 	call	305b02c <usleep>
    while(!bFind && nTry++ < nMaxTry){
 3043a6c:	e0bffec3 	ldbu	r2,-5(fp)
 3043a70:	1080005c 	xori	r2,r2,1
 3043a74:	10803fcc 	andi	r2,r2,255
 3043a78:	10000526 	beq	r2,zero,3043a90 <fatMountSdcard+0x78>
 3043a7c:	e0bffd17 	ldw	r2,-12(fp)
 3043a80:	10c00044 	addi	r3,r2,1
 3043a84:	e0fffd15 	stw	r3,-12(fp)
 3043a88:	e0fffc17 	ldw	r3,-16(fp)
 3043a8c:	10ffee16 	blt	r2,r3,3043a48 <fatMountSdcard+0x30>
    }
    if (!bFind){
 3043a90:	e0bffec3 	ldbu	r2,-5(fp)
 3043a94:	1080005c 	xori	r2,r2,1
 3043a98:	10803fcc 	andi	r2,r2,255
 3043a9c:	10000826 	beq	r2,zero,3043ac0 <fatMountSdcard+0xa8>
        FAT_DEBUG(("Cannot find SD card.\n"));
 3043aa0:	0100c1b4 	movhi	r4,774
 3043aa4:	213f3704 	addi	r4,r4,-804
 3043aa8:	30450c80 	call	30450c8 <myprintf>
 3043aac:	0100c1b4 	movhi	r4,774
 3043ab0:	213fe904 	addi	r4,r4,-92
 3043ab4:	30450c80 	call	30450c8 <myprintf>
        return hFat;
 3043ab8:	e0bfff17 	ldw	r2,-4(fp)
 3043abc:	00002606 	br	3043b58 <fatMountSdcard+0x140>
    }    
    
    hFat = malloc(sizeof(VOLUME_INFO));
 3043ac0:	01009104 	movi	r4,580
 3043ac4:	304b6140 	call	304b614 <malloc>
 3043ac8:	e0bfff15 	stw	r2,-4(fp)
    pVol = (VOLUME_INFO *)hFat;
 3043acc:	e0bfff17 	ldw	r2,-4(fp)
 3043ad0:	e0bffa15 	stw	r2,-24(fp)
    pVol->ReadBlock512 = SD_ReadBlock512;
 3043ad4:	e0fffa17 	ldw	r3,-24(fp)
 3043ad8:	0080c134 	movhi	r2,772
 3043adc:	108e6804 	addi	r2,r2,14752
 3043ae0:	18800115 	stw	r2,4(r3)
    pVol->WriteBlock512 = SD_WriteBlock512;
 3043ae4:	e0fffa17 	ldw	r3,-24(fp)
 3043ae8:	0080c134 	movhi	r2,772
 3043aec:	108e7704 	addi	r2,r2,14812
 3043af0:	18800215 	stw	r2,8(r3)
    bSuccess = fatMount(pVol);
 3043af4:	e13ffa17 	ldw	r4,-24(fp)
 3043af8:	30435b00 	call	30435b0 <fatMount>
 3043afc:	e0bffbc5 	stb	r2,-17(fp)
        
    
  
    if (bSuccess){
 3043b00:	e0bffbc3 	ldbu	r2,-17(fp)
 3043b04:	10000a26 	beq	r2,zero,3043b30 <fatMountSdcard+0x118>
        FAT_DEBUG(("Fat_Mount success\n"));
 3043b08:	0100c1b4 	movhi	r4,774
 3043b0c:	213f3704 	addi	r4,r4,-804
 3043b10:	30450c80 	call	30450c8 <myprintf>
 3043b14:	0100c1b4 	movhi	r4,774
 3043b18:	213fe004 	addi	r4,r4,-128
 3043b1c:	30450c80 	call	30450c8 <myprintf>
        pVol->bMount = TRUE;
 3043b20:	e0bffa17 	ldw	r2,-24(fp)
 3043b24:	00c00044 	movi	r3,1
 3043b28:	10c00405 	stb	r3,16(r2)
 3043b2c:	00000906 	br	3043b54 <fatMountSdcard+0x13c>
    }else{        
        FAT_DEBUG(("Fat_Mount fail\n"));
 3043b30:	0100c1b4 	movhi	r4,774
 3043b34:	213f3704 	addi	r4,r4,-804
 3043b38:	30450c80 	call	30450c8 <myprintf>
 3043b3c:	0100c1b4 	movhi	r4,774
 3043b40:	213fe504 	addi	r4,r4,-108
 3043b44:	30450c80 	call	30450c8 <myprintf>
        free((void *)hFat);
 3043b48:	e13fff17 	ldw	r4,-4(fp)
 3043b4c:	304b6240 	call	304b624 <free>
        hFat = 0;
 3043b50:	e03fff15 	stw	zero,-4(fp)
    }        

    return hFat;   
 3043b54:	e0bfff17 	ldw	r2,-4(fp)
}
 3043b58:	e037883a 	mov	sp,fp
 3043b5c:	dfc00117 	ldw	ra,4(sp)
 3043b60:	df000017 	ldw	fp,0(sp)
 3043b64:	dec00204 	addi	sp,sp,8
 3043b68:	f800283a 	ret

03043b6c <I2C_Write>:
bool i2c_write(alt_u32 clk_base, alt_u32 data_base, alt_u8 Data);
void i2c_read(alt_u32 clk_base, alt_u32 data_base, alt_u8 *pData, bool bAck);



bool I2C_Write(alt_u32 clk_base, alt_u32 data_base, alt_8 DeviceAddr, alt_u8 ControlAddr, alt_u8 ControlData){
 3043b6c:	defff804 	addi	sp,sp,-32
 3043b70:	dfc00715 	stw	ra,28(sp)
 3043b74:	df000615 	stw	fp,24(sp)
 3043b78:	df000604 	addi	fp,sp,24
 3043b7c:	e13ffe15 	stw	r4,-8(fp)
 3043b80:	e17ffd15 	stw	r5,-12(fp)
 3043b84:	3007883a 	mov	r3,r6
 3043b88:	3809883a 	mov	r4,r7
 3043b8c:	e0800217 	ldw	r2,8(fp)
 3043b90:	e0fffc05 	stb	r3,-16(fp)
 3043b94:	2007883a 	mov	r3,r4
 3043b98:	e0fffb05 	stb	r3,-20(fp)
 3043b9c:	e0bffa05 	stb	r2,-24(fp)
    bool bSuccess = TRUE;
 3043ba0:	00800044 	movi	r2,1
 3043ba4:	e0bfff15 	stw	r2,-4(fp)
    //alt_u8 DeviceAddr;
    
    // device id
    //DeviceAddr = HMB_E2_I2C_ID;

    i2c_start(clk_base, data_base);
 3043ba8:	e17ffd17 	ldw	r5,-12(fp)
 3043bac:	e13ffe17 	ldw	r4,-8(fp)
 3043bb0:	3043f100 	call	3043f10 <i2c_start>
    if (!i2c_write(clk_base, data_base, DeviceAddr)){  // send ID
 3043bb4:	e0bffc03 	ldbu	r2,-16(fp)
 3043bb8:	10803fcc 	andi	r2,r2,255
 3043bbc:	100d883a 	mov	r6,r2
 3043bc0:	e17ffd17 	ldw	r5,-12(fp)
 3043bc4:	e13ffe17 	ldw	r4,-8(fp)
 3043bc8:	30440140 	call	3044014 <i2c_write>
 3043bcc:	1000041e 	bne	r2,zero,3043be0 <I2C_Write+0x74>
        bSuccess = FALSE;
 3043bd0:	e03fff15 	stw	zero,-4(fp)
        I2C_DEBUG(("I2C HMB_E2 Fail: Address NACK!\n"));
 3043bd4:	0100c1b4 	movhi	r4,774
 3043bd8:	213fef04 	addi	r4,r4,-68
 3043bdc:	30450c80 	call	30450c8 <myprintf>
    }
    if (bSuccess && !i2c_write(clk_base, data_base, ControlAddr)){ // send sub-address
 3043be0:	e0bfff17 	ldw	r2,-4(fp)
 3043be4:	10000a26 	beq	r2,zero,3043c10 <I2C_Write+0xa4>
 3043be8:	e0bffb03 	ldbu	r2,-20(fp)
 3043bec:	100d883a 	mov	r6,r2
 3043bf0:	e17ffd17 	ldw	r5,-12(fp)
 3043bf4:	e13ffe17 	ldw	r4,-8(fp)
 3043bf8:	30440140 	call	3044014 <i2c_write>
 3043bfc:	1000041e 	bne	r2,zero,3043c10 <I2C_Write+0xa4>
        bSuccess = FALSE;
 3043c00:	e03fff15 	stw	zero,-4(fp)
        I2C_DEBUG(("I2C HMB_E2 Fail: SubAddress NACK!\n"));
 3043c04:	0100c1b4 	movhi	r4,774
 3043c08:	213ff704 	addi	r4,r4,-36
 3043c0c:	30450c80 	call	30450c8 <myprintf>
    }            
    if (bSuccess && !i2c_write(clk_base, data_base, ControlData)){  
 3043c10:	e0bfff17 	ldw	r2,-4(fp)
 3043c14:	10000a26 	beq	r2,zero,3043c40 <I2C_Write+0xd4>
 3043c18:	e0bffa03 	ldbu	r2,-24(fp)
 3043c1c:	100d883a 	mov	r6,r2
 3043c20:	e17ffd17 	ldw	r5,-12(fp)
 3043c24:	e13ffe17 	ldw	r4,-8(fp)
 3043c28:	30440140 	call	3044014 <i2c_write>
 3043c2c:	1000041e 	bne	r2,zero,3043c40 <I2C_Write+0xd4>
        bSuccess = FALSE;
 3043c30:	e03fff15 	stw	zero,-4(fp)
        I2C_DEBUG(("I2C HMB_E2 Fail: write NACK!\n"));
 3043c34:	0100c1b4 	movhi	r4,774
 3043c38:	21000004 	addi	r4,r4,0
 3043c3c:	30450c80 	call	30450c8 <myprintf>
    }
    i2c_stop(clk_base, data_base);
 3043c40:	e17ffd17 	ldw	r5,-12(fp)
 3043c44:	e13ffe17 	ldw	r4,-8(fp)
 3043c48:	3043f9c0 	call	3043f9c <i2c_stop>
    
    usleep(7*1000); // delay to wait EE2 ready (at least 5 ms delay is required)
 3043c4c:	0106d604 	movi	r4,7000
 3043c50:	305b02c0 	call	305b02c <usleep>
    
    return bSuccess;
 3043c54:	e0bfff17 	ldw	r2,-4(fp)

    
}
 3043c58:	e037883a 	mov	sp,fp
 3043c5c:	dfc00117 	ldw	ra,4(sp)
 3043c60:	df000017 	ldw	fp,0(sp)
 3043c64:	dec00204 	addi	sp,sp,8
 3043c68:	f800283a 	ret

03043c6c <I2C_Read>:

bool I2C_Read(alt_u32 clk_base, alt_u32 data_base, alt_8 DeviceAddr, alt_u8 ControlAddr, alt_u8 *pControlData){
 3043c6c:	defff904 	addi	sp,sp,-28
 3043c70:	dfc00615 	stw	ra,24(sp)
 3043c74:	df000515 	stw	fp,20(sp)
 3043c78:	df000504 	addi	fp,sp,20
 3043c7c:	e13ffe15 	stw	r4,-8(fp)
 3043c80:	e17ffd15 	stw	r5,-12(fp)
 3043c84:	3005883a 	mov	r2,r6
 3043c88:	3807883a 	mov	r3,r7
 3043c8c:	e0bffc05 	stb	r2,-16(fp)
 3043c90:	1805883a 	mov	r2,r3
 3043c94:	e0bffb05 	stb	r2,-20(fp)
    bool bSuccess = TRUE;
 3043c98:	00800044 	movi	r2,1
 3043c9c:	e0bfff15 	stw	r2,-4(fp)
    //alt_u8 DeviceAddr;
   
    // device id
    //DeviceAddr = HMB_E2_I2C_ID;

    i2c_start(clk_base, data_base);
 3043ca0:	e17ffd17 	ldw	r5,-12(fp)
 3043ca4:	e13ffe17 	ldw	r4,-8(fp)
 3043ca8:	3043f100 	call	3043f10 <i2c_start>
    if (!i2c_write(clk_base, data_base, DeviceAddr)){  // send ID
 3043cac:	e0bffc03 	ldbu	r2,-16(fp)
 3043cb0:	10803fcc 	andi	r2,r2,255
 3043cb4:	100d883a 	mov	r6,r2
 3043cb8:	e17ffd17 	ldw	r5,-12(fp)
 3043cbc:	e13ffe17 	ldw	r4,-8(fp)
 3043cc0:	30440140 	call	3044014 <i2c_write>
 3043cc4:	1000041e 	bne	r2,zero,3043cd8 <I2C_Read+0x6c>
        bSuccess = FALSE;
 3043cc8:	e03fff15 	stw	zero,-4(fp)
        I2C_DEBUG(("I2C HMB_E2 Fail: Address NACK!\n"));
 3043ccc:	0100c1b4 	movhi	r4,774
 3043cd0:	213fef04 	addi	r4,r4,-68
 3043cd4:	30450c80 	call	30450c8 <myprintf>
    }
    if (bSuccess && !i2c_write(clk_base, data_base, ControlAddr)){ // send sub-address
 3043cd8:	e0bfff17 	ldw	r2,-4(fp)
 3043cdc:	10000a26 	beq	r2,zero,3043d08 <I2C_Read+0x9c>
 3043ce0:	e0bffb03 	ldbu	r2,-20(fp)
 3043ce4:	100d883a 	mov	r6,r2
 3043ce8:	e17ffd17 	ldw	r5,-12(fp)
 3043cec:	e13ffe17 	ldw	r4,-8(fp)
 3043cf0:	30440140 	call	3044014 <i2c_write>
 3043cf4:	1000041e 	bne	r2,zero,3043d08 <I2C_Read+0x9c>
        bSuccess = FALSE;
 3043cf8:	e03fff15 	stw	zero,-4(fp)
        I2C_DEBUG(("I2C HMB_E2 Fail: SubAddress NACK!\n"));
 3043cfc:	0100c1b4 	movhi	r4,774
 3043d00:	213ff704 	addi	r4,r4,-36
 3043d04:	30450c80 	call	30450c8 <myprintf>
    }            
    i2c_start(clk_base, data_base);  // restart
 3043d08:	e17ffd17 	ldw	r5,-12(fp)
 3043d0c:	e13ffe17 	ldw	r4,-8(fp)
 3043d10:	3043f100 	call	3043f10 <i2c_start>
    DeviceAddr |= 1; // Read
 3043d14:	e0bffc03 	ldbu	r2,-16(fp)
 3043d18:	10800054 	ori	r2,r2,1
 3043d1c:	e0bffc05 	stb	r2,-16(fp)
    if (bSuccess && !i2c_write(clk_base, data_base, DeviceAddr)){  // send id
 3043d20:	e0bfff17 	ldw	r2,-4(fp)
 3043d24:	10000b26 	beq	r2,zero,3043d54 <I2C_Read+0xe8>
 3043d28:	e0bffc03 	ldbu	r2,-16(fp)
 3043d2c:	10803fcc 	andi	r2,r2,255
 3043d30:	100d883a 	mov	r6,r2
 3043d34:	e17ffd17 	ldw	r5,-12(fp)
 3043d38:	e13ffe17 	ldw	r4,-8(fp)
 3043d3c:	30440140 	call	3044014 <i2c_write>
 3043d40:	1000041e 	bne	r2,zero,3043d54 <I2C_Read+0xe8>
        bSuccess = FALSE;
 3043d44:	e03fff15 	stw	zero,-4(fp)
        I2C_DEBUG(("I2C HMB_E2 Fail: Address+1 NACK!\n"));
 3043d48:	0100c1b4 	movhi	r4,774
 3043d4c:	21000804 	addi	r4,r4,32
 3043d50:	30450c80 	call	30450c8 <myprintf>
    }
    
    if (bSuccess){
 3043d54:	e0bfff17 	ldw	r2,-4(fp)
 3043d58:	10000526 	beq	r2,zero,3043d70 <I2C_Read+0x104>
        i2c_read(clk_base, data_base, pControlData, FALSE);  // read
 3043d5c:	000f883a 	mov	r7,zero
 3043d60:	e1800217 	ldw	r6,8(fp)
 3043d64:	e17ffd17 	ldw	r5,-12(fp)
 3043d68:	e13ffe17 	ldw	r4,-8(fp)
 3043d6c:	30441440 	call	3044144 <i2c_read>
    }        
    i2c_stop(clk_base, data_base);
 3043d70:	e17ffd17 	ldw	r5,-12(fp)
 3043d74:	e13ffe17 	ldw	r4,-8(fp)
 3043d78:	3043f9c0 	call	3043f9c <i2c_stop>
    
    return bSuccess;
 3043d7c:	e0bfff17 	ldw	r2,-4(fp)
}
 3043d80:	e037883a 	mov	sp,fp
 3043d84:	dfc00117 	ldw	ra,4(sp)
 3043d88:	df000017 	ldw	fp,0(sp)
 3043d8c:	dec00204 	addi	sp,sp,8
 3043d90:	f800283a 	ret

03043d94 <I2C_MultipleRead>:

bool I2C_MultipleRead(alt_u32 clk_base, alt_u32 data_base, alt_8 DeviceAddr, alt_u8 szData[], alt_u16 len){
 3043d94:	defff604 	addi	sp,sp,-40
 3043d98:	dfc00915 	stw	ra,36(sp)
 3043d9c:	df000815 	stw	fp,32(sp)
 3043da0:	df000804 	addi	fp,sp,32
 3043da4:	e13ffc15 	stw	r4,-16(fp)
 3043da8:	e17ffb15 	stw	r5,-20(fp)
 3043dac:	3007883a 	mov	r3,r6
 3043db0:	e1fff915 	stw	r7,-28(fp)
 3043db4:	e0800217 	ldw	r2,8(fp)
 3043db8:	e0fffa05 	stb	r3,-24(fp)
 3043dbc:	e0bff80d 	sth	r2,-32(fp)
    int i;
    bool bSuccess = TRUE;
 3043dc0:	00800044 	movi	r2,1
 3043dc4:	e0bffe15 	stw	r2,-8(fp)
    //alt_u8 DeviceAddr, 
    alt_u8 ControlAddr = 0;
 3043dc8:	e03ffdc5 	stb	zero,-9(fp)
    
   
    // device id
    //DeviceAddr = HMB_E2_I2C_ID;

    i2c_start(clk_base, data_base);
 3043dcc:	e17ffb17 	ldw	r5,-20(fp)
 3043dd0:	e13ffc17 	ldw	r4,-16(fp)
 3043dd4:	3043f100 	call	3043f10 <i2c_start>
    if (!i2c_write(clk_base, data_base, DeviceAddr)){  // send ID
 3043dd8:	e0bffa03 	ldbu	r2,-24(fp)
 3043ddc:	10803fcc 	andi	r2,r2,255
 3043de0:	100d883a 	mov	r6,r2
 3043de4:	e17ffb17 	ldw	r5,-20(fp)
 3043de8:	e13ffc17 	ldw	r4,-16(fp)
 3043dec:	30440140 	call	3044014 <i2c_write>
 3043df0:	1000041e 	bne	r2,zero,3043e04 <I2C_MultipleRead+0x70>
        bSuccess = FALSE;
 3043df4:	e03ffe15 	stw	zero,-8(fp)
        I2C_DEBUG(("I2C HMB_E2 Fail: Address NACK!\n"));
 3043df8:	0100c1b4 	movhi	r4,774
 3043dfc:	213fef04 	addi	r4,r4,-68
 3043e00:	30450c80 	call	30450c8 <myprintf>
    }
    if (bSuccess && !i2c_write(clk_base, data_base, ControlAddr)){ // send sub-address
 3043e04:	e0bffe17 	ldw	r2,-8(fp)
 3043e08:	10000a26 	beq	r2,zero,3043e34 <I2C_MultipleRead+0xa0>
 3043e0c:	e0bffdc3 	ldbu	r2,-9(fp)
 3043e10:	100d883a 	mov	r6,r2
 3043e14:	e17ffb17 	ldw	r5,-20(fp)
 3043e18:	e13ffc17 	ldw	r4,-16(fp)
 3043e1c:	30440140 	call	3044014 <i2c_write>
 3043e20:	1000041e 	bne	r2,zero,3043e34 <I2C_MultipleRead+0xa0>
        bSuccess = FALSE;
 3043e24:	e03ffe15 	stw	zero,-8(fp)
        I2C_DEBUG(("I2C HMB_E2 Fail: SubAddress NACK!\n"));
 3043e28:	0100c1b4 	movhi	r4,774
 3043e2c:	213ff704 	addi	r4,r4,-36
 3043e30:	30450c80 	call	30450c8 <myprintf>
    }    
    if (bSuccess)        
 3043e34:	e0bffe17 	ldw	r2,-8(fp)
 3043e38:	10000326 	beq	r2,zero,3043e48 <I2C_MultipleRead+0xb4>
        i2c_start(clk_base, data_base);  // restart
 3043e3c:	e17ffb17 	ldw	r5,-20(fp)
 3043e40:	e13ffc17 	ldw	r4,-16(fp)
 3043e44:	3043f100 	call	3043f10 <i2c_start>
    DeviceAddr |= 1; // Read
 3043e48:	e0bffa03 	ldbu	r2,-24(fp)
 3043e4c:	10800054 	ori	r2,r2,1
 3043e50:	e0bffa05 	stb	r2,-24(fp)
    if (bSuccess && !i2c_write(clk_base, data_base, DeviceAddr)){  // send id
 3043e54:	e0bffe17 	ldw	r2,-8(fp)
 3043e58:	10000b26 	beq	r2,zero,3043e88 <I2C_MultipleRead+0xf4>
 3043e5c:	e0bffa03 	ldbu	r2,-24(fp)
 3043e60:	10803fcc 	andi	r2,r2,255
 3043e64:	100d883a 	mov	r6,r2
 3043e68:	e17ffb17 	ldw	r5,-20(fp)
 3043e6c:	e13ffc17 	ldw	r4,-16(fp)
 3043e70:	30440140 	call	3044014 <i2c_write>
 3043e74:	1000041e 	bne	r2,zero,3043e88 <I2C_MultipleRead+0xf4>
        bSuccess = FALSE;
 3043e78:	e03ffe15 	stw	zero,-8(fp)
        I2C_DEBUG(("I2C HMB_E2 Fail: Address+1 NACK!\n"));
 3043e7c:	0100c1b4 	movhi	r4,774
 3043e80:	21000804 	addi	r4,r4,32
 3043e84:	30450c80 	call	30450c8 <myprintf>
    }
    
    if (bSuccess){
 3043e88:	e0bffe17 	ldw	r2,-8(fp)
 3043e8c:	10001726 	beq	r2,zero,3043eec <I2C_MultipleRead+0x158>
        for(i=0;i<len && bSuccess;i++){
 3043e90:	e03fff15 	stw	zero,-4(fp)
 3043e94:	00001006 	br	3043ed8 <I2C_MultipleRead+0x144>
            i2c_read(clk_base, data_base, &szData[i], (i==(len-1))?FALSE:TRUE);  // read
 3043e98:	e0bfff17 	ldw	r2,-4(fp)
 3043e9c:	e0fff917 	ldw	r3,-28(fp)
 3043ea0:	1889883a 	add	r4,r3,r2
 3043ea4:	e0bff80b 	ldhu	r2,-32(fp)
 3043ea8:	10bfffc4 	addi	r2,r2,-1
 3043eac:	e0ffff17 	ldw	r3,-4(fp)
 3043eb0:	1884c03a 	cmpne	r2,r3,r2
 3043eb4:	10803fcc 	andi	r2,r2,255
 3043eb8:	100f883a 	mov	r7,r2
 3043ebc:	200d883a 	mov	r6,r4
 3043ec0:	e17ffb17 	ldw	r5,-20(fp)
 3043ec4:	e13ffc17 	ldw	r4,-16(fp)
 3043ec8:	30441440 	call	3044144 <i2c_read>
        for(i=0;i<len && bSuccess;i++){
 3043ecc:	e0bfff17 	ldw	r2,-4(fp)
 3043ed0:	10800044 	addi	r2,r2,1
 3043ed4:	e0bfff15 	stw	r2,-4(fp)
 3043ed8:	e0bff80b 	ldhu	r2,-32(fp)
 3043edc:	e0ffff17 	ldw	r3,-4(fp)
 3043ee0:	1880020e 	bge	r3,r2,3043eec <I2C_MultipleRead+0x158>
 3043ee4:	e0bffe17 	ldw	r2,-8(fp)
 3043ee8:	103feb1e 	bne	r2,zero,3043e98 <I2C_MultipleRead+0x104>
        }            
    }        
    i2c_stop(clk_base, data_base);
 3043eec:	e17ffb17 	ldw	r5,-20(fp)
 3043ef0:	e13ffc17 	ldw	r4,-16(fp)
 3043ef4:	3043f9c0 	call	3043f9c <i2c_stop>
    
    return bSuccess;    
 3043ef8:	e0bffe17 	ldw	r2,-8(fp)
    
}
 3043efc:	e037883a 	mov	sp,fp
 3043f00:	dfc00117 	ldw	ra,4(sp)
 3043f04:	df000017 	ldw	fp,0(sp)
 3043f08:	dec00204 	addi	sp,sp,8
 3043f0c:	f800283a 	ret

03043f10 <i2c_start>:
///////////// Interncal function (i2cXXX) body //////////////////////////////////////////////
/////////////////////////////////////////////////////////////////////////////////////////////


//SDA 1->0 while SCL=1
void i2c_start(alt_u32 clk_base, alt_u32 data_base){
 3043f10:	defffc04 	addi	sp,sp,-16
 3043f14:	dfc00315 	stw	ra,12(sp)
 3043f18:	df000215 	stw	fp,8(sp)
 3043f1c:	df000204 	addi	fp,sp,8
 3043f20:	e13fff15 	stw	r4,-4(fp)
 3043f24:	e17ffe15 	stw	r5,-8(fp)
    
    // make sure it is in normal state
    SDA_DIR_OUT(data_base);  // data output enabled
 3043f28:	e0bffe17 	ldw	r2,-8(fp)
 3043f2c:	10800104 	addi	r2,r2,4
 3043f30:	1007883a 	mov	r3,r2
 3043f34:	00800044 	movi	r2,1
 3043f38:	18800035 	stwio	r2,0(r3)
    
    
    
    // start condition 
    SDA_HIGH(data_base); // data high
 3043f3c:	e0bffe17 	ldw	r2,-8(fp)
 3043f40:	00c00044 	movi	r3,1
 3043f44:	10c00035 	stwio	r3,0(r2)
    SCL_HIGH(clk_base);
 3043f48:	e0bfff17 	ldw	r2,-4(fp)
 3043f4c:	00c00044 	movi	r3,1
 3043f50:	10c00035 	stwio	r3,0(r2)
    SCL_DELAY;
 3043f54:	01000044 	movi	r4,1
 3043f58:	305b02c0 	call	305b02c <usleep>
     
    SDA_LOW(data_base); // data low
 3043f5c:	e0bffe17 	ldw	r2,-8(fp)
 3043f60:	0007883a 	mov	r3,zero
 3043f64:	10c00035 	stwio	r3,0(r2)
    SCL_DELAY; 
 3043f68:	01000044 	movi	r4,1
 3043f6c:	305b02c0 	call	305b02c <usleep>
    SCL_LOW(clk_base); // clock low
 3043f70:	e0bfff17 	ldw	r2,-4(fp)
 3043f74:	0007883a 	mov	r3,zero
 3043f78:	10c00035 	stwio	r3,0(r2)
    SCL_DELAY;
 3043f7c:	01000044 	movi	r4,1
 3043f80:	305b02c0 	call	305b02c <usleep>
}
 3043f84:	0001883a 	nop
 3043f88:	e037883a 	mov	sp,fp
 3043f8c:	dfc00117 	ldw	ra,4(sp)
 3043f90:	df000017 	ldw	fp,0(sp)
 3043f94:	dec00204 	addi	sp,sp,8
 3043f98:	f800283a 	ret

03043f9c <i2c_stop>:

// SDA 0->1 while SCL=1
void i2c_stop(alt_u32 clk_base, alt_u32 data_base){
 3043f9c:	defffc04 	addi	sp,sp,-16
 3043fa0:	dfc00315 	stw	ra,12(sp)
 3043fa4:	df000215 	stw	fp,8(sp)
 3043fa8:	df000204 	addi	fp,sp,8
 3043fac:	e13fff15 	stw	r4,-4(fp)
 3043fb0:	e17ffe15 	stw	r5,-8(fp)
    // assume SCL = 0
    
    SDA_DIR_OUT(data_base);  // data output enabled
 3043fb4:	e0bffe17 	ldw	r2,-8(fp)
 3043fb8:	10800104 	addi	r2,r2,4
 3043fbc:	1007883a 	mov	r3,r2
 3043fc0:	00800044 	movi	r2,1
 3043fc4:	18800035 	stwio	r2,0(r3)
    SDA_LOW(data_base); // Data Low
 3043fc8:	e0bffe17 	ldw	r2,-8(fp)
 3043fcc:	0007883a 	mov	r3,zero
 3043fd0:	10c00035 	stwio	r3,0(r2)
    //SCL_DELAY; 
    SCL_HIGH(clk_base);  // clock high
 3043fd4:	e0bfff17 	ldw	r2,-4(fp)
 3043fd8:	00c00044 	movi	r3,1
 3043fdc:	10c00035 	stwio	r3,0(r2)
    SCL_DELAY; // clock high long delay
 3043fe0:	01000044 	movi	r4,1
 3043fe4:	305b02c0 	call	305b02c <usleep>
    SDA_HIGH(data_base); // data high
 3043fe8:	e0bffe17 	ldw	r2,-8(fp)
 3043fec:	00c00044 	movi	r3,1
 3043ff0:	10c00035 	stwio	r3,0(r2)
    SCL_DELAY; // data high delay
 3043ff4:	01000044 	movi	r4,1
 3043ff8:	305b02c0 	call	305b02c <usleep>
}
 3043ffc:	0001883a 	nop
 3044000:	e037883a 	mov	sp,fp
 3044004:	dfc00117 	ldw	ra,4(sp)
 3044008:	df000017 	ldw	fp,0(sp)
 304400c:	dec00204 	addi	sp,sp,8
 3044010:	f800283a 	ret

03044014 <i2c_write>:

bool i2c_write(alt_u32 clk_base, alt_u32 data_base, alt_u8 Data){ // return true if device response ack
 3044014:	defff804 	addi	sp,sp,-32
 3044018:	dfc00715 	stw	ra,28(sp)
 304401c:	df000615 	stw	fp,24(sp)
 3044020:	df000604 	addi	fp,sp,24
 3044024:	e13ffc15 	stw	r4,-16(fp)
 3044028:	e17ffb15 	stw	r5,-20(fp)
 304402c:	3005883a 	mov	r2,r6
 3044030:	e0bffa05 	stb	r2,-24(fp)
    alt_u8 Mask = 0x80;
 3044034:	00bfe004 	movi	r2,-128
 3044038:	e0bfffc5 	stb	r2,-1(fp)
    bool bAck;
    int i;
    
    // assume, SCL = 0
    
    SDA_DIR_OUT(data_base);  // data write mode
 304403c:	e0bffb17 	ldw	r2,-20(fp)
 3044040:	10800104 	addi	r2,r2,4
 3044044:	1007883a 	mov	r3,r2
 3044048:	00800044 	movi	r2,1
 304404c:	18800035 	stwio	r2,0(r3)
    
    for(i=0;i<8;i++){
 3044050:	e03ffe15 	stw	zero,-8(fp)
 3044054:	00001f06 	br	30440d4 <i2c_write+0xc0>
        SCL_LOW(clk_base);  // new, make sure data change at clk low
 3044058:	e0bffc17 	ldw	r2,-16(fp)
 304405c:	0007883a 	mov	r3,zero
 3044060:	10c00035 	stwio	r3,0(r2)
        // output data on bus
        if (Data & Mask){ // there is a delay in this command
 3044064:	e0fffa03 	ldbu	r3,-24(fp)
 3044068:	e0bfffc3 	ldbu	r2,-1(fp)
 304406c:	1884703a 	and	r2,r3,r2
 3044070:	10803fcc 	andi	r2,r2,255
 3044074:	10000426 	beq	r2,zero,3044088 <i2c_write+0x74>
            SDA_HIGH(data_base);
 3044078:	e0bffb17 	ldw	r2,-20(fp)
 304407c:	00c00044 	movi	r3,1
 3044080:	10c00035 	stwio	r3,0(r2)
 3044084:	00000306 	br	3044094 <i2c_write+0x80>
        }else{    
            SDA_LOW(data_base);
 3044088:	e0bffb17 	ldw	r2,-20(fp)
 304408c:	0007883a 	mov	r3,zero
 3044090:	10c00035 	stwio	r3,0(r2)
        }
        Mask >>= 1; // there is a delay in this command
 3044094:	e0bfffc3 	ldbu	r2,-1(fp)
 3044098:	1004d07a 	srli	r2,r2,1
 304409c:	e0bfffc5 	stb	r2,-1(fp)
        // clock high
        SCL_HIGH(clk_base);
 30440a0:	e0bffc17 	ldw	r2,-16(fp)
 30440a4:	00c00044 	movi	r3,1
 30440a8:	10c00035 	stwio	r3,0(r2)
        SCL_DELAY;
 30440ac:	01000044 	movi	r4,1
 30440b0:	305b02c0 	call	305b02c <usleep>
        SCL_LOW(clk_base);
 30440b4:	e0bffc17 	ldw	r2,-16(fp)
 30440b8:	0007883a 	mov	r3,zero
 30440bc:	10c00035 	stwio	r3,0(r2)
        SCL_DELAY;
 30440c0:	01000044 	movi	r4,1
 30440c4:	305b02c0 	call	305b02c <usleep>
    for(i=0;i<8;i++){
 30440c8:	e0bffe17 	ldw	r2,-8(fp)
 30440cc:	10800044 	addi	r2,r2,1
 30440d0:	e0bffe15 	stw	r2,-8(fp)
 30440d4:	e0bffe17 	ldw	r2,-8(fp)
 30440d8:	10800210 	cmplti	r2,r2,8
 30440dc:	103fde1e 	bne	r2,zero,3044058 <i2c_write+0x44>
    }
    
    //===== get ack
    SDA_DIR_IN(data_base);  // data read mode
 30440e0:	e0bffb17 	ldw	r2,-20(fp)
 30440e4:	10800104 	addi	r2,r2,4
 30440e8:	0007883a 	mov	r3,zero
 30440ec:	10c00035 	stwio	r3,0(r2)
    //SCL_DELAY;
    // clock high
    SCL_HIGH(clk_base);  // clock high
 30440f0:	e0bffc17 	ldw	r2,-16(fp)
 30440f4:	00c00044 	movi	r3,1
 30440f8:	10c00035 	stwio	r3,0(r2)
    SCL_DELAY;  // clock high delay
 30440fc:	01000044 	movi	r4,1
 3044100:	305b02c0 	call	305b02c <usleep>
    bAck = SDA_READ(data_base)?FALSE:TRUE;  // get ack
 3044104:	e0bffb17 	ldw	r2,-20(fp)
 3044108:	10800037 	ldwio	r2,0(r2)
 304410c:	1005003a 	cmpeq	r2,r2,zero
 3044110:	10803fcc 	andi	r2,r2,255
 3044114:	e0bffd15 	stw	r2,-12(fp)
    //SCL_DELAY;
    //SDA_DIR_OUT;
    SCL_LOW(clk_base); // clock low         
 3044118:	e0bffc17 	ldw	r2,-16(fp)
 304411c:	0007883a 	mov	r3,zero
 3044120:	10c00035 	stwio	r3,0(r2)
    SCL_DELAY; // clock low delay
 3044124:	01000044 	movi	r4,1
 3044128:	305b02c0 	call	305b02c <usleep>
    return bAck;
 304412c:	e0bffd17 	ldw	r2,-12(fp)
}    
 3044130:	e037883a 	mov	sp,fp
 3044134:	dfc00117 	ldw	ra,4(sp)
 3044138:	df000017 	ldw	fp,0(sp)
 304413c:	dec00204 	addi	sp,sp,8
 3044140:	f800283a 	ret

03044144 <i2c_read>:

void i2c_read(alt_u32 clk_base, alt_u32 data_base, alt_u8 *pData, bool bAck){ // return true if device response ack
 3044144:	defff804 	addi	sp,sp,-32
 3044148:	dfc00715 	stw	ra,28(sp)
 304414c:	df000615 	stw	fp,24(sp)
 3044150:	df000604 	addi	fp,sp,24
 3044154:	e13ffd15 	stw	r4,-12(fp)
 3044158:	e17ffc15 	stw	r5,-16(fp)
 304415c:	e1bffb15 	stw	r6,-20(fp)
 3044160:	e1fffa15 	stw	r7,-24(fp)
    alt_u8 Data=0;
 3044164:	e03fffc5 	stb	zero,-1(fp)
    int i;
    
    // assume SCL = low
    
    SDA_DIR_IN(data_base);  // set data read mode
 3044168:	e0bffc17 	ldw	r2,-16(fp)
 304416c:	10800104 	addi	r2,r2,4
 3044170:	0007883a 	mov	r3,zero
 3044174:	10c00035 	stwio	r3,0(r2)
    SCL_LOW(clk_base); // clock low
 3044178:	e0bffd17 	ldw	r2,-12(fp)
 304417c:	0007883a 	mov	r3,zero
 3044180:	10c00035 	stwio	r3,0(r2)
    SCL_DELAY; // clock low delay
 3044184:	01000044 	movi	r4,1
 3044188:	305b02c0 	call	305b02c <usleep>

    for(i=0;i<8;i++){
 304418c:	e03ffe15 	stw	zero,-8(fp)
 3044190:	00001606 	br	30441ec <i2c_read+0xa8>
        Data <<= 1;
 3044194:	e0bfffc3 	ldbu	r2,-1(fp)
 3044198:	1085883a 	add	r2,r2,r2
 304419c:	e0bfffc5 	stb	r2,-1(fp)
        SCL_HIGH(clk_base);  // clock high
 30441a0:	e0bffd17 	ldw	r2,-12(fp)
 30441a4:	00c00044 	movi	r3,1
 30441a8:	10c00035 	stwio	r3,0(r2)
        SCL_DELAY;
 30441ac:	01000044 	movi	r4,1
 30441b0:	305b02c0 	call	305b02c <usleep>
        if (SDA_READ(data_base))  // read data   
 30441b4:	e0bffc17 	ldw	r2,-16(fp)
 30441b8:	10800037 	ldwio	r2,0(r2)
 30441bc:	10000326 	beq	r2,zero,30441cc <i2c_read+0x88>
            Data |= 0x01;
 30441c0:	e0bfffc3 	ldbu	r2,-1(fp)
 30441c4:	10800054 	ori	r2,r2,1
 30441c8:	e0bfffc5 	stb	r2,-1(fp)
        SCL_LOW(clk_base);  // clock log  
 30441cc:	e0bffd17 	ldw	r2,-12(fp)
 30441d0:	0007883a 	mov	r3,zero
 30441d4:	10c00035 	stwio	r3,0(r2)
        SCL_DELAY;
