Archive member included to satisfy reference by file (symbol)

c:/intelfpga_lite/21.1/nios2eds/bin/gnu/h-x86_64-mingw32/bin/../lib/gcc/nios2-elf/10.3.1\libgcc.a(lib2-divmod.o)
                              obj/default/FatFileSystem.o (__udivsi3)
c:/intelfpga_lite/21.1/nios2eds/bin/gnu/h-x86_64-mingw32/bin/../lib/gcc/nios2-elf/10.3.1\libgcc.a(divsf3.o)
                              obj/default/FatFileSystem.o (__divsf3)
c:/intelfpga_lite/21.1/nios2eds/bin/gnu/h-x86_64-mingw32/bin/../lib/gcc/nios2-elf/10.3.1\libgcc.a(mulsf3.o)
                              obj/default/FatFileSystem.o (__mulsf3)
c:/intelfpga_lite/21.1/nios2eds/bin/gnu/h-x86_64-mingw32/bin/../lib/gcc/nios2-elf/10.3.1\libgcc.a(floatunsisf.o)
                              obj/default/FatFileSystem.o (__floatunsisf)
c:/intelfpga_lite/21.1/nios2eds/bin/gnu/h-x86_64-mingw32/bin/../lib/gcc/nios2-elf/10.3.1\libgcc.a(divdf3.o)
                              obj/default/FatFileSystem.o (__divdf3)
c:/intelfpga_lite/21.1/nios2eds/bin/gnu/h-x86_64-mingw32/bin/../lib/gcc/nios2-elf/10.3.1\libgcc.a(extendsfdf2.o)
                              obj/default/FatFileSystem.o (__extendsfdf2)
c:/intelfpga_lite/21.1/nios2eds/bin/gnu/h-x86_64-mingw32/bin/../lib/gcc/nios2-elf/10.3.1\libgcc.a(truncdfsf2.o)
                              obj/default/FatFileSystem.o (__truncdfsf2)
c:/intelfpga_lite/21.1/nios2eds/bin/gnu/h-x86_64-mingw32/bin/../lib/gcc/nios2-elf/10.3.1\libgcc.a(_clzsi2.o)
                              c:/intelfpga_lite/21.1/nios2eds/bin/gnu/h-x86_64-mingw32/bin/../lib/gcc/nios2-elf/10.3.1\libgcc.a(divsf3.o) (__clzsi2)
c:/intelfpga_lite/21.1/nios2eds/bin/gnu/h-x86_64-mingw32/bin/../lib/gcc/nios2-elf/10.3.1\libgcc.a(_clz.o)
                              c:/intelfpga_lite/21.1/nios2eds/bin/gnu/h-x86_64-mingw32/bin/../lib/gcc/nios2-elf/10.3.1\libgcc.a(_clzsi2.o) (__clz_tab)
c:/intelfpga_lite/21.1/nios2eds/bin/gnu/h-x86_64-mingw32/bin/../lib/gcc/nios2-elf/10.3.1/../../../../../H-x86_64-mingw32/nios2-elf/lib\libc.a(lib_a-fclose.o)
                              obj/default/LCD.o (fclose)
c:/intelfpga_lite/21.1/nios2eds/bin/gnu/h-x86_64-mingw32/bin/../lib/gcc/nios2-elf/10.3.1/../../../../../H-x86_64-mingw32/nios2-elf/lib\libc.a(lib_a-fflush.o)
                              c:/intelfpga_lite/21.1/nios2eds/bin/gnu/h-x86_64-mingw32/bin/../lib/gcc/nios2-elf/10.3.1/../../../../../H-x86_64-mingw32/nios2-elf/lib\libc.a(lib_a-fclose.o) (__sflush_r)
c:/intelfpga_lite/21.1/nios2eds/bin/gnu/h-x86_64-mingw32/bin/../lib/gcc/nios2-elf/10.3.1/../../../../../H-x86_64-mingw32/nios2-elf/lib\libc.a(lib_a-findfp.o)
                              c:/intelfpga_lite/21.1/nios2eds/bin/gnu/h-x86_64-mingw32/bin/../lib/gcc/nios2-elf/10.3.1/../../../../../H-x86_64-mingw32/nios2-elf/lib\libc.a(lib_a-fclose.o) (__sinit)
c:/intelfpga_lite/21.1/nios2eds/bin/gnu/h-x86_64-mingw32/bin/../lib/gcc/nios2-elf/10.3.1/../../../../../H-x86_64-mingw32/nios2-elf/lib\libc.a(lib_a-fopen.o)
                              obj/default/LCD.o (fopen)
c:/intelfpga_lite/21.1/nios2eds/bin/gnu/h-x86_64-mingw32/bin/../lib/gcc/nios2-elf/10.3.1/../../../../../H-x86_64-mingw32/nios2-elf/lib\libc.a(lib_a-freer.o)
                              c:/intelfpga_lite/21.1/nios2eds/bin/gnu/h-x86_64-mingw32/bin/../lib/gcc/nios2-elf/10.3.1/../../../../../H-x86_64-mingw32/nios2-elf/lib\libc.a(lib_a-fclose.o) (_free_r)
c:/intelfpga_lite/21.1/nios2eds/bin/gnu/h-x86_64-mingw32/bin/../lib/gcc/nios2-elf/10.3.1/../../../../../H-x86_64-mingw32/nios2-elf/lib\libc.a(lib_a-fseek.o)
                              c:/intelfpga_lite/21.1/nios2eds/bin/gnu/h-x86_64-mingw32/bin/../lib/gcc/nios2-elf/10.3.1/../../../../../H-x86_64-mingw32/nios2-elf/lib\libc.a(lib_a-fopen.o) (_fseek_r)
c:/intelfpga_lite/21.1/nios2eds/bin/gnu/h-x86_64-mingw32/bin/../lib/gcc/nios2-elf/10.3.1/../../../../../H-x86_64-mingw32/nios2-elf/lib\libc.a(lib_a-fseeko.o)
                              c:/intelfpga_lite/21.1/nios2eds/bin/gnu/h-x86_64-mingw32/bin/../lib/gcc/nios2-elf/10.3.1/../../../../../H-x86_64-mingw32/nios2-elf/lib\libc.a(lib_a-fseek.o) (_fseeko_r)
c:/intelfpga_lite/21.1/nios2eds/bin/gnu/h-x86_64-mingw32/bin/../lib/gcc/nios2-elf/10.3.1/../../../../../H-x86_64-mingw32/nios2-elf/lib\libc.a(lib_a-fstatr.o)
                              c:/intelfpga_lite/21.1/nios2eds/bin/gnu/h-x86_64-mingw32/bin/../lib/gcc/nios2-elf/10.3.1/../../../../../H-x86_64-mingw32/nios2-elf/lib\libc.a(lib_a-fseeko.o) (_fstat_r)
c:/intelfpga_lite/21.1/nios2eds/bin/gnu/h-x86_64-mingw32/bin/../lib/gcc/nios2-elf/10.3.1/../../../../../H-x86_64-mingw32/nios2-elf/lib\libc.a(lib_a-fwalk.o)
                              c:/intelfpga_lite/21.1/nios2eds/bin/gnu/h-x86_64-mingw32/bin/../lib/gcc/nios2-elf/10.3.1/../../../../../H-x86_64-mingw32/nios2-elf/lib\libc.a(lib_a-findfp.o) (_fwalk)
c:/intelfpga_lite/21.1/nios2eds/bin/gnu/h-x86_64-mingw32/bin/../lib/gcc/nios2-elf/10.3.1/../../../../../H-x86_64-mingw32/nios2-elf/lib\libc.a(lib_a-fwrite.o)
                              obj/default/LCD.o (fwrite)
c:/intelfpga_lite/21.1/nios2eds/bin/gnu/h-x86_64-mingw32/bin/../lib/gcc/nios2-elf/10.3.1/../../../../../H-x86_64-mingw32/nios2-elf/lib\libc.a(lib_a-impure.o)
                              c:/intelfpga_lite/21.1/nios2eds/bin/gnu/h-x86_64-mingw32/bin/../lib/gcc/nios2-elf/10.3.1/../../../../../H-x86_64-mingw32/nios2-elf/lib\libc.a(lib_a-fflush.o) (_global_impure_ptr)
c:/intelfpga_lite/21.1/nios2eds/bin/gnu/h-x86_64-mingw32/bin/../lib/gcc/nios2-elf/10.3.1/../../../../../H-x86_64-mingw32/nios2-elf/lib\libc.a(lib_a-int_errno.o)
                              c:/intelfpga_lite/21.1/nios2eds/bin/gnu/h-x86_64-mingw32/bin/../lib/gcc/nios2-elf/10.3.1/../../../../../H-x86_64-mingw32/nios2-elf/lib\libc.a(lib_a-fstatr.o) (errno)
c:/intelfpga_lite/21.1/nios2eds/bin/gnu/h-x86_64-mingw32/bin/../lib/gcc/nios2-elf/10.3.1/../../../../../H-x86_64-mingw32/nios2-elf/lib\libc.a(lib_a-makebuf.o)
                              c:/intelfpga_lite/21.1/nios2eds/bin/gnu/h-x86_64-mingw32/bin/../lib/gcc/nios2-elf/10.3.1/../../../../../H-x86_64-mingw32/nios2-elf/lib\libc.a(lib_a-fseeko.o) (__smakebuf_r)
c:/intelfpga_lite/21.1/nios2eds/bin/gnu/h-x86_64-mingw32/bin/../lib/gcc/nios2-elf/10.3.1/../../../../../H-x86_64-mingw32/nios2-elf/lib\libc.a(lib_a-malloc.o)
                              obj/default/FatFileSystem.o (malloc)
c:/intelfpga_lite/21.1/nios2eds/bin/gnu/h-x86_64-mingw32/bin/../lib/gcc/nios2-elf/10.3.1/../../../../../H-x86_64-mingw32/nios2-elf/lib\libc.a(lib_a-mallocr.o)
                              c:/intelfpga_lite/21.1/nios2eds/bin/gnu/h-x86_64-mingw32/bin/../lib/gcc/nios2-elf/10.3.1/../../../../../H-x86_64-mingw32/nios2-elf/lib\libc.a(lib_a-findfp.o) (_malloc_r)
c:/intelfpga_lite/21.1/nios2eds/bin/gnu/h-x86_64-mingw32/bin/../lib/gcc/nios2-elf/10.3.1/../../../../../H-x86_64-mingw32/nios2-elf/lib\libc.a(lib_a-memcpy.o)
                              obj/default/FatFileSystem.o (memcpy)
c:/intelfpga_lite/21.1/nios2eds/bin/gnu/h-x86_64-mingw32/bin/../lib/gcc/nios2-elf/10.3.1/../../../../../H-x86_64-mingw32/nios2-elf/lib\libc.a(lib_a-memset.o)
                              obj/default/FatFileSystem.o (memset)
c:/intelfpga_lite/21.1/nios2eds/bin/gnu/h-x86_64-mingw32/bin/../lib/gcc/nios2-elf/10.3.1/../../../../../H-x86_64-mingw32/nios2-elf/lib\libc.a(lib_a-openr.o)
                              c:/intelfpga_lite/21.1/nios2eds/bin/gnu/h-x86_64-mingw32/bin/../lib/gcc/nios2-elf/10.3.1/../../../../../H-x86_64-mingw32/nios2-elf/lib\libc.a(lib_a-fopen.o) (_open_r)
c:/intelfpga_lite/21.1/nios2eds/bin/gnu/h-x86_64-mingw32/bin/../lib/gcc/nios2-elf/10.3.1/../../../../../H-x86_64-mingw32/nios2-elf/lib\libc.a(lib_a-printf.o)
                              obj/default/FatFileSystem.o (printf)
c:/intelfpga_lite/21.1/nios2eds/bin/gnu/h-x86_64-mingw32/bin/../lib/gcc/nios2-elf/10.3.1/../../../../../H-x86_64-mingw32/nios2-elf/lib\libc.a(lib_a-putchar.o)
                              obj/default/hello_world.o (putchar)
c:/intelfpga_lite/21.1/nios2eds/bin/gnu/h-x86_64-mingw32/bin/../lib/gcc/nios2-elf/10.3.1/../../../../../H-x86_64-mingw32/nios2-elf/lib\libc.a(lib_a-puts.o)
                              obj/default/hello_world.o (puts)
c:/intelfpga_lite/21.1/nios2eds/bin/gnu/h-x86_64-mingw32/bin/../lib/gcc/nios2-elf/10.3.1/../../../../../H-x86_64-mingw32/nios2-elf/lib\libc.a(lib_a-refill.o)
                              c:/intelfpga_lite/21.1/nios2eds/bin/gnu/h-x86_64-mingw32/bin/../lib/gcc/nios2-elf/10.3.1/../../../../../H-x86_64-mingw32/nios2-elf/lib\libc.a(lib_a-fseeko.o) (__srefill_r)
c:/intelfpga_lite/21.1/nios2eds/bin/gnu/h-x86_64-mingw32/bin/../lib/gcc/nios2-elf/10.3.1/../../../../../H-x86_64-mingw32/nios2-elf/lib\libc.a(lib_a-sbrkr.o)
                              c:/intelfpga_lite/21.1/nios2eds/bin/gnu/h-x86_64-mingw32/bin/../lib/gcc/nios2-elf/10.3.1/../../../../../H-x86_64-mingw32/nios2-elf/lib\libc.a(lib_a-freer.o) (_sbrk_r)
c:/intelfpga_lite/21.1/nios2eds/bin/gnu/h-x86_64-mingw32/bin/../lib/gcc/nios2-elf/10.3.1/../../../../../H-x86_64-mingw32/nios2-elf/lib\libc.a(lib_a-sprintf.o)
                              obj/default/debug.o (sprintf)
c:/intelfpga_lite/21.1/nios2eds/bin/gnu/h-x86_64-mingw32/bin/../lib/gcc/nios2-elf/10.3.1/../../../../../H-x86_64-mingw32/nios2-elf/lib\libc.a(lib_a-stdio.o)
                              c:/intelfpga_lite/21.1/nios2eds/bin/gnu/h-x86_64-mingw32/bin/../lib/gcc/nios2-elf/10.3.1/../../../../../H-x86_64-mingw32/nios2-elf/lib\libc.a(lib_a-findfp.o) (__sread)
c:/intelfpga_lite/21.1/nios2eds/bin/gnu/h-x86_64-mingw32/bin/../lib/gcc/nios2-elf/10.3.1/../../../../../H-x86_64-mingw32/nios2-elf/lib\libc.a(lib_a-strcmp.o)
                              obj/default/FatFileSystem.o (strcmp)
c:/intelfpga_lite/21.1/nios2eds/bin/gnu/h-x86_64-mingw32/bin/../lib/gcc/nios2-elf/10.3.1/../../../../../H-x86_64-mingw32/nios2-elf/lib\libc.a(lib_a-strcpy.o)
                              obj/default/hello_world.o (strcpy)
c:/intelfpga_lite/21.1/nios2eds/bin/gnu/h-x86_64-mingw32/bin/../lib/gcc/nios2-elf/10.3.1/../../../../../H-x86_64-mingw32/nios2-elf/lib\libc.a(lib_a-strlen.o)
                              obj/default/LCD.o (strlen)
c:/intelfpga_lite/21.1/nios2eds/bin/gnu/h-x86_64-mingw32/bin/../lib/gcc/nios2-elf/10.3.1/../../../../../H-x86_64-mingw32/nios2-elf/lib\libc.a(lib_a-svfprintf.o)
                              c:/intelfpga_lite/21.1/nios2eds/bin/gnu/h-x86_64-mingw32/bin/../lib/gcc/nios2-elf/10.3.1/../../../../../H-x86_64-mingw32/nios2-elf/lib\libc.a(lib_a-sprintf.o) (___svfprintf_internal_r)
c:/intelfpga_lite/21.1/nios2eds/bin/gnu/h-x86_64-mingw32/bin/../lib/gcc/nios2-elf/10.3.1/../../../../../H-x86_64-mingw32/nios2-elf/lib\libc.a(lib_a-vfprintf.o)
                              c:/intelfpga_lite/21.1/nios2eds/bin/gnu/h-x86_64-mingw32/bin/../lib/gcc/nios2-elf/10.3.1/../../../../../H-x86_64-mingw32/nios2-elf/lib\libc.a(lib_a-printf.o) (___vfprintf_internal_r)
c:/intelfpga_lite/21.1/nios2eds/bin/gnu/h-x86_64-mingw32/bin/../lib/gcc/nios2-elf/10.3.1/../../../../../H-x86_64-mingw32/nios2-elf/lib\libc.a(lib_a-vsnprintf.o)
                              obj/default/debug.o (vsnprintf)
c:/intelfpga_lite/21.1/nios2eds/bin/gnu/h-x86_64-mingw32/bin/../lib/gcc/nios2-elf/10.3.1/../../../../../H-x86_64-mingw32/nios2-elf/lib\libc.a(lib_a-writer.o)
                              c:/intelfpga_lite/21.1/nios2eds/bin/gnu/h-x86_64-mingw32/bin/../lib/gcc/nios2-elf/10.3.1/../../../../../H-x86_64-mingw32/nios2-elf/lib\libc.a(lib_a-stdio.o) (_write_r)
c:/intelfpga_lite/21.1/nios2eds/bin/gnu/h-x86_64-mingw32/bin/../lib/gcc/nios2-elf/10.3.1/../../../../../H-x86_64-mingw32/nios2-elf/lib\libc.a(lib_a-wsetup.o)
                              c:/intelfpga_lite/21.1/nios2eds/bin/gnu/h-x86_64-mingw32/bin/../lib/gcc/nios2-elf/10.3.1/../../../../../H-x86_64-mingw32/nios2-elf/lib\libc.a(lib_a-vfprintf.o) (__swsetup_r)
c:/intelfpga_lite/21.1/nios2eds/bin/gnu/h-x86_64-mingw32/bin/../lib/gcc/nios2-elf/10.3.1/../../../../../H-x86_64-mingw32/nios2-elf/lib\libc.a(closer.o)
                              c:/intelfpga_lite/21.1/nios2eds/bin/gnu/h-x86_64-mingw32/bin/../lib/gcc/nios2-elf/10.3.1/../../../../../H-x86_64-mingw32/nios2-elf/lib\libc.a(lib_a-stdio.o) (_close_r)
c:/intelfpga_lite/21.1/nios2eds/bin/gnu/h-x86_64-mingw32/bin/../lib/gcc/nios2-elf/10.3.1/../../../../../H-x86_64-mingw32/nios2-elf/lib\libc.a(lib_a-dtoa.o)
                              c:/intelfpga_lite/21.1/nios2eds/bin/gnu/h-x86_64-mingw32/bin/../lib/gcc/nios2-elf/10.3.1/../../../../../H-x86_64-mingw32/nios2-elf/lib\libc.a(lib_a-svfprintf.o) (_dtoa_r)
c:/intelfpga_lite/21.1/nios2eds/bin/gnu/h-x86_64-mingw32/bin/../lib/gcc/nios2-elf/10.3.1/../../../../../H-x86_64-mingw32/nios2-elf/lib\libc.a(lib_a-flags.o)
                              c:/intelfpga_lite/21.1/nios2eds/bin/gnu/h-x86_64-mingw32/bin/../lib/gcc/nios2-elf/10.3.1/../../../../../H-x86_64-mingw32/nios2-elf/lib\libc.a(lib_a-fopen.o) (__sflags)
c:/intelfpga_lite/21.1/nios2eds/bin/gnu/h-x86_64-mingw32/bin/../lib/gcc/nios2-elf/10.3.1/../../../../../H-x86_64-mingw32/nios2-elf/lib\libc.a(lib_a-fvwrite.o)
                              c:/intelfpga_lite/21.1/nios2eds/bin/gnu/h-x86_64-mingw32/bin/../lib/gcc/nios2-elf/10.3.1/../../../../../H-x86_64-mingw32/nios2-elf/lib\libc.a(lib_a-fwrite.o) (__sfvwrite_r)
c:/intelfpga_lite/21.1/nios2eds/bin/gnu/h-x86_64-mingw32/bin/../lib/gcc/nios2-elf/10.3.1/../../../../../H-x86_64-mingw32/nios2-elf/lib\libc.a(lib_a-isattyr.o)
                              c:/intelfpga_lite/21.1/nios2eds/bin/gnu/h-x86_64-mingw32/bin/../lib/gcc/nios2-elf/10.3.1/../../../../../H-x86_64-mingw32/nios2-elf/lib\libc.a(lib_a-makebuf.o) (_isatty_r)
c:/intelfpga_lite/21.1/nios2eds/bin/gnu/h-x86_64-mingw32/bin/../lib/gcc/nios2-elf/10.3.1/../../../../../H-x86_64-mingw32/nios2-elf/lib\libc.a(lib_a-localeconv.o)
                              c:/intelfpga_lite/21.1/nios2eds/bin/gnu/h-x86_64-mingw32/bin/../lib/gcc/nios2-elf/10.3.1/../../../../../H-x86_64-mingw32/nios2-elf/lib\libc.a(lib_a-svfprintf.o) (_localeconv_r)
c:/intelfpga_lite/21.1/nios2eds/bin/gnu/h-x86_64-mingw32/bin/../lib/gcc/nios2-elf/10.3.1/../../../../../H-x86_64-mingw32/nios2-elf/lib\libc.a(lib_a-lseekr.o)
                              c:/intelfpga_lite/21.1/nios2eds/bin/gnu/h-x86_64-mingw32/bin/../lib/gcc/nios2-elf/10.3.1/../../../../../H-x86_64-mingw32/nios2-elf/lib\libc.a(lib_a-stdio.o) (_lseek_r)
c:/intelfpga_lite/21.1/nios2eds/bin/gnu/h-x86_64-mingw32/bin/../lib/gcc/nios2-elf/10.3.1/../../../../../H-x86_64-mingw32/nios2-elf/lib\libc.a(lib_a-memchr.o)
                              c:/intelfpga_lite/21.1/nios2eds/bin/gnu/h-x86_64-mingw32/bin/../lib/gcc/nios2-elf/10.3.1/../../../../../H-x86_64-mingw32/nios2-elf/lib\libc.a(lib_a-svfprintf.o) (memchr)
c:/intelfpga_lite/21.1/nios2eds/bin/gnu/h-x86_64-mingw32/bin/../lib/gcc/nios2-elf/10.3.1/../../../../../H-x86_64-mingw32/nios2-elf/lib\libc.a(lib_a-memmove.o)
                              c:/intelfpga_lite/21.1/nios2eds/bin/gnu/h-x86_64-mingw32/bin/../lib/gcc/nios2-elf/10.3.1/../../../../../H-x86_64-mingw32/nios2-elf/lib\libc.a(lib_a-fvwrite.o) (memmove)
c:/intelfpga_lite/21.1/nios2eds/bin/gnu/h-x86_64-mingw32/bin/../lib/gcc/nios2-elf/10.3.1/../../../../../H-x86_64-mingw32/nios2-elf/lib\libc.a(lib_a-mprec.o)
                              c:/intelfpga_lite/21.1/nios2eds/bin/gnu/h-x86_64-mingw32/bin/../lib/gcc/nios2-elf/10.3.1/../../../../../H-x86_64-mingw32/nios2-elf/lib\libc.a(lib_a-dtoa.o) (_Balloc)
c:/intelfpga_lite/21.1/nios2eds/bin/gnu/h-x86_64-mingw32/bin/../lib/gcc/nios2-elf/10.3.1/../../../../../H-x86_64-mingw32/nios2-elf/lib\libc.a(lib_a-putc.o)
                              c:/intelfpga_lite/21.1/nios2eds/bin/gnu/h-x86_64-mingw32/bin/../lib/gcc/nios2-elf/10.3.1/../../../../../H-x86_64-mingw32/nios2-elf/lib\libc.a(lib_a-putchar.o) (_putc_r)
c:/intelfpga_lite/21.1/nios2eds/bin/gnu/h-x86_64-mingw32/bin/../lib/gcc/nios2-elf/10.3.1/../../../../../H-x86_64-mingw32/nios2-elf/lib\libc.a(lib_a-readr.o)
                              c:/intelfpga_lite/21.1/nios2eds/bin/gnu/h-x86_64-mingw32/bin/../lib/gcc/nios2-elf/10.3.1/../../../../../H-x86_64-mingw32/nios2-elf/lib\libc.a(lib_a-stdio.o) (_read_r)
c:/intelfpga_lite/21.1/nios2eds/bin/gnu/h-x86_64-mingw32/bin/../lib/gcc/nios2-elf/10.3.1/../../../../../H-x86_64-mingw32/nios2-elf/lib\libc.a(lib_a-reallocr.o)
                              c:/intelfpga_lite/21.1/nios2eds/bin/gnu/h-x86_64-mingw32/bin/../lib/gcc/nios2-elf/10.3.1/../../../../../H-x86_64-mingw32/nios2-elf/lib\libc.a(lib_a-fvwrite.o) (_realloc_r)
c:/intelfpga_lite/21.1/nios2eds/bin/gnu/h-x86_64-mingw32/bin/../lib/gcc/nios2-elf/10.3.1/../../../../../H-x86_64-mingw32/nios2-elf/lib\libc.a(lib_a-svfiprintf.o)
                              c:/intelfpga_lite/21.1/nios2eds/bin/gnu/h-x86_64-mingw32/bin/../lib/gcc/nios2-elf/10.3.1/../../../../../H-x86_64-mingw32/nios2-elf/lib\libc.a(lib_a-svfprintf.o) (__ssprint_r)
c:/intelfpga_lite/21.1/nios2eds/bin/gnu/h-x86_64-mingw32/bin/../lib/gcc/nios2-elf/10.3.1/../../../../../H-x86_64-mingw32/nios2-elf/lib\libc.a(lib_a-vfiprintf.o)
                              c:/intelfpga_lite/21.1/nios2eds/bin/gnu/h-x86_64-mingw32/bin/../lib/gcc/nios2-elf/10.3.1/../../../../../H-x86_64-mingw32/nios2-elf/lib\libc.a(lib_a-vfprintf.o) (__sprint_r)
c:/intelfpga_lite/21.1/nios2eds/bin/gnu/h-x86_64-mingw32/bin/../lib/gcc/nios2-elf/10.3.1/../../../../../H-x86_64-mingw32/nios2-elf/lib\libc.a(lib_a-wbuf.o)
                              c:/intelfpga_lite/21.1/nios2eds/bin/gnu/h-x86_64-mingw32/bin/../lib/gcc/nios2-elf/10.3.1/../../../../../H-x86_64-mingw32/nios2-elf/lib\libc.a(lib_a-putc.o) (__swbuf_r)
c:/intelfpga_lite/21.1/nios2eds/bin/gnu/h-x86_64-mingw32/bin/../lib/gcc/nios2-elf/10.3.1/../../../../../H-x86_64-mingw32/nios2-elf/lib\libc.a(lib_a-assert.o)
                              c:/intelfpga_lite/21.1/nios2eds/bin/gnu/h-x86_64-mingw32/bin/../lib/gcc/nios2-elf/10.3.1/../../../../../H-x86_64-mingw32/nios2-elf/lib\libc.a(lib_a-dtoa.o) (__assert_func)
c:/intelfpga_lite/21.1/nios2eds/bin/gnu/h-x86_64-mingw32/bin/../lib/gcc/nios2-elf/10.3.1/../../../../../H-x86_64-mingw32/nios2-elf/lib\libc.a(lib_a-callocr.o)
                              c:/intelfpga_lite/21.1/nios2eds/bin/gnu/h-x86_64-mingw32/bin/../lib/gcc/nios2-elf/10.3.1/../../../../../H-x86_64-mingw32/nios2-elf/lib\libc.a(lib_a-mprec.o) (_calloc_r)
c:/intelfpga_lite/21.1/nios2eds/bin/gnu/h-x86_64-mingw32/bin/../lib/gcc/nios2-elf/10.3.1/../../../../../H-x86_64-mingw32/nios2-elf/lib\libc.a(lib_a-errno.o)
                              c:/intelfpga_lite/21.1/nios2eds/bin/gnu/h-x86_64-mingw32/bin/../lib/gcc/nios2-elf/10.3.1/../../../../../H-x86_64-mingw32/nios2-elf/lib\libc.a(lib_a-callocr.o) (__errno)
c:/intelfpga_lite/21.1/nios2eds/bin/gnu/h-x86_64-mingw32/bin/../lib/gcc/nios2-elf/10.3.1/../../../../../H-x86_64-mingw32/nios2-elf/lib\libc.a(lib_a-fiprintf.o)
                              c:/intelfpga_lite/21.1/nios2eds/bin/gnu/h-x86_64-mingw32/bin/../lib/gcc/nios2-elf/10.3.1/../../../../../H-x86_64-mingw32/nios2-elf/lib\libc.a(lib_a-assert.o) (fiprintf)
c:/intelfpga_lite/21.1/nios2eds/bin/gnu/h-x86_64-mingw32/bin/../lib/gcc/nios2-elf/10.3.1/../../../../../H-x86_64-mingw32/nios2-elf/lib\libc.a(lib_a-fputwc.o)
                              c:/intelfpga_lite/21.1/nios2eds/bin/gnu/h-x86_64-mingw32/bin/../lib/gcc/nios2-elf/10.3.1/../../../../../H-x86_64-mingw32/nios2-elf/lib\libc.a(lib_a-vfiprintf.o) (_fputwc_r)
c:/intelfpga_lite/21.1/nios2eds/bin/gnu/h-x86_64-mingw32/bin/../lib/gcc/nios2-elf/10.3.1/../../../../../H-x86_64-mingw32/nios2-elf/lib\libc.a(lib_a-locale.o)
                              c:/intelfpga_lite/21.1/nios2eds/bin/gnu/h-x86_64-mingw32/bin/../lib/gcc/nios2-elf/10.3.1/../../../../../H-x86_64-mingw32/nios2-elf/lib\libc.a(lib_a-fputwc.o) (__locale_mb_cur_max)
c:/intelfpga_lite/21.1/nios2eds/bin/gnu/h-x86_64-mingw32/bin/../lib/gcc/nios2-elf/10.3.1/../../../../../H-x86_64-mingw32/nios2-elf/lib\libc.a(lib_a-mbtowc_r.o)
                              c:/intelfpga_lite/21.1/nios2eds/bin/gnu/h-x86_64-mingw32/bin/../lib/gcc/nios2-elf/10.3.1/../../../../../H-x86_64-mingw32/nios2-elf/lib\libc.a(lib_a-locale.o) (__ascii_mbtowc)
c:/intelfpga_lite/21.1/nios2eds/bin/gnu/h-x86_64-mingw32/bin/../lib/gcc/nios2-elf/10.3.1/../../../../../H-x86_64-mingw32/nios2-elf/lib\libc.a(lib_a-vfiprintfr_1.o)
                              c:/intelfpga_lite/21.1/nios2eds/bin/gnu/h-x86_64-mingw32/bin/../lib/gcc/nios2-elf/10.3.1/../../../../../H-x86_64-mingw32/nios2-elf/lib\libc.a(lib_a-fiprintf.o) (_vfiprintf_r)
c:/intelfpga_lite/21.1/nios2eds/bin/gnu/h-x86_64-mingw32/bin/../lib/gcc/nios2-elf/10.3.1/../../../../../H-x86_64-mingw32/nios2-elf/lib\libc.a(lib_a-wcrtomb.o)
                              c:/intelfpga_lite/21.1/nios2eds/bin/gnu/h-x86_64-mingw32/bin/../lib/gcc/nios2-elf/10.3.1/../../../../../H-x86_64-mingw32/nios2-elf/lib\libc.a(lib_a-fputwc.o) (_wcrtomb_r)
c:/intelfpga_lite/21.1/nios2eds/bin/gnu/h-x86_64-mingw32/bin/../lib/gcc/nios2-elf/10.3.1/../../../../../H-x86_64-mingw32/nios2-elf/lib\libc.a(lib_a-wctomb_r.o)
                              c:/intelfpga_lite/21.1/nios2eds/bin/gnu/h-x86_64-mingw32/bin/../lib/gcc/nios2-elf/10.3.1/../../../../../H-x86_64-mingw32/nios2-elf/lib\libc.a(lib_a-locale.o) (__ascii_wctomb)
c:/intelfpga_lite/21.1/nios2eds/bin/gnu/h-x86_64-mingw32/bin/../lib/gcc/nios2-elf/10.3.1/../../../../../H-x86_64-mingw32/nios2-elf/lib\libc.a(lib_a-abort.o)
                              c:/intelfpga_lite/21.1/nios2eds/bin/gnu/h-x86_64-mingw32/bin/../lib/gcc/nios2-elf/10.3.1/../../../../../H-x86_64-mingw32/nios2-elf/lib\libc.a(lib_a-assert.o) (abort)
c:/intelfpga_lite/21.1/nios2eds/bin/gnu/h-x86_64-mingw32/bin/../lib/gcc/nios2-elf/10.3.1/../../../../../H-x86_64-mingw32/nios2-elf/lib\libc.a(lib_a-ctype_.o)
                              c:/intelfpga_lite/21.1/nios2eds/bin/gnu/h-x86_64-mingw32/bin/../lib/gcc/nios2-elf/10.3.1/../../../../../H-x86_64-mingw32/nios2-elf/lib\libc.a(lib_a-locale.o) (_ctype_b)
c:/intelfpga_lite/21.1/nios2eds/bin/gnu/h-x86_64-mingw32/bin/../lib/gcc/nios2-elf/10.3.1/../../../../../H-x86_64-mingw32/nios2-elf/lib\libc.a(lib_a-signal.o)
                              c:/intelfpga_lite/21.1/nios2eds/bin/gnu/h-x86_64-mingw32/bin/../lib/gcc/nios2-elf/10.3.1/../../../../../H-x86_64-mingw32/nios2-elf/lib\libc.a(lib_a-abort.o) (raise)
c:/intelfpga_lite/21.1/nios2eds/bin/gnu/h-x86_64-mingw32/bin/../lib/gcc/nios2-elf/10.3.1/../../../../../H-x86_64-mingw32/nios2-elf/lib\libc.a(lib_a-signalr.o)
                              c:/intelfpga_lite/21.1/nios2eds/bin/gnu/h-x86_64-mingw32/bin/../lib/gcc/nios2-elf/10.3.1/../../../../../H-x86_64-mingw32/nios2-elf/lib\libc.a(lib_a-signal.o) (_kill_r)
c:/intelfpga_lite/21.1/nios2eds/bin/gnu/h-x86_64-mingw32/bin/../lib/gcc/nios2-elf/10.3.1\libgcc.a(_udivdi3.o)
                              c:/intelfpga_lite/21.1/nios2eds/bin/gnu/h-x86_64-mingw32/bin/../lib/gcc/nios2-elf/10.3.1/../../../../../H-x86_64-mingw32/nios2-elf/lib\libc.a(lib_a-svfprintf.o) (__udivdi3)
c:/intelfpga_lite/21.1/nios2eds/bin/gnu/h-x86_64-mingw32/bin/../lib/gcc/nios2-elf/10.3.1\libgcc.a(_umoddi3.o)
                              c:/intelfpga_lite/21.1/nios2eds/bin/gnu/h-x86_64-mingw32/bin/../lib/gcc/nios2-elf/10.3.1/../../../../../H-x86_64-mingw32/nios2-elf/lib\libc.a(lib_a-svfprintf.o) (__umoddi3)
c:/intelfpga_lite/21.1/nios2eds/bin/gnu/h-x86_64-mingw32/bin/../lib/gcc/nios2-elf/10.3.1\libgcc.a(adddf3.o)
                              c:/intelfpga_lite/21.1/nios2eds/bin/gnu/h-x86_64-mingw32/bin/../lib/gcc/nios2-elf/10.3.1/../../../../../H-x86_64-mingw32/nios2-elf/lib\libc.a(lib_a-dtoa.o) (__adddf3)
c:/intelfpga_lite/21.1/nios2eds/bin/gnu/h-x86_64-mingw32/bin/../lib/gcc/nios2-elf/10.3.1\libgcc.a(eqdf2.o)
                              c:/intelfpga_lite/21.1/nios2eds/bin/gnu/h-x86_64-mingw32/bin/../lib/gcc/nios2-elf/10.3.1/../../../../../H-x86_64-mingw32/nios2-elf/lib\libc.a(lib_a-svfprintf.o) (__eqdf2)
c:/intelfpga_lite/21.1/nios2eds/bin/gnu/h-x86_64-mingw32/bin/../lib/gcc/nios2-elf/10.3.1\libgcc.a(gedf2.o)
                              c:/intelfpga_lite/21.1/nios2eds/bin/gnu/h-x86_64-mingw32/bin/../lib/gcc/nios2-elf/10.3.1/../../../../../H-x86_64-mingw32/nios2-elf/lib\libc.a(lib_a-dtoa.o) (__gtdf2)
c:/intelfpga_lite/21.1/nios2eds/bin/gnu/h-x86_64-mingw32/bin/../lib/gcc/nios2-elf/10.3.1\libgcc.a(ledf2.o)
                              c:/intelfpga_lite/21.1/nios2eds/bin/gnu/h-x86_64-mingw32/bin/../lib/gcc/nios2-elf/10.3.1/../../../../../H-x86_64-mingw32/nios2-elf/lib\libc.a(lib_a-svfprintf.o) (__ledf2)
c:/intelfpga_lite/21.1/nios2eds/bin/gnu/h-x86_64-mingw32/bin/../lib/gcc/nios2-elf/10.3.1\libgcc.a(muldf3.o)
                              c:/intelfpga_lite/21.1/nios2eds/bin/gnu/h-x86_64-mingw32/bin/../lib/gcc/nios2-elf/10.3.1/../../../../../H-x86_64-mingw32/nios2-elf/lib\libc.a(lib_a-dtoa.o) (__muldf3)
c:/intelfpga_lite/21.1/nios2eds/bin/gnu/h-x86_64-mingw32/bin/../lib/gcc/nios2-elf/10.3.1\libgcc.a(subdf3.o)
                              c:/intelfpga_lite/21.1/nios2eds/bin/gnu/h-x86_64-mingw32/bin/../lib/gcc/nios2-elf/10.3.1/../../../../../H-x86_64-mingw32/nios2-elf/lib\libc.a(lib_a-dtoa.o) (__subdf3)
c:/intelfpga_lite/21.1/nios2eds/bin/gnu/h-x86_64-mingw32/bin/../lib/gcc/nios2-elf/10.3.1\libgcc.a(unorddf2.o)
                              c:/intelfpga_lite/21.1/nios2eds/bin/gnu/h-x86_64-mingw32/bin/../lib/gcc/nios2-elf/10.3.1/../../../../../H-x86_64-mingw32/nios2-elf/lib\libc.a(lib_a-svfprintf.o) (__unorddf2)
c:/intelfpga_lite/21.1/nios2eds/bin/gnu/h-x86_64-mingw32/bin/../lib/gcc/nios2-elf/10.3.1\libgcc.a(fixdfsi.o)
                              c:/intelfpga_lite/21.1/nios2eds/bin/gnu/h-x86_64-mingw32/bin/../lib/gcc/nios2-elf/10.3.1/../../../../../H-x86_64-mingw32/nios2-elf/lib\libc.a(lib_a-dtoa.o) (__fixdfsi)
c:/intelfpga_lite/21.1/nios2eds/bin/gnu/h-x86_64-mingw32/bin/../lib/gcc/nios2-elf/10.3.1\libgcc.a(floatsidf.o)
                              c:/intelfpga_lite/21.1/nios2eds/bin/gnu/h-x86_64-mingw32/bin/../lib/gcc/nios2-elf/10.3.1/../../../../../H-x86_64-mingw32/nios2-elf/lib\libc.a(lib_a-dtoa.o) (__floatsidf)
c:/intelfpga_lite/21.1/nios2eds/bin/gnu/h-x86_64-mingw32/bin/../lib/gcc/nios2-elf/10.3.1\libgcc.a(floatunsidf.o)
                              c:/intelfpga_lite/21.1/nios2eds/bin/gnu/h-x86_64-mingw32/bin/../lib/gcc/nios2-elf/10.3.1/../../../../../H-x86_64-mingw32/nios2-elf/lib\libc.a(lib_a-dtoa.o) (__floatunsidf)
c:/Users/Robin/Documents/NHLStenden/FPGA/QuartusPrimeProjects/DE2-115_V.1.0.6_SystemCD/DE2_115_demonstrations/DE2_115_SD_Card_Audio_Player_Copy/Software/Audio_Player_test1_bsp/\libhal_bsp.a(alt_close.o)
                              c:/intelfpga_lite/21.1/nios2eds/bin/gnu/h-x86_64-mingw32/bin/../lib/gcc/nios2-elf/10.3.1/../../../../../H-x86_64-mingw32/nios2-elf/lib\libc.a(closer.o) (close)
c:/Users/Robin/Documents/NHLStenden/FPGA/QuartusPrimeProjects/DE2-115_V.1.0.6_SystemCD/DE2_115_demonstrations/DE2_115_SD_Card_Audio_Player_Copy/Software/Audio_Player_test1_bsp/\libhal_bsp.a(alt_dev.o)
                              c:/Users/Robin/Documents/NHLStenden/FPGA/QuartusPrimeProjects/DE2-115_V.1.0.6_SystemCD/DE2_115_demonstrations/DE2_115_SD_Card_Audio_Player_Copy/Software/Audio_Player_test1_bsp/\libhal_bsp.a(alt_close.o) (alt_fd_list)
c:/Users/Robin/Documents/NHLStenden/FPGA/QuartusPrimeProjects/DE2-115_V.1.0.6_SystemCD/DE2_115_demonstrations/DE2_115_SD_Card_Audio_Player_Copy/Software/Audio_Player_test1_bsp/\libhal_bsp.a(alt_errno.o)
                              c:/Users/Robin/Documents/NHLStenden/FPGA/QuartusPrimeProjects/DE2-115_V.1.0.6_SystemCD/DE2_115_demonstrations/DE2_115_SD_Card_Audio_Player_Copy/Software/Audio_Player_test1_bsp/\libhal_bsp.a(alt_close.o) (alt_errno)
c:/Users/Robin/Documents/NHLStenden/FPGA/QuartusPrimeProjects/DE2-115_V.1.0.6_SystemCD/DE2_115_demonstrations/DE2_115_SD_Card_Audio_Player_Copy/Software/Audio_Player_test1_bsp/\libhal_bsp.a(alt_exit.o)
                              c:/intelfpga_lite/21.1/nios2eds/bin/gnu/h-x86_64-mingw32/bin/../lib/gcc/nios2-elf/10.3.1/../../../../../H-x86_64-mingw32/nios2-elf/lib\libc.a(lib_a-abort.o) (_exit)
c:/Users/Robin/Documents/NHLStenden/FPGA/QuartusPrimeProjects/DE2-115_V.1.0.6_SystemCD/DE2_115_demonstrations/DE2_115_SD_Card_Audio_Player_Copy/Software/Audio_Player_test1_bsp/\libhal_bsp.a(alt_fstat.o)
                              c:/intelfpga_lite/21.1/nios2eds/bin/gnu/h-x86_64-mingw32/bin/../lib/gcc/nios2-elf/10.3.1/../../../../../H-x86_64-mingw32/nios2-elf/lib\libc.a(lib_a-fstatr.o) (fstat)
c:/Users/Robin/Documents/NHLStenden/FPGA/QuartusPrimeProjects/DE2-115_V.1.0.6_SystemCD/DE2_115_demonstrations/DE2_115_SD_Card_Audio_Player_Copy/Software/Audio_Player_test1_bsp/\libhal_bsp.a(alt_getpid.o)
                              c:/intelfpga_lite/21.1/nios2eds/bin/gnu/h-x86_64-mingw32/bin/../lib/gcc/nios2-elf/10.3.1/../../../../../H-x86_64-mingw32/nios2-elf/lib\libc.a(lib_a-signalr.o) (getpid)
c:/Users/Robin/Documents/NHLStenden/FPGA/QuartusPrimeProjects/DE2-115_V.1.0.6_SystemCD/DE2_115_demonstrations/DE2_115_SD_Card_Audio_Player_Copy/Software/Audio_Player_test1_bsp/\libhal_bsp.a(alt_irq_register.o)
                              obj/default/hello_world.o (alt_irq_register)
c:/Users/Robin/Documents/NHLStenden/FPGA/QuartusPrimeProjects/DE2-115_V.1.0.6_SystemCD/DE2_115_demonstrations/DE2_115_SD_Card_Audio_Player_Copy/Software/Audio_Player_test1_bsp/\libhal_bsp.a(alt_irq_vars.o)
                              obj/default/hello_world.o (alt_irq_active)
c:/Users/Robin/Documents/NHLStenden/FPGA/QuartusPrimeProjects/DE2-115_V.1.0.6_SystemCD/DE2_115_demonstrations/DE2_115_SD_Card_Audio_Player_Copy/Software/Audio_Player_test1_bsp/\libhal_bsp.a(alt_isatty.o)
                              c:/intelfpga_lite/21.1/nios2eds/bin/gnu/h-x86_64-mingw32/bin/../lib/gcc/nios2-elf/10.3.1/../../../../../H-x86_64-mingw32/nios2-elf/lib\libc.a(lib_a-isattyr.o) (isatty)
c:/Users/Robin/Documents/NHLStenden/FPGA/QuartusPrimeProjects/DE2-115_V.1.0.6_SystemCD/DE2_115_demonstrations/DE2_115_SD_Card_Audio_Player_Copy/Software/Audio_Player_test1_bsp/\libhal_bsp.a(alt_kill.o)
                              c:/intelfpga_lite/21.1/nios2eds/bin/gnu/h-x86_64-mingw32/bin/../lib/gcc/nios2-elf/10.3.1/../../../../../H-x86_64-mingw32/nios2-elf/lib\libc.a(lib_a-signalr.o) (kill)
c:/Users/Robin/Documents/NHLStenden/FPGA/QuartusPrimeProjects/DE2-115_V.1.0.6_SystemCD/DE2_115_demonstrations/DE2_115_SD_Card_Audio_Player_Copy/Software/Audio_Player_test1_bsp/\libhal_bsp.a(alt_load.o)
                              c:/Users/Robin/Documents/NHLStenden/FPGA/QuartusPrimeProjects/DE2-115_V.1.0.6_SystemCD/DE2_115_demonstrations/DE2_115_SD_Card_Audio_Player_Copy/Software/Audio_Player_test1_bsp//obj/HAL/src/crt0.o (alt_load)
c:/Users/Robin/Documents/NHLStenden/FPGA/QuartusPrimeProjects/DE2-115_V.1.0.6_SystemCD/DE2_115_demonstrations/DE2_115_SD_Card_Audio_Player_Copy/Software/Audio_Player_test1_bsp/\libhal_bsp.a(alt_lseek.o)
                              c:/intelfpga_lite/21.1/nios2eds/bin/gnu/h-x86_64-mingw32/bin/../lib/gcc/nios2-elf/10.3.1/../../../../../H-x86_64-mingw32/nios2-elf/lib\libc.a(lib_a-lseekr.o) (lseek)
c:/Users/Robin/Documents/NHLStenden/FPGA/QuartusPrimeProjects/DE2-115_V.1.0.6_SystemCD/DE2_115_demonstrations/DE2_115_SD_Card_Audio_Player_Copy/Software/Audio_Player_test1_bsp/\libhal_bsp.a(alt_main.o)
                              c:/Users/Robin/Documents/NHLStenden/FPGA/QuartusPrimeProjects/DE2-115_V.1.0.6_SystemCD/DE2_115_demonstrations/DE2_115_SD_Card_Audio_Player_Copy/Software/Audio_Player_test1_bsp//obj/HAL/src/crt0.o (alt_main)
c:/Users/Robin/Documents/NHLStenden/FPGA/QuartusPrimeProjects/DE2-115_V.1.0.6_SystemCD/DE2_115_demonstrations/DE2_115_SD_Card_Audio_Player_Copy/Software/Audio_Player_test1_bsp/\libhal_bsp.a(alt_malloc_lock.o)
                              c:/intelfpga_lite/21.1/nios2eds/bin/gnu/h-x86_64-mingw32/bin/../lib/gcc/nios2-elf/10.3.1/../../../../../H-x86_64-mingw32/nios2-elf/lib\libc.a(lib_a-freer.o) (__malloc_lock)
c:/Users/Robin/Documents/NHLStenden/FPGA/QuartusPrimeProjects/DE2-115_V.1.0.6_SystemCD/DE2_115_demonstrations/DE2_115_SD_Card_Audio_Player_Copy/Software/Audio_Player_test1_bsp/\libhal_bsp.a(alt_open.o)
                              c:/intelfpga_lite/21.1/nios2eds/bin/gnu/h-x86_64-mingw32/bin/../lib/gcc/nios2-elf/10.3.1/../../../../../H-x86_64-mingw32/nios2-elf/lib\libc.a(lib_a-openr.o) (open)
c:/Users/Robin/Documents/NHLStenden/FPGA/QuartusPrimeProjects/DE2-115_V.1.0.6_SystemCD/DE2_115_demonstrations/DE2_115_SD_Card_Audio_Player_Copy/Software/Audio_Player_test1_bsp/\libhal_bsp.a(alt_read.o)
                              c:/intelfpga_lite/21.1/nios2eds/bin/gnu/h-x86_64-mingw32/bin/../lib/gcc/nios2-elf/10.3.1/../../../../../H-x86_64-mingw32/nios2-elf/lib\libc.a(lib_a-readr.o) (read)
c:/Users/Robin/Documents/NHLStenden/FPGA/QuartusPrimeProjects/DE2-115_V.1.0.6_SystemCD/DE2_115_demonstrations/DE2_115_SD_Card_Audio_Player_Copy/Software/Audio_Player_test1_bsp/\libhal_bsp.a(alt_release_fd.o)
                              c:/Users/Robin/Documents/NHLStenden/FPGA/QuartusPrimeProjects/DE2-115_V.1.0.6_SystemCD/DE2_115_demonstrations/DE2_115_SD_Card_Audio_Player_Copy/Software/Audio_Player_test1_bsp/\libhal_bsp.a(alt_close.o) (alt_release_fd)
c:/Users/Robin/Documents/NHLStenden/FPGA/QuartusPrimeProjects/DE2-115_V.1.0.6_SystemCD/DE2_115_demonstrations/DE2_115_SD_Card_Audio_Player_Copy/Software/Audio_Player_test1_bsp/\libhal_bsp.a(alt_sbrk.o)
                              c:/intelfpga_lite/21.1/nios2eds/bin/gnu/h-x86_64-mingw32/bin/../lib/gcc/nios2-elf/10.3.1/../../../../../H-x86_64-mingw32/nios2-elf/lib\libc.a(lib_a-sbrkr.o) (sbrk)
c:/Users/Robin/Documents/NHLStenden/FPGA/QuartusPrimeProjects/DE2-115_V.1.0.6_SystemCD/DE2_115_demonstrations/DE2_115_SD_Card_Audio_Player_Copy/Software/Audio_Player_test1_bsp/\libhal_bsp.a(alt_tick.o)
                              obj/default/FatFileSystem.o (_alt_tick_rate)
c:/Users/Robin/Documents/NHLStenden/FPGA/QuartusPrimeProjects/DE2-115_V.1.0.6_SystemCD/DE2_115_demonstrations/DE2_115_SD_Card_Audio_Player_Copy/Software/Audio_Player_test1_bsp/\libhal_bsp.a(alt_usleep.o)
                              obj/default/AUDIO.o (usleep)
c:/Users/Robin/Documents/NHLStenden/FPGA/QuartusPrimeProjects/DE2-115_V.1.0.6_SystemCD/DE2_115_demonstrations/DE2_115_SD_Card_Audio_Player_Copy/Software/Audio_Player_test1_bsp/\libhal_bsp.a(alt_write.o)
                              c:/intelfpga_lite/21.1/nios2eds/bin/gnu/h-x86_64-mingw32/bin/../lib/gcc/nios2-elf/10.3.1/../../../../../H-x86_64-mingw32/nios2-elf/lib\libc.a(lib_a-writer.o) (write)
c:/Users/Robin/Documents/NHLStenden/FPGA/QuartusPrimeProjects/DE2-115_V.1.0.6_SystemCD/DE2_115_demonstrations/DE2_115_SD_Card_Audio_Player_Copy/Software/Audio_Player_test1_bsp/\libhal_bsp.a(alt_sys_init.o)
                              c:/Users/Robin/Documents/NHLStenden/FPGA/QuartusPrimeProjects/DE2-115_V.1.0.6_SystemCD/DE2_115_demonstrations/DE2_115_SD_Card_Audio_Player_Copy/Software/Audio_Player_test1_bsp/\libhal_bsp.a(alt_main.o) (alt_irq_init)
c:/Users/Robin/Documents/NHLStenden/FPGA/QuartusPrimeProjects/DE2-115_V.1.0.6_SystemCD/DE2_115_demonstrations/DE2_115_SD_Card_Audio_Player_Copy/Software/Audio_Player_test1_bsp/\libhal_bsp.a(altera_avalon_cfi_flash.o)
                              c:/Users/Robin/Documents/NHLStenden/FPGA/QuartusPrimeProjects/DE2-115_V.1.0.6_SystemCD/DE2_115_demonstrations/DE2_115_SD_Card_Audio_Player_Copy/Software/Audio_Player_test1_bsp/\libhal_bsp.a(alt_sys_init.o) (alt_flash_cfi_init)
c:/Users/Robin/Documents/NHLStenden/FPGA/QuartusPrimeProjects/DE2-115_V.1.0.6_SystemCD/DE2_115_demonstrations/DE2_115_SD_Card_Audio_Player_Copy/Software/Audio_Player_test1_bsp/\libhal_bsp.a(altera_avalon_cfi_flash_table.o)
                              c:/Users/Robin/Documents/NHLStenden/FPGA/QuartusPrimeProjects/DE2-115_V.1.0.6_SystemCD/DE2_115_demonstrations/DE2_115_SD_Card_Audio_Player_Copy/Software/Audio_Player_test1_bsp/\libhal_bsp.a(altera_avalon_cfi_flash.o) (alt_set_flash_width_func)
c:/Users/Robin/Documents/NHLStenden/FPGA/QuartusPrimeProjects/DE2-115_V.1.0.6_SystemCD/DE2_115_demonstrations/DE2_115_SD_Card_Audio_Player_Copy/Software/Audio_Player_test1_bsp/\libhal_bsp.a(altera_avalon_jtag_uart_fd.o)
                              c:/Users/Robin/Documents/NHLStenden/FPGA/QuartusPrimeProjects/DE2-115_V.1.0.6_SystemCD/DE2_115_demonstrations/DE2_115_SD_Card_Audio_Player_Copy/Software/Audio_Player_test1_bsp/\libhal_bsp.a(alt_sys_init.o) (altera_avalon_jtag_uart_read_fd)
c:/Users/Robin/Documents/NHLStenden/FPGA/QuartusPrimeProjects/DE2-115_V.1.0.6_SystemCD/DE2_115_demonstrations/DE2_115_SD_Card_Audio_Player_Copy/Software/Audio_Player_test1_bsp/\libhal_bsp.a(altera_avalon_jtag_uart_init.o)
                              c:/Users/Robin/Documents/NHLStenden/FPGA/QuartusPrimeProjects/DE2-115_V.1.0.6_SystemCD/DE2_115_demonstrations/DE2_115_SD_Card_Audio_Player_Copy/Software/Audio_Player_test1_bsp/\libhal_bsp.a(alt_sys_init.o) (altera_avalon_jtag_uart_init)
c:/Users/Robin/Documents/NHLStenden/FPGA/QuartusPrimeProjects/DE2-115_V.1.0.6_SystemCD/DE2_115_demonstrations/DE2_115_SD_Card_Audio_Player_Copy/Software/Audio_Player_test1_bsp/\libhal_bsp.a(altera_avalon_jtag_uart_ioctl.o)
                              c:/Users/Robin/Documents/NHLStenden/FPGA/QuartusPrimeProjects/DE2-115_V.1.0.6_SystemCD/DE2_115_demonstrations/DE2_115_SD_Card_Audio_Player_Copy/Software/Audio_Player_test1_bsp/\libhal_bsp.a(altera_avalon_jtag_uart_fd.o) (altera_avalon_jtag_uart_ioctl)
c:/Users/Robin/Documents/NHLStenden/FPGA/QuartusPrimeProjects/DE2-115_V.1.0.6_SystemCD/DE2_115_demonstrations/DE2_115_SD_Card_Audio_Player_Copy/Software/Audio_Player_test1_bsp/\libhal_bsp.a(altera_avalon_jtag_uart_read.o)
                              c:/Users/Robin/Documents/NHLStenden/FPGA/QuartusPrimeProjects/DE2-115_V.1.0.6_SystemCD/DE2_115_demonstrations/DE2_115_SD_Card_Audio_Player_Copy/Software/Audio_Player_test1_bsp/\libhal_bsp.a(altera_avalon_jtag_uart_fd.o) (altera_avalon_jtag_uart_read)
c:/Users/Robin/Documents/NHLStenden/FPGA/QuartusPrimeProjects/DE2-115_V.1.0.6_SystemCD/DE2_115_demonstrations/DE2_115_SD_Card_Audio_Player_Copy/Software/Audio_Player_test1_bsp/\libhal_bsp.a(altera_avalon_jtag_uart_write.o)
                              c:/Users/Robin/Documents/NHLStenden/FPGA/QuartusPrimeProjects/DE2-115_V.1.0.6_SystemCD/DE2_115_demonstrations/DE2_115_SD_Card_Audio_Player_Copy/Software/Audio_Player_test1_bsp/\libhal_bsp.a(altera_avalon_jtag_uart_fd.o) (altera_avalon_jtag_uart_write)
c:/Users/Robin/Documents/NHLStenden/FPGA/QuartusPrimeProjects/DE2-115_V.1.0.6_SystemCD/DE2_115_demonstrations/DE2_115_SD_Card_Audio_Player_Copy/Software/Audio_Player_test1_bsp/\libhal_bsp.a(altera_avalon_timer_sc.o)
                              c:/Users/Robin/Documents/NHLStenden/FPGA/QuartusPrimeProjects/DE2-115_V.1.0.6_SystemCD/DE2_115_demonstrations/DE2_115_SD_Card_Audio_Player_Copy/Software/Audio_Player_test1_bsp/\libhal_bsp.a(alt_sys_init.o) (alt_avalon_timer_sc_init)
c:/Users/Robin/Documents/NHLStenden/FPGA/QuartusPrimeProjects/DE2-115_V.1.0.6_SystemCD/DE2_115_demonstrations/DE2_115_SD_Card_Audio_Player_Copy/Software/Audio_Player_test1_bsp/\libhal_bsp.a(altera_avalon_uart_fd.o)
                              c:/Users/Robin/Documents/NHLStenden/FPGA/QuartusPrimeProjects/DE2-115_V.1.0.6_SystemCD/DE2_115_demonstrations/DE2_115_SD_Card_Audio_Player_Copy/Software/Audio_Player_test1_bsp/\libhal_bsp.a(alt_sys_init.o) (altera_avalon_uart_read_fd)
c:/Users/Robin/Documents/NHLStenden/FPGA/QuartusPrimeProjects/DE2-115_V.1.0.6_SystemCD/DE2_115_demonstrations/DE2_115_SD_Card_Audio_Player_Copy/Software/Audio_Player_test1_bsp/\libhal_bsp.a(altera_avalon_uart_init.o)
                              c:/Users/Robin/Documents/NHLStenden/FPGA/QuartusPrimeProjects/DE2-115_V.1.0.6_SystemCD/DE2_115_demonstrations/DE2_115_SD_Card_Audio_Player_Copy/Software/Audio_Player_test1_bsp/\libhal_bsp.a(alt_sys_init.o) (altera_avalon_uart_init)
c:/Users/Robin/Documents/NHLStenden/FPGA/QuartusPrimeProjects/DE2-115_V.1.0.6_SystemCD/DE2_115_demonstrations/DE2_115_SD_Card_Audio_Player_Copy/Software/Audio_Player_test1_bsp/\libhal_bsp.a(altera_avalon_uart_read.o)
                              c:/Users/Robin/Documents/NHLStenden/FPGA/QuartusPrimeProjects/DE2-115_V.1.0.6_SystemCD/DE2_115_demonstrations/DE2_115_SD_Card_Audio_Player_Copy/Software/Audio_Player_test1_bsp/\libhal_bsp.a(altera_avalon_uart_fd.o) (altera_avalon_uart_read)
c:/Users/Robin/Documents/NHLStenden/FPGA/QuartusPrimeProjects/DE2-115_V.1.0.6_SystemCD/DE2_115_demonstrations/DE2_115_SD_Card_Audio_Player_Copy/Software/Audio_Player_test1_bsp/\libhal_bsp.a(altera_avalon_uart_write.o)
                              c:/Users/Robin/Documents/NHLStenden/FPGA/QuartusPrimeProjects/DE2-115_V.1.0.6_SystemCD/DE2_115_demonstrations/DE2_115_SD_Card_Audio_Player_Copy/Software/Audio_Player_test1_bsp/\libhal_bsp.a(altera_avalon_uart_fd.o) (altera_avalon_uart_write)
c:/Users/Robin/Documents/NHLStenden/FPGA/QuartusPrimeProjects/DE2-115_V.1.0.6_SystemCD/DE2_115_demonstrations/DE2_115_SD_Card_Audio_Player_Copy/Software/Audio_Player_test1_bsp/\libhal_bsp.a(alt_alarm_start.o)
                              c:/Users/Robin/Documents/NHLStenden/FPGA/QuartusPrimeProjects/DE2-115_V.1.0.6_SystemCD/DE2_115_demonstrations/DE2_115_SD_Card_Audio_Player_Copy/Software/Audio_Player_test1_bsp/\libhal_bsp.a(altera_avalon_jtag_uart_init.o) (alt_alarm_start)
c:/Users/Robin/Documents/NHLStenden/FPGA/QuartusPrimeProjects/DE2-115_V.1.0.6_SystemCD/DE2_115_demonstrations/DE2_115_SD_Card_Audio_Player_Copy/Software/Audio_Player_test1_bsp/\libhal_bsp.a(alt_busy_sleep.o)
                              c:/Users/Robin/Documents/NHLStenden/FPGA/QuartusPrimeProjects/DE2-115_V.1.0.6_SystemCD/DE2_115_demonstrations/DE2_115_SD_Card_Audio_Player_Copy/Software/Audio_Player_test1_bsp/\libhal_bsp.a(alt_usleep.o) (alt_busy_sleep)
c:/Users/Robin/Documents/NHLStenden/FPGA/QuartusPrimeProjects/DE2-115_V.1.0.6_SystemCD/DE2_115_demonstrations/DE2_115_SD_Card_Audio_Player_Copy/Software/Audio_Player_test1_bsp/\libhal_bsp.a(alt_dcache_flush.o)
                              c:/Users/Robin/Documents/NHLStenden/FPGA/QuartusPrimeProjects/DE2-115_V.1.0.6_SystemCD/DE2_115_demonstrations/DE2_115_SD_Card_Audio_Player_Copy/Software/Audio_Player_test1_bsp/\libhal_bsp.a(altera_avalon_cfi_flash.o) (alt_dcache_flush)
c:/Users/Robin/Documents/NHLStenden/FPGA/QuartusPrimeProjects/DE2-115_V.1.0.6_SystemCD/DE2_115_demonstrations/DE2_115_SD_Card_Audio_Player_Copy/Software/Audio_Player_test1_bsp/\libhal_bsp.a(alt_dcache_flush_all.o)
                              c:/Users/Robin/Documents/NHLStenden/FPGA/QuartusPrimeProjects/DE2-115_V.1.0.6_SystemCD/DE2_115_demonstrations/DE2_115_SD_Card_Audio_Player_Copy/Software/Audio_Player_test1_bsp/\libhal_bsp.a(alt_load.o) (alt_dcache_flush_all)
c:/Users/Robin/Documents/NHLStenden/FPGA/QuartusPrimeProjects/DE2-115_V.1.0.6_SystemCD/DE2_115_demonstrations/DE2_115_SD_Card_Audio_Player_Copy/Software/Audio_Player_test1_bsp/\libhal_bsp.a(alt_dev_llist_insert.o)
                              c:/Users/Robin/Documents/NHLStenden/FPGA/QuartusPrimeProjects/DE2-115_V.1.0.6_SystemCD/DE2_115_demonstrations/DE2_115_SD_Card_Audio_Player_Copy/Software/Audio_Player_test1_bsp/\libhal_bsp.a(alt_sys_init.o) (alt_dev_llist_insert)
c:/Users/Robin/Documents/NHLStenden/FPGA/QuartusPrimeProjects/DE2-115_V.1.0.6_SystemCD/DE2_115_demonstrations/DE2_115_SD_Card_Audio_Player_Copy/Software/Audio_Player_test1_bsp/\libhal_bsp.a(alt_do_ctors.o)
                              c:/Users/Robin/Documents/NHLStenden/FPGA/QuartusPrimeProjects/DE2-115_V.1.0.6_SystemCD/DE2_115_demonstrations/DE2_115_SD_Card_Audio_Player_Copy/Software/Audio_Player_test1_bsp/\libhal_bsp.a(alt_main.o) (_do_ctors)
c:/Users/Robin/Documents/NHLStenden/FPGA/QuartusPrimeProjects/DE2-115_V.1.0.6_SystemCD/DE2_115_demonstrations/DE2_115_SD_Card_Audio_Player_Copy/Software/Audio_Player_test1_bsp/\libhal_bsp.a(alt_do_dtors.o)
                              c:/Users/Robin/Documents/NHLStenden/FPGA/QuartusPrimeProjects/DE2-115_V.1.0.6_SystemCD/DE2_115_demonstrations/DE2_115_SD_Card_Audio_Player_Copy/Software/Audio_Player_test1_bsp/\libhal_bsp.a(alt_main.o) (_do_dtors)
c:/Users/Robin/Documents/NHLStenden/FPGA/QuartusPrimeProjects/DE2-115_V.1.0.6_SystemCD/DE2_115_demonstrations/DE2_115_SD_Card_Audio_Player_Copy/Software/Audio_Player_test1_bsp/\libhal_bsp.a(alt_find_dev.o)
                              c:/Users/Robin/Documents/NHLStenden/FPGA/QuartusPrimeProjects/DE2-115_V.1.0.6_SystemCD/DE2_115_demonstrations/DE2_115_SD_Card_Audio_Player_Copy/Software/Audio_Player_test1_bsp/\libhal_bsp.a(alt_open.o) (alt_find_dev)
c:/Users/Robin/Documents/NHLStenden/FPGA/QuartusPrimeProjects/DE2-115_V.1.0.6_SystemCD/DE2_115_demonstrations/DE2_115_SD_Card_Audio_Player_Copy/Software/Audio_Player_test1_bsp/\libhal_bsp.a(alt_find_file.o)
                              c:/Users/Robin/Documents/NHLStenden/FPGA/QuartusPrimeProjects/DE2-115_V.1.0.6_SystemCD/DE2_115_demonstrations/DE2_115_SD_Card_Audio_Player_Copy/Software/Audio_Player_test1_bsp/\libhal_bsp.a(alt_open.o) (alt_find_file)
c:/Users/Robin/Documents/NHLStenden/FPGA/QuartusPrimeProjects/DE2-115_V.1.0.6_SystemCD/DE2_115_demonstrations/DE2_115_SD_Card_Audio_Player_Copy/Software/Audio_Player_test1_bsp/\libhal_bsp.a(alt_flash_dev.o)
                              c:/Users/Robin/Documents/NHLStenden/FPGA/QuartusPrimeProjects/DE2-115_V.1.0.6_SystemCD/DE2_115_demonstrations/DE2_115_SD_Card_Audio_Player_Copy/Software/Audio_Player_test1_bsp/\libhal_bsp.a(altera_avalon_cfi_flash.o) (alt_flash_dev_list)
c:/Users/Robin/Documents/NHLStenden/FPGA/QuartusPrimeProjects/DE2-115_V.1.0.6_SystemCD/DE2_115_demonstrations/DE2_115_SD_Card_Audio_Player_Copy/Software/Audio_Player_test1_bsp/\libhal_bsp.a(alt_get_fd.o)
                              c:/Users/Robin/Documents/NHLStenden/FPGA/QuartusPrimeProjects/DE2-115_V.1.0.6_SystemCD/DE2_115_demonstrations/DE2_115_SD_Card_Audio_Player_Copy/Software/Audio_Player_test1_bsp/\libhal_bsp.a(alt_open.o) (alt_get_fd)
c:/Users/Robin/Documents/NHLStenden/FPGA/QuartusPrimeProjects/DE2-115_V.1.0.6_SystemCD/DE2_115_demonstrations/DE2_115_SD_Card_Audio_Player_Copy/Software/Audio_Player_test1_bsp/\libhal_bsp.a(alt_icache_flush_all.o)
                              c:/Users/Robin/Documents/NHLStenden/FPGA/QuartusPrimeProjects/DE2-115_V.1.0.6_SystemCD/DE2_115_demonstrations/DE2_115_SD_Card_Audio_Player_Copy/Software/Audio_Player_test1_bsp/\libhal_bsp.a(alt_load.o) (alt_icache_flush_all)
c:/Users/Robin/Documents/NHLStenden/FPGA/QuartusPrimeProjects/DE2-115_V.1.0.6_SystemCD/DE2_115_demonstrations/DE2_115_SD_Card_Audio_Player_Copy/Software/Audio_Player_test1_bsp/\libhal_bsp.a(alt_iic.o)
                              c:/Users/Robin/Documents/NHLStenden/FPGA/QuartusPrimeProjects/DE2-115_V.1.0.6_SystemCD/DE2_115_demonstrations/DE2_115_SD_Card_Audio_Player_Copy/Software/Audio_Player_test1_bsp/\libhal_bsp.a(altera_avalon_jtag_uart_init.o) (alt_ic_isr_register)
c:/Users/Robin/Documents/NHLStenden/FPGA/QuartusPrimeProjects/DE2-115_V.1.0.6_SystemCD/DE2_115_demonstrations/DE2_115_SD_Card_Audio_Player_Copy/Software/Audio_Player_test1_bsp/\libhal_bsp.a(alt_iic_isr_register.o)
                              c:/Users/Robin/Documents/NHLStenden/FPGA/QuartusPrimeProjects/DE2-115_V.1.0.6_SystemCD/DE2_115_demonstrations/DE2_115_SD_Card_Audio_Player_Copy/Software/Audio_Player_test1_bsp/\libhal_bsp.a(alt_iic.o) (alt_iic_isr_register)
c:/Users/Robin/Documents/NHLStenden/FPGA/QuartusPrimeProjects/DE2-115_V.1.0.6_SystemCD/DE2_115_demonstrations/DE2_115_SD_Card_Audio_Player_Copy/Software/Audio_Player_test1_bsp/\libhal_bsp.a(alt_io_redirect.o)
                              c:/Users/Robin/Documents/NHLStenden/FPGA/QuartusPrimeProjects/DE2-115_V.1.0.6_SystemCD/DE2_115_demonstrations/DE2_115_SD_Card_Audio_Player_Copy/Software/Audio_Player_test1_bsp/\libhal_bsp.a(alt_main.o) (alt_io_redirect)
c:/Users/Robin/Documents/NHLStenden/FPGA/QuartusPrimeProjects/DE2-115_V.1.0.6_SystemCD/DE2_115_demonstrations/DE2_115_SD_Card_Audio_Player_Copy/Software/Audio_Player_test1_bsp/\libhal_bsp.a(alt_irq_entry.o)
                              c:/Users/Robin/Documents/NHLStenden/FPGA/QuartusPrimeProjects/DE2-115_V.1.0.6_SystemCD/DE2_115_demonstrations/DE2_115_SD_Card_Audio_Player_Copy/Software/Audio_Player_test1_bsp/\libhal_bsp.a(alt_irq_register.o) (alt_irq_entry)
c:/Users/Robin/Documents/NHLStenden/FPGA/QuartusPrimeProjects/DE2-115_V.1.0.6_SystemCD/DE2_115_demonstrations/DE2_115_SD_Card_Audio_Player_Copy/Software/Audio_Player_test1_bsp/\libhal_bsp.a(alt_irq_handler.o)
                              c:/Users/Robin/Documents/NHLStenden/FPGA/QuartusPrimeProjects/DE2-115_V.1.0.6_SystemCD/DE2_115_demonstrations/DE2_115_SD_Card_Audio_Player_Copy/Software/Audio_Player_test1_bsp/\libhal_bsp.a(alt_irq_register.o) (alt_irq)
c:/Users/Robin/Documents/NHLStenden/FPGA/QuartusPrimeProjects/DE2-115_V.1.0.6_SystemCD/DE2_115_demonstrations/DE2_115_SD_Card_Audio_Player_Copy/Software/Audio_Player_test1_bsp/\libhal_bsp.a(altera_nios2_irq.o)
                              c:/Users/Robin/Documents/NHLStenden/FPGA/QuartusPrimeProjects/DE2-115_V.1.0.6_SystemCD/DE2_115_demonstrations/DE2_115_SD_Card_Audio_Player_Copy/Software/Audio_Player_test1_bsp/\libhal_bsp.a(alt_sys_init.o) (altera_nios2_irq_init)
c:/Users/Robin/Documents/NHLStenden/FPGA/QuartusPrimeProjects/DE2-115_V.1.0.6_SystemCD/DE2_115_demonstrations/DE2_115_SD_Card_Audio_Player_Copy/Software/Audio_Player_test1_bsp/\libhal_bsp.a(altera_avalon_cfi_flash_amd.o)
                              c:/Users/Robin/Documents/NHLStenden/FPGA/QuartusPrimeProjects/DE2-115_V.1.0.6_SystemCD/DE2_115_demonstrations/DE2_115_SD_Card_Audio_Player_Copy/Software/Audio_Player_test1_bsp/\libhal_bsp.a(altera_avalon_cfi_flash_table.o) (alt_program_amd)
c:/Users/Robin/Documents/NHLStenden/FPGA/QuartusPrimeProjects/DE2-115_V.1.0.6_SystemCD/DE2_115_demonstrations/DE2_115_SD_Card_Audio_Player_Copy/Software/Audio_Player_test1_bsp/\libhal_bsp.a(altera_avalon_cfi_flash_intel.o)
                              c:/Users/Robin/Documents/NHLStenden/FPGA/QuartusPrimeProjects/DE2-115_V.1.0.6_SystemCD/DE2_115_demonstrations/DE2_115_SD_Card_Audio_Player_Copy/Software/Audio_Player_test1_bsp/\libhal_bsp.a(altera_avalon_cfi_flash_table.o) (alt_program_intel)
c:/Users/Robin/Documents/NHLStenden/FPGA/QuartusPrimeProjects/DE2-115_V.1.0.6_SystemCD/DE2_115_demonstrations/DE2_115_SD_Card_Audio_Player_Copy/Software/Audio_Player_test1_bsp/\libhal_bsp.a(alt_exception_entry.o)
                              c:/Users/Robin/Documents/NHLStenden/FPGA/QuartusPrimeProjects/DE2-115_V.1.0.6_SystemCD/DE2_115_demonstrations/DE2_115_SD_Card_Audio_Player_Copy/Software/Audio_Player_test1_bsp/\libhal_bsp.a(alt_irq_entry.o) (alt_exception)
c:/Users/Robin/Documents/NHLStenden/FPGA/QuartusPrimeProjects/DE2-115_V.1.0.6_SystemCD/DE2_115_demonstrations/DE2_115_SD_Card_Audio_Player_Copy/Software/Audio_Player_test1_bsp/\libhal_bsp.a(alt_icache_flush.o)
                              c:/Users/Robin/Documents/NHLStenden/FPGA/QuartusPrimeProjects/DE2-115_V.1.0.6_SystemCD/DE2_115_demonstrations/DE2_115_SD_Card_Audio_Player_Copy/Software/Audio_Player_test1_bsp/\libhal_bsp.a(alt_icache_flush_all.o) (alt_icache_flush)
c:/intelfpga_lite/21.1/nios2eds/bin/gnu/h-x86_64-mingw32/bin/../lib/gcc/nios2-elf/10.3.1/../../../../../H-x86_64-mingw32/nios2-elf/lib\libc.a(lib_a-atexit.o)
                              c:/Users/Robin/Documents/NHLStenden/FPGA/QuartusPrimeProjects/DE2-115_V.1.0.6_SystemCD/DE2_115_demonstrations/DE2_115_SD_Card_Audio_Player_Copy/Software/Audio_Player_test1_bsp/\libhal_bsp.a(alt_main.o) (atexit)
c:/intelfpga_lite/21.1/nios2eds/bin/gnu/h-x86_64-mingw32/bin/../lib/gcc/nios2-elf/10.3.1/../../../../../H-x86_64-mingw32/nios2-elf/lib\libc.a(lib_a-exit.o)
                              c:/Users/Robin/Documents/NHLStenden/FPGA/QuartusPrimeProjects/DE2-115_V.1.0.6_SystemCD/DE2_115_demonstrations/DE2_115_SD_Card_Audio_Player_Copy/Software/Audio_Player_test1_bsp/\libhal_bsp.a(alt_main.o) (exit)
c:/intelfpga_lite/21.1/nios2eds/bin/gnu/h-x86_64-mingw32/bin/../lib/gcc/nios2-elf/10.3.1/../../../../../H-x86_64-mingw32/nios2-elf/lib\libc.a(lib_a-memcmp.o)
                              c:/Users/Robin/Documents/NHLStenden/FPGA/QuartusPrimeProjects/DE2-115_V.1.0.6_SystemCD/DE2_115_demonstrations/DE2_115_SD_Card_Audio_Player_Copy/Software/Audio_Player_test1_bsp/\libhal_bsp.a(altera_avalon_cfi_flash.o) (memcmp)
c:/intelfpga_lite/21.1/nios2eds/bin/gnu/h-x86_64-mingw32/bin/../lib/gcc/nios2-elf/10.3.1/../../../../../H-x86_64-mingw32/nios2-elf/lib\libc.a(lib_a-__atexit.o)
                              c:/intelfpga_lite/21.1/nios2eds/bin/gnu/h-x86_64-mingw32/bin/../lib/gcc/nios2-elf/10.3.1/../../../../../H-x86_64-mingw32/nios2-elf/lib\libc.a(lib_a-atexit.o) (__register_exitproc)
c:/intelfpga_lite/21.1/nios2eds/bin/gnu/h-x86_64-mingw32/bin/../lib/gcc/nios2-elf/10.3.1/../../../../../H-x86_64-mingw32/nios2-elf/lib\libc.a(lib_a-__call_atexit.o)
                              c:/intelfpga_lite/21.1/nios2eds/bin/gnu/h-x86_64-mingw32/bin/../lib/gcc/nios2-elf/10.3.1/../../../../../H-x86_64-mingw32/nios2-elf/lib\libc.a(lib_a-exit.o) (__call_exitprocs)

Memory Configuration

Name             Origin             Length             Attributes
cfi_flash        0x0000000002800000 0x0000000000800000
reset            0x0000000003040000 0x0000000000000020
onchip_memory2   0x0000000003040020 0x000000000003ffe0
*default*        0x0000000000000000 0xffffffffffffffff

Linker script and memory map

LOAD c:/Users/Robin/Documents/NHLStenden/FPGA/QuartusPrimeProjects/DE2-115_V.1.0.6_SystemCD/DE2_115_demonstrations/DE2_115_SD_Card_Audio_Player_Copy/Software/Audio_Player_test1_bsp//obj/HAL/src/crt0.o
LOAD obj/default/AUDIO.o
LOAD obj/default/FatFileSystem.o
LOAD obj/default/FatInternal.o
LOAD obj/default/I2C.o
LOAD obj/default/LCD.o
LOAD obj/default/LED.o
LOAD obj/default/SEG7.o
LOAD obj/default/WaveLib.o
LOAD obj/default/crc16.o
LOAD obj/default/crc7.o
LOAD obj/default/debug.o
LOAD obj/default/hello_world.o
LOAD obj/default/sd_hal.o
LOAD obj/default/sd_lib.o
LOAD obj/default/sd_protocol.o
LOAD c:/intelfpga_lite/21.1/nios2eds/bin/gnu/h-x86_64-mingw32/bin/../lib/gcc/nios2-elf/10.3.1/../../../../../H-x86_64-mingw32/nios2-elf/lib\libstdc++.a
LOAD c:/intelfpga_lite/21.1/nios2eds/bin/gnu/h-x86_64-mingw32/bin/../lib/gcc/nios2-elf/10.3.1/../../../../../H-x86_64-mingw32/nios2-elf/lib\libm.a
LOAD c:/intelfpga_lite/21.1/nios2eds/bin/gnu/h-x86_64-mingw32/bin/../lib/gcc/nios2-elf/10.3.1\libgcc.a
START GROUP
LOAD c:/intelfpga_lite/21.1/nios2eds/bin/gnu/h-x86_64-mingw32/bin/../lib/gcc/nios2-elf/10.3.1/../../../../../H-x86_64-mingw32/nios2-elf/lib\libc.a
LOAD c:/intelfpga_lite/21.1/nios2eds/bin/gnu/h-x86_64-mingw32/bin/../lib/gcc/nios2-elf/10.3.1\libgcc.a
LOAD c:/Users/Robin/Documents/NHLStenden/FPGA/QuartusPrimeProjects/DE2-115_V.1.0.6_SystemCD/DE2_115_demonstrations/DE2_115_SD_Card_Audio_Player_Copy/Software/Audio_Player_test1_bsp/\libhal_bsp.a
LOAD c:/intelfpga_lite/21.1/nios2eds/bin/gnu/h-x86_64-mingw32/bin/../lib/gcc/nios2-elf/10.3.1/../../../../../H-x86_64-mingw32/nios2-elf/lib\libm.a
END GROUP
LOAD c:/intelfpga_lite/21.1/nios2eds/bin/gnu/h-x86_64-mingw32/bin/../lib/gcc/nios2-elf/10.3.1\libgcc.a
                0x0000000002800000                __alt_mem_cfi_flash = 0x2800000
                0x0000000003040000                __alt_mem_onchip_memory2 = 0x3040000

.entry          0x0000000003040000       0x20
 *(.entry)
 .entry         0x0000000003040000       0x20 c:/Users/Robin/Documents/NHLStenden/FPGA/QuartusPrimeProjects/DE2-115_V.1.0.6_SystemCD/DE2_115_demonstrations/DE2_115_SD_Card_Audio_Player_Copy/Software/Audio_Player_test1_bsp//obj/HAL/src/crt0.o
                0x0000000003040000                __reset

.exceptions     0x0000000003040020      0x194
                0x0000000003040020                PROVIDE (__ram_exceptions_start = ABSOLUTE (.))
                0x0000000003040020                . = ALIGN (0x20)
 *(.irq)
 *(.exceptions.entry.label)
 .exceptions.entry.label
                0x0000000003040020        0x0 c:/Users/Robin/Documents/NHLStenden/FPGA/QuartusPrimeProjects/DE2-115_V.1.0.6_SystemCD/DE2_115_demonstrations/DE2_115_SD_Card_Audio_Player_Copy/Software/Audio_Player_test1_bsp/\libhal_bsp.a(alt_irq_entry.o)
                0x0000000003040020                alt_irq_entry
 .exceptions.entry.label
                0x0000000003040020        0x0 c:/Users/Robin/Documents/NHLStenden/FPGA/QuartusPrimeProjects/DE2-115_V.1.0.6_SystemCD/DE2_115_demonstrations/DE2_115_SD_Card_Audio_Player_Copy/Software/Audio_Player_test1_bsp/\libhal_bsp.a(alt_exception_entry.o)
                0x0000000003040020                alt_exception
 *(.exceptions.entry.user)
 *(.exceptions.entry.ecc_fatal)
 *(.exceptions.entry)
 .exceptions.entry
                0x0000000003040020       0x54 c:/Users/Robin/Documents/NHLStenden/FPGA/QuartusPrimeProjects/DE2-115_V.1.0.6_SystemCD/DE2_115_demonstrations/DE2_115_SD_Card_Audio_Player_Copy/Software/Audio_Player_test1_bsp/\libhal_bsp.a(alt_exception_entry.o)
 *(.exceptions.irqtest.user)
 *(.exceptions.irqtest)
 .exceptions.irqtest
                0x0000000003040074       0x10 c:/Users/Robin/Documents/NHLStenden/FPGA/QuartusPrimeProjects/DE2-115_V.1.0.6_SystemCD/DE2_115_demonstrations/DE2_115_SD_Card_Audio_Player_Copy/Software/Audio_Player_test1_bsp/\libhal_bsp.a(alt_irq_entry.o)
 *(.exceptions.irqhandler.user)
 *(.exceptions.irqhandler)
 .exceptions.irqhandler
                0x0000000003040084        0x4 c:/Users/Robin/Documents/NHLStenden/FPGA/QuartusPrimeProjects/DE2-115_V.1.0.6_SystemCD/DE2_115_demonstrations/DE2_115_SD_Card_Audio_Player_Copy/Software/Audio_Player_test1_bsp/\libhal_bsp.a(alt_irq_entry.o)
 *(.exceptions.irqreturn.user)
 *(.exceptions.irqreturn)
 .exceptions.irqreturn
                0x0000000003040088        0x4 c:/Users/Robin/Documents/NHLStenden/FPGA/QuartusPrimeProjects/DE2-115_V.1.0.6_SystemCD/DE2_115_demonstrations/DE2_115_SD_Card_Audio_Player_Copy/Software/Audio_Player_test1_bsp/\libhal_bsp.a(alt_irq_entry.o)
 *(.exceptions.notirq.label)
 .exceptions.notirq.label
                0x000000000304008c        0x0 c:/Users/Robin/Documents/NHLStenden/FPGA/QuartusPrimeProjects/DE2-115_V.1.0.6_SystemCD/DE2_115_demonstrations/DE2_115_SD_Card_Audio_Player_Copy/Software/Audio_Player_test1_bsp/\libhal_bsp.a(alt_irq_entry.o)
 *(.exceptions.notirq.user)
 *(.exceptions.notirq)
 .exceptions.notirq
                0x000000000304008c        0x8 c:/Users/Robin/Documents/NHLStenden/FPGA/QuartusPrimeProjects/DE2-115_V.1.0.6_SystemCD/DE2_115_demonstrations/DE2_115_SD_Card_Audio_Player_Copy/Software/Audio_Player_test1_bsp/\libhal_bsp.a(alt_exception_entry.o)
 *(.exceptions.soft.user)
 *(.exceptions.soft)
 *(.exceptions.unknown.user)
 *(.exceptions.unknown)
 .exceptions.unknown
                0x0000000003040094        0x4 c:/Users/Robin/Documents/NHLStenden/FPGA/QuartusPrimeProjects/DE2-115_V.1.0.6_SystemCD/DE2_115_demonstrations/DE2_115_SD_Card_Audio_Player_Copy/Software/Audio_Player_test1_bsp/\libhal_bsp.a(alt_exception_entry.o)
 *(.exceptions.exit.label)
 .exceptions.exit.label
                0x0000000003040098        0x0 c:/Users/Robin/Documents/NHLStenden/FPGA/QuartusPrimeProjects/DE2-115_V.1.0.6_SystemCD/DE2_115_demonstrations/DE2_115_SD_Card_Audio_Player_Copy/Software/Audio_Player_test1_bsp/\libhal_bsp.a(alt_irq_entry.o)
 .exceptions.exit.label
                0x0000000003040098        0x0 c:/Users/Robin/Documents/NHLStenden/FPGA/QuartusPrimeProjects/DE2-115_V.1.0.6_SystemCD/DE2_115_demonstrations/DE2_115_SD_Card_Audio_Player_Copy/Software/Audio_Player_test1_bsp/\libhal_bsp.a(alt_exception_entry.o)
 *(.exceptions.exit.user)
 *(.exceptions.exit)
 .exceptions.exit
                0x0000000003040098       0x54 c:/Users/Robin/Documents/NHLStenden/FPGA/QuartusPrimeProjects/DE2-115_V.1.0.6_SystemCD/DE2_115_demonstrations/DE2_115_SD_Card_Audio_Player_Copy/Software/Audio_Player_test1_bsp/\libhal_bsp.a(alt_exception_entry.o)
 *(.exceptions)
 .exceptions    0x00000000030400ec       0xc8 c:/Users/Robin/Documents/NHLStenden/FPGA/QuartusPrimeProjects/DE2-115_V.1.0.6_SystemCD/DE2_115_demonstrations/DE2_115_SD_Card_Audio_Player_Copy/Software/Audio_Player_test1_bsp/\libhal_bsp.a(alt_irq_handler.o)
                0x00000000030400ec                alt_irq_handler
                0x00000000030401b4                PROVIDE (__ram_exceptions_end = ABSOLUTE (.))
                0x0000000003040020                PROVIDE (__flash_exceptions_start = LOADADDR (.exceptions))

.text           0x00000000030401b4    0x1f9ac
                [!provide]                        PROVIDE (stext = ABSOLUTE (.))
 *(.interp)
 *(.hash)
 *(.dynsym)
 *(.dynstr)
 *(.gnu.version)
 *(.gnu.version_d)
 *(.gnu.version_r)
 *(.rel.init)
 *(.rela.init)
 *(.rel.text .rel.text.* .rel.gnu.linkonce.t.*)
 *(.rela.text .rela.text.* .rela.gnu.linkonce.t.*)
 *(.rel.fini)
 *(.rela.fini)
 *(.rel.rodata .rel.rodata.* .rel.gnu.linkonce.r.*)
 *(.rela.rodata .rela.rodata.* .rela.gnu.linkonce.r.*)
 *(.rel.data .rel.data.* .rel.gnu.linkonce.d.*)
 *(.rela.data .rela.data.* .rela.gnu.linkonce.d.*)
 *(.rel.tdata .rel.tdata.* .rel.gnu.linkonce.td.*)
 *(.rela.tdata .rela.tdata.* .rela.gnu.linkonce.td.*)
 *(.rel.tbss .rel.tbss.* .rel.gnu.linkonce.tb.*)
 *(.rela.tbss .rela.tbss.* .rela.gnu.linkonce.tb.*)
 *(.rel.ctors)
 *(.rela.ctors)
 *(.rel.dtors)
 *(.rela.dtors)
 *(.rel.got)
 *(.rela.got)
 *(.rel.sdata .rel.sdata.* .rel.gnu.linkonce.s.*)
 *(.rela.sdata .rela.sdata.* .rela.gnu.linkonce.s.*)
 *(.rel.sbss .rel.sbss.* .rel.gnu.linkonce.sb.*)
 *(.rela.sbss .rela.sbss.* .rela.gnu.linkonce.sb.*)
 *(.rel.sdata2 .rel.sdata2.* .rel.gnu.linkonce.s2.*)
 *(.rela.sdata2 .rela.sdata2.* .rela.gnu.linkonce.s2.*)
 *(.rel.sbss2 .rel.sbss2.* .rel.gnu.linkonce.sb2.*)
 *(.rela.sbss2 .rela.sbss2.* .rela.gnu.linkonce.sb2.*)
 *(.rel.bss .rel.bss.* .rel.gnu.linkonce.b.*)
 *(.rela.bss .rela.bss.* .rela.gnu.linkonce.b.*)
 *(.rel.plt)
 *(.rela.plt)
 *(.rel.dyn)
 *(.init)
 *(.plt)
 *(.text .stub .text.* .gnu.linkonce.t.*)
 .text          0x00000000030401b4       0x4c c:/Users/Robin/Documents/NHLStenden/FPGA/QuartusPrimeProjects/DE2-115_V.1.0.6_SystemCD/DE2_115_demonstrations/DE2_115_SD_Card_Audio_Player_Copy/Software/Audio_Player_test1_bsp//obj/HAL/src/crt0.o
                0x00000000030401b4                _start
 .text          0x0000000003040200      0xcf8 obj/default/AUDIO.o
                0x0000000003040200                AUDIO_Init
                0x0000000003040388                AUDIO_InterfaceActive
                0x00000000030403d0                AUDIO_MicBoost
                0x0000000003040444                AUDIO_AdcEnableHighPassFilter
                0x00000000030404b8                AUDIO_DacDeemphasisControl
                0x0000000003040570                AUDIO_DacEnableZeroCross
                0x0000000003040648                AUDIO_DacEnableSoftMute
                0x00000000030406d0                AUDIO_MicMute
                0x0000000003040758                AUDIO_LineInMute
                0x0000000003040830                AUDIO_SetInputSource
                0x00000000030408bc                AUDIO_SetSampleRate
                0x000000000304099c                AUDIO_SetLineInVol
                0x0000000003040aac                AUDIO_SetLineOutVol
                0x0000000003040bbc                AUDIO_EnableByPass
                0x0000000003040c44                AUDIO_EnableSiteTone
                0x0000000003040ccc                aduio_RegWrite
                0x0000000003040dc0                AUDIO_DacFifoNotFull
                0x0000000003040df8                AUDIO_DacFifoSetData
                0x0000000003040e44                AUDIO_AdcFifoNotEmpty
                0x0000000003040e7c                AUDIO_AdcFifoGetData
                0x0000000003040ecc                AUDIO_FifoClear
 .text          0x0000000003040ef8     0x13f4 obj/default/FatFileSystem.o
                0x0000000003040ef8                Fat_Mount
                0x0000000003040f3c                Fat_Unmount
                0x0000000003040f8c                Fat_Type
                0x0000000003040ff8                Fat_FileBrowseBegin
                0x000000000304106c                Fat_FileBrowseNext
                0x00000000030414dc                Fat_FileCount
                0x0000000003041550                fatSameLongFilename
                0x00000000030415e4                fatComposeShortFilename
                0x000000000304178c                Fat_FileExist
                0x0000000003041850                Fat_FileOpen
                0x0000000003041a7c                Fat_FileSize
                0x0000000003041ac4                Fat_FileRead
                0x0000000003041f64                Fat_FileSeek
                0x0000000003042080                Fat_FileClose
                0x00000000030420c8                Fat_SpeedTest
 .text          0x00000000030422ec     0x1880 obj/default/FatInternal.o
                0x00000000030422ec                fat16ClusterType
                0x000000000304239c                fat32ClusterType
                0x0000000003042468                fatNextCluster
                0x00000000030425d4                fatFindUnusedCluster
                0x0000000003042758                fatDelClusterList
                0x0000000003042948                fatDumpDate
                0x00000000030429d4                fatDumpTime
                0x0000000003042a60                fatIsLastDir
                0x0000000003042aa4                fatIsValidDir
                0x0000000003042b48                fatIsUnusedDir
                0x0000000003042b90                fatDump
                0x00000000030432b8                fatArray2Value
                0x0000000003043340                fatReadSecter
                0x00000000030433d8                fatFindDirectory
                0x0000000003043488                fatFindUnusedDirectory
                0x00000000030435b0                fatMount
                0x00000000030439a0                SD_ReadBlock512
                0x00000000030439dc                SD_WriteBlock512
                0x0000000003043a18                fatMountSdcard
 .text          0x0000000003043b6c      0x730 obj/default/I2C.o
                0x0000000003043b6c                I2C_Write
                0x0000000003043c6c                I2C_Read
                0x0000000003043d94                I2C_MultipleRead
                0x0000000003043f10                i2c_start
                0x0000000003043f9c                i2c_stop
                0x0000000003044014                i2c_write
                0x0000000003044144                i2c_read
 .text          0x000000000304429c      0x36c obj/default/LCD.o
                0x000000000304429c                LCD_Open
                0x00000000030442ec                LCD_TextOut
                0x000000000304434c                LCD_Clear
                0x00000000030443d4                LCD_Close
                0x0000000003044414                LCD_Init
                0x00000000030444a0                LCD_Show_Text
                0x0000000003044524                LCD_Line2
                0x0000000003044560                LCD_Test
 .text          0x0000000003044608      0x130 obj/default/LED.o
                0x0000000003044608                LED_AllOn
                0x0000000003044638                LED_AllOff
                0x0000000003044668                LED_Display
                0x00000000030446b4                LED_LightCount
 .text          0x0000000003044738      0x2f8 obj/default/SEG7.o
                0x0000000003044738                SEG7_Clear
                0x000000000304479c                SEG7_Full
                0x0000000003044800                SEG7_Number
                0x0000000003044874                SEG7_Hex
                0x0000000003044944                SEG7_Decimal
 .text          0x0000000003044a30      0x504 obj/default/WaveLib.o
                0x0000000003044a30                waveGetChunkOffset
                0x0000000003044b60                WAVE_IsWaveFile
                0x0000000003044cac                Wave_GetSampleRate
                0x0000000003044d40                Wave_GetChannelNum
                0x0000000003044dc0                Wave_GetSampleBitNum
                0x0000000003044e40                Wave_GetDataByteSize
                0x0000000003044ed4                Wave_GetWaveOffset
 .text          0x0000000003044f34       0xa0 obj/default/crc16.o
                0x0000000003044f34                crc16
 .text          0x0000000003044fd4       0xc0 obj/default/crc7.o
                0x0000000003044fd4                crc7_byte
                0x0000000003045024                crc7
 .text          0x0000000003045094      0x1b0 obj/default/debug.o
                0x0000000003045094                debug_output
                0x00000000030450c8                myprintf
                0x0000000003045134                myprintf_hexarray
                0x00000000030451bc                myprintf_dwordarray
 .text          0x0000000003045244     0x15c8 obj/default/hello_world.o
                0x0000000003045244                welcome_display
                0x00000000030452b4                demo_introduce
                0x0000000003045354                update_status
                0x00000000030453e4                DisplayTime
                0x0000000003045438                lcd_open
                0x0000000003045464                lcd_display
                0x000000000304549c                led_display
                0x00000000030454d0                led_display_count
                0x000000000304550c                wait_sdcard_insert
                0x00000000030455b8                is_supporrted_sample_rate
                0x0000000003045654                build_wave_play_list
                0x0000000003045a2c                waveplay_start
                0x0000000003045c8c                waveplay_execute
                0x0000000003045f3c                waveplay_stop
                0x0000000003045f5c                handle_key
                0x000000000304614c                IRDA_init
                0x00000000030461f4                handle_IrDA
                0x000000000304650c                Fat_Test
                0x00000000030467c4                main
 .text          0x000000000304680c      0x690 obj/default/sd_hal.o
                0x000000000304680c                SDHAL_IsSupport4Bits
                0x0000000003046838                SDHAL_Init
                0x0000000003046894                SDHAL_SendCmd
                0x000000000304697c                SDHAL_GetResponse
                0x0000000003046b68                SDHAL_ReadData
                0x0000000003046c90                SDHAL_WriteData
                0x0000000003046e3c                SDHAL_DummyClock
 .text          0x0000000003046e9c      0x430 obj/default/sd_lib.o
                0x0000000003046e9c                SDLIB_Init
                0x00000000030471d4                SDLIB_ReadBlock512
                0x0000000003047250                SDLIB_WriteBlock512
 .text          0x00000000030472cc     0x1664 obj/default/sd_protocol.o
                0x00000000030472cc                SD_Init
                0x00000000030472f8                SD_IsSupport4Bits
                0x0000000003047320                SD_CMD0
                0x00000000030473ac                SD_CMD8
                0x000000000304753c                SD_CMD55
                0x00000000030476c0                SD_ACMD41
                0x000000000304784c                SD_CMD2
                0x00000000030479d4                SD_CMD3
                0x0000000003047b60                SD_CMD9
                0x0000000003047d10                SD_CMD10
                0x0000000003047ec0                SD_CMD7
                0x0000000003048040                SD_CMD16
                0x00000000030481e0                SD_ACMD6
                0x000000000304836c                SD_ACMD42
                0x00000000030484ec                SD_CMD17
                0x0000000003048694                SD_CMD24
                0x000000000304883c                SD_ReadData
                0x000000000304887c                SD_WriteData
                0x00000000030488bc                ArrayToU32
 .text          0x0000000003048930      0x1b4 c:/intelfpga_lite/21.1/nios2eds/bin/gnu/h-x86_64-mingw32/bin/../lib/gcc/nios2-elf/10.3.1\libgcc.a(lib2-divmod.o)
                0x0000000003048930                __divsi3
                0x00000000030489b0                __modsi3
                0x0000000003048a24                __udivsi3
                0x0000000003048a88                __umodsi3
 .text          0x0000000003048ae4      0x3f8 c:/intelfpga_lite/21.1/nios2eds/bin/gnu/h-x86_64-mingw32/bin/../lib/gcc/nios2-elf/10.3.1\libgcc.a(divsf3.o)
                0x0000000003048ae4                __divsf3
 .text          0x0000000003048edc      0x3b4 c:/intelfpga_lite/21.1/nios2eds/bin/gnu/h-x86_64-mingw32/bin/../lib/gcc/nios2-elf/10.3.1\libgcc.a(mulsf3.o)
                0x0000000003048edc                __mulsf3
 .text          0x0000000003049290       0xfc c:/intelfpga_lite/21.1/nios2eds/bin/gnu/h-x86_64-mingw32/bin/../lib/gcc/nios2-elf/10.3.1\libgcc.a(floatunsisf.o)
                0x0000000003049290                __floatunsisf
 .text          0x000000000304938c      0x850 c:/intelfpga_lite/21.1/nios2eds/bin/gnu/h-x86_64-mingw32/bin/../lib/gcc/nios2-elf/10.3.1\libgcc.a(divdf3.o)
                0x000000000304938c                __divdf3
 .text          0x0000000003049bdc       0xfc c:/intelfpga_lite/21.1/nios2eds/bin/gnu/h-x86_64-mingw32/bin/../lib/gcc/nios2-elf/10.3.1\libgcc.a(extendsfdf2.o)
                0x0000000003049bdc                __extendsfdf2
 .text          0x0000000003049cd8      0x170 c:/intelfpga_lite/21.1/nios2eds/bin/gnu/h-x86_64-mingw32/bin/../lib/gcc/nios2-elf/10.3.1\libgcc.a(truncdfsf2.o)
                0x0000000003049cd8                __truncdfsf2
 .text          0x0000000003049e48       0x54 c:/intelfpga_lite/21.1/nios2eds/bin/gnu/h-x86_64-mingw32/bin/../lib/gcc/nios2-elf/10.3.1\libgcc.a(_clzsi2.o)
                0x0000000003049e48                __clzsi2
 .text          0x0000000003049e9c        0x0 c:/intelfpga_lite/21.1/nios2eds/bin/gnu/h-x86_64-mingw32/bin/../lib/gcc/nios2-elf/10.3.1\libgcc.a(_clz.o)
 .text          0x0000000003049e9c        0x0 c:/intelfpga_lite/21.1/nios2eds/bin/gnu/h-x86_64-mingw32/bin/../lib/gcc/nios2-elf/10.3.1/../../../../../H-x86_64-mingw32/nios2-elf/lib\libc.a(lib_a-fclose.o)
 .text._fclose_r.part.0
                0x0000000003049e9c       0xc0 c:/intelfpga_lite/21.1/nios2eds/bin/gnu/h-x86_64-mingw32/bin/../lib/gcc/nios2-elf/10.3.1/../../../../../H-x86_64-mingw32/nios2-elf/lib\libc.a(lib_a-fclose.o)
 .text._fclose_r
                0x0000000003049f5c       0x70 c:/intelfpga_lite/21.1/nios2eds/bin/gnu/h-x86_64-mingw32/bin/../lib/gcc/nios2-elf/10.3.1/../../../../../H-x86_64-mingw32/nios2-elf/lib\libc.a(lib_a-fclose.o)
                0x0000000003049f5c                _fclose_r
 .text.fclose   0x0000000003049fcc       0x70 c:/intelfpga_lite/21.1/nios2eds/bin/gnu/h-x86_64-mingw32/bin/../lib/gcc/nios2-elf/10.3.1/../../../../../H-x86_64-mingw32/nios2-elf/lib\libc.a(lib_a-fclose.o)
                0x0000000003049fcc                fclose
 .text          0x000000000304a03c        0x0 c:/intelfpga_lite/21.1/nios2eds/bin/gnu/h-x86_64-mingw32/bin/../lib/gcc/nios2-elf/10.3.1/../../../../../H-x86_64-mingw32/nios2-elf/lib\libc.a(lib_a-fflush.o)
 .text.__sflush_r
                0x000000000304a03c      0x228 c:/intelfpga_lite/21.1/nios2eds/bin/gnu/h-x86_64-mingw32/bin/../lib/gcc/nios2-elf/10.3.1/../../../../../H-x86_64-mingw32/nios2-elf/lib\libc.a(lib_a-fflush.o)
                0x000000000304a03c                __sflush_r
 .text._fflush_r
                0x000000000304a264       0x60 c:/intelfpga_lite/21.1/nios2eds/bin/gnu/h-x86_64-mingw32/bin/../lib/gcc/nios2-elf/10.3.1/../../../../../H-x86_64-mingw32/nios2-elf/lib\libc.a(lib_a-fflush.o)
                0x000000000304a264                _fflush_r
 .text.fflush   0x000000000304a2c4       0x84 c:/intelfpga_lite/21.1/nios2eds/bin/gnu/h-x86_64-mingw32/bin/../lib/gcc/nios2-elf/10.3.1/../../../../../H-x86_64-mingw32/nios2-elf/lib\libc.a(lib_a-fflush.o)
                0x000000000304a2c4                fflush
 .text          0x000000000304a348        0x0 c:/intelfpga_lite/21.1/nios2eds/bin/gnu/h-x86_64-mingw32/bin/../lib/gcc/nios2-elf/10.3.1/../../../../../H-x86_64-mingw32/nios2-elf/lib\libc.a(lib_a-findfp.o)
 .text.__fp_lock
                0x000000000304a348        0x8 c:/intelfpga_lite/21.1/nios2eds/bin/gnu/h-x86_64-mingw32/bin/../lib/gcc/nios2-elf/10.3.1/../../../../../H-x86_64-mingw32/nios2-elf/lib\libc.a(lib_a-findfp.o)
 .text._cleanup_r
                0x000000000304a350        0xc c:/intelfpga_lite/21.1/nios2eds/bin/gnu/h-x86_64-mingw32/bin/../lib/gcc/nios2-elf/10.3.1/../../../../../H-x86_64-mingw32/nios2-elf/lib\libc.a(lib_a-findfp.o)
                0x000000000304a350                _cleanup_r
 .text.__fp_unlock
                0x000000000304a35c        0x8 c:/intelfpga_lite/21.1/nios2eds/bin/gnu/h-x86_64-mingw32/bin/../lib/gcc/nios2-elf/10.3.1/../../../../../H-x86_64-mingw32/nios2-elf/lib\libc.a(lib_a-findfp.o)
 .text.__sinit.part.0
                0x000000000304a364      0x168 c:/intelfpga_lite/21.1/nios2eds/bin/gnu/h-x86_64-mingw32/bin/../lib/gcc/nios2-elf/10.3.1/../../../../../H-x86_64-mingw32/nios2-elf/lib\libc.a(lib_a-findfp.o)
 .text.__sfmoreglue
                0x000000000304a4cc       0x68 c:/intelfpga_lite/21.1/nios2eds/bin/gnu/h-x86_64-mingw32/bin/../lib/gcc/nios2-elf/10.3.1/../../../../../H-x86_64-mingw32/nios2-elf/lib\libc.a(lib_a-findfp.o)
                0x000000000304a4cc                __sfmoreglue
 .text.__sfp    0x000000000304a534      0x154 c:/intelfpga_lite/21.1/nios2eds/bin/gnu/h-x86_64-mingw32/bin/../lib/gcc/nios2-elf/10.3.1/../../../../../H-x86_64-mingw32/nios2-elf/lib\libc.a(lib_a-findfp.o)
                0x000000000304a534                __sfp
 .text._cleanup
                0x000000000304a688       0x14 c:/intelfpga_lite/21.1/nios2eds/bin/gnu/h-x86_64-mingw32/bin/../lib/gcc/nios2-elf/10.3.1/../../../../../H-x86_64-mingw32/nios2-elf/lib\libc.a(lib_a-findfp.o)
                0x000000000304a688                _cleanup
 .text.__sinit  0x000000000304a69c       0x10 c:/intelfpga_lite/21.1/nios2eds/bin/gnu/h-x86_64-mingw32/bin/../lib/gcc/nios2-elf/10.3.1/../../../../../H-x86_64-mingw32/nios2-elf/lib\libc.a(lib_a-findfp.o)
                0x000000000304a69c                __sinit
 .text.__sfp_lock_acquire
                0x000000000304a6ac        0x4 c:/intelfpga_lite/21.1/nios2eds/bin/gnu/h-x86_64-mingw32/bin/../lib/gcc/nios2-elf/10.3.1/../../../../../H-x86_64-mingw32/nios2-elf/lib\libc.a(lib_a-findfp.o)
                0x000000000304a6ac                __sfp_lock_acquire
 .text.__sfp_lock_release
                0x000000000304a6b0        0x4 c:/intelfpga_lite/21.1/nios2eds/bin/gnu/h-x86_64-mingw32/bin/../lib/gcc/nios2-elf/10.3.1/../../../../../H-x86_64-mingw32/nios2-elf/lib\libc.a(lib_a-findfp.o)
                0x000000000304a6b0                __sfp_lock_release
 .text.__sinit_lock_acquire
                0x000000000304a6b4        0x4 c:/intelfpga_lite/21.1/nios2eds/bin/gnu/h-x86_64-mingw32/bin/../lib/gcc/nios2-elf/10.3.1/../../../../../H-x86_64-mingw32/nios2-elf/lib\libc.a(lib_a-findfp.o)
                0x000000000304a6b4                __sinit_lock_acquire
 .text.__sinit_lock_release
                0x000000000304a6b8        0x4 c:/intelfpga_lite/21.1/nios2eds/bin/gnu/h-x86_64-mingw32/bin/../lib/gcc/nios2-elf/10.3.1/../../../../../H-x86_64-mingw32/nios2-elf/lib\libc.a(lib_a-findfp.o)
                0x000000000304a6b8                __sinit_lock_release
 .text.__fp_lock_all
                0x000000000304a6bc       0x14 c:/intelfpga_lite/21.1/nios2eds/bin/gnu/h-x86_64-mingw32/bin/../lib/gcc/nios2-elf/10.3.1/../../../../../H-x86_64-mingw32/nios2-elf/lib\libc.a(lib_a-findfp.o)
                0x000000000304a6bc                __fp_lock_all
 .text.__fp_unlock_all
                0x000000000304a6d0       0x14 c:/intelfpga_lite/21.1/nios2eds/bin/gnu/h-x86_64-mingw32/bin/../lib/gcc/nios2-elf/10.3.1/../../../../../H-x86_64-mingw32/nios2-elf/lib\libc.a(lib_a-findfp.o)
                0x000000000304a6d0                __fp_unlock_all
 .text          0x000000000304a6e4        0x0 c:/intelfpga_lite/21.1/nios2eds/bin/gnu/h-x86_64-mingw32/bin/../lib/gcc/nios2-elf/10.3.1/../../../../../H-x86_64-mingw32/nios2-elf/lib\libc.a(lib_a-fopen.o)
 .text._fopen_r
                0x000000000304a6e4       0xf0 c:/intelfpga_lite/21.1/nios2eds/bin/gnu/h-x86_64-mingw32/bin/../lib/gcc/nios2-elf/10.3.1/../../../../../H-x86_64-mingw32/nios2-elf/lib\libc.a(lib_a-fopen.o)
                0x000000000304a6e4                _fopen_r
 .text.fopen    0x000000000304a7d4       0x18 c:/intelfpga_lite/21.1/nios2eds/bin/gnu/h-x86_64-mingw32/bin/../lib/gcc/nios2-elf/10.3.1/../../../../../H-x86_64-mingw32/nios2-elf/lib\libc.a(lib_a-fopen.o)
                0x000000000304a7d4                fopen
 .text          0x000000000304a7ec        0x0 c:/intelfpga_lite/21.1/nios2eds/bin/gnu/h-x86_64-mingw32/bin/../lib/gcc/nios2-elf/10.3.1/../../../../../H-x86_64-mingw32/nios2-elf/lib\libc.a(lib_a-freer.o)
 .text._malloc_trim_r
                0x000000000304a7ec      0x11c c:/intelfpga_lite/21.1/nios2eds/bin/gnu/h-x86_64-mingw32/bin/../lib/gcc/nios2-elf/10.3.1/../../../../../H-x86_64-mingw32/nios2-elf/lib\libc.a(lib_a-freer.o)
                0x000000000304a7ec                _malloc_trim_r
 .text._free_r  0x000000000304a908      0x2fc c:/intelfpga_lite/21.1/nios2eds/bin/gnu/h-x86_64-mingw32/bin/../lib/gcc/nios2-elf/10.3.1/../../../../../H-x86_64-mingw32/nios2-elf/lib\libc.a(lib_a-freer.o)
                0x000000000304a908                _free_r
 .text          0x000000000304ac04        0x0 c:/intelfpga_lite/21.1/nios2eds/bin/gnu/h-x86_64-mingw32/bin/../lib/gcc/nios2-elf/10.3.1/../../../../../H-x86_64-mingw32/nios2-elf/lib\libc.a(lib_a-fseek.o)
 .text._fseek_r
                0x000000000304ac04        0x4 c:/intelfpga_lite/21.1/nios2eds/bin/gnu/h-x86_64-mingw32/bin/../lib/gcc/nios2-elf/10.3.1/../../../../../H-x86_64-mingw32/nios2-elf/lib\libc.a(lib_a-fseek.o)
                0x000000000304ac04                _fseek_r
 .text.fseek    0x000000000304ac08       0x1c c:/intelfpga_lite/21.1/nios2eds/bin/gnu/h-x86_64-mingw32/bin/../lib/gcc/nios2-elf/10.3.1/../../../../../H-x86_64-mingw32/nios2-elf/lib\libc.a(lib_a-fseek.o)
                0x000000000304ac08                fseek
 .text          0x000000000304ac24        0x0 c:/intelfpga_lite/21.1/nios2eds/bin/gnu/h-x86_64-mingw32/bin/../lib/gcc/nios2-elf/10.3.1/../../../../../H-x86_64-mingw32/nios2-elf/lib\libc.a(lib_a-fseeko.o)
 .text._fseeko_r
                0x000000000304ac24      0x454 c:/intelfpga_lite/21.1/nios2eds/bin/gnu/h-x86_64-mingw32/bin/../lib/gcc/nios2-elf/10.3.1/../../../../../H-x86_64-mingw32/nios2-elf/lib\libc.a(lib_a-fseeko.o)
                0x000000000304ac24                _fseeko_r
 .text.fseeko   0x000000000304b078       0x1c c:/intelfpga_lite/21.1/nios2eds/bin/gnu/h-x86_64-mingw32/bin/../lib/gcc/nios2-elf/10.3.1/../../../../../H-x86_64-mingw32/nios2-elf/lib\libc.a(lib_a-fseeko.o)
                0x000000000304b078                fseeko
 .text          0x000000000304b094        0x0 c:/intelfpga_lite/21.1/nios2eds/bin/gnu/h-x86_64-mingw32/bin/../lib/gcc/nios2-elf/10.3.1/../../../../../H-x86_64-mingw32/nios2-elf/lib\libc.a(lib_a-fstatr.o)
 .text._fstat_r
                0x000000000304b094       0x60 c:/intelfpga_lite/21.1/nios2eds/bin/gnu/h-x86_64-mingw32/bin/../lib/gcc/nios2-elf/10.3.1/../../../../../H-x86_64-mingw32/nios2-elf/lib\libc.a(lib_a-fstatr.o)
                0x000000000304b094                _fstat_r
 .text          0x000000000304b0f4        0x0 c:/intelfpga_lite/21.1/nios2eds/bin/gnu/h-x86_64-mingw32/bin/../lib/gcc/nios2-elf/10.3.1/../../../../../H-x86_64-mingw32/nios2-elf/lib\libc.a(lib_a-fwalk.o)
 .text._fwalk   0x000000000304b0f4       0x98 c:/intelfpga_lite/21.1/nios2eds/bin/gnu/h-x86_64-mingw32/bin/../lib/gcc/nios2-elf/10.3.1/../../../../../H-x86_64-mingw32/nios2-elf/lib\libc.a(lib_a-fwalk.o)
                0x000000000304b0f4                _fwalk
 .text._fwalk_reent
                0x000000000304b18c       0xa8 c:/intelfpga_lite/21.1/nios2eds/bin/gnu/h-x86_64-mingw32/bin/../lib/gcc/nios2-elf/10.3.1/../../../../../H-x86_64-mingw32/nios2-elf/lib\libc.a(lib_a-fwalk.o)
                0x000000000304b18c                _fwalk_reent
 .text          0x000000000304b234        0x0 c:/intelfpga_lite/21.1/nios2eds/bin/gnu/h-x86_64-mingw32/bin/../lib/gcc/nios2-elf/10.3.1/../../../../../H-x86_64-mingw32/nios2-elf/lib\libc.a(lib_a-fwrite.o)
 .text._fwrite_r
                0x000000000304b234       0xc4 c:/intelfpga_lite/21.1/nios2eds/bin/gnu/h-x86_64-mingw32/bin/../lib/gcc/nios2-elf/10.3.1/../../../../../H-x86_64-mingw32/nios2-elf/lib\libc.a(lib_a-fwrite.o)
                0x000000000304b234                _fwrite_r
 .text.fwrite   0x000000000304b2f8       0xd4 c:/intelfpga_lite/21.1/nios2eds/bin/gnu/h-x86_64-mingw32/bin/../lib/gcc/nios2-elf/10.3.1/../../../../../H-x86_64-mingw32/nios2-elf/lib\libc.a(lib_a-fwrite.o)
                0x000000000304b2f8                fwrite
 .text          0x000000000304b3cc        0x0 c:/intelfpga_lite/21.1/nios2eds/bin/gnu/h-x86_64-mingw32/bin/../lib/gcc/nios2-elf/10.3.1/../../../../../H-x86_64-mingw32/nios2-elf/lib\libc.a(lib_a-impure.o)
 .text          0x000000000304b3cc        0x0 c:/intelfpga_lite/21.1/nios2eds/bin/gnu/h-x86_64-mingw32/bin/../lib/gcc/nios2-elf/10.3.1/../../../../../H-x86_64-mingw32/nios2-elf/lib\libc.a(lib_a-int_errno.o)
 .text          0x000000000304b3cc        0x0 c:/intelfpga_lite/21.1/nios2eds/bin/gnu/h-x86_64-mingw32/bin/../lib/gcc/nios2-elf/10.3.1/../../../../../H-x86_64-mingw32/nios2-elf/lib\libc.a(lib_a-makebuf.o)
 .text.__smakebuf_r
                0x000000000304b3cc      0x1b0 c:/intelfpga_lite/21.1/nios2eds/bin/gnu/h-x86_64-mingw32/bin/../lib/gcc/nios2-elf/10.3.1/../../../../../H-x86_64-mingw32/nios2-elf/lib\libc.a(lib_a-makebuf.o)
                0x000000000304b3cc                __smakebuf_r
 .text.__swhatbuf_r
                0x000000000304b57c       0x98 c:/intelfpga_lite/21.1/nios2eds/bin/gnu/h-x86_64-mingw32/bin/../lib/gcc/nios2-elf/10.3.1/../../../../../H-x86_64-mingw32/nios2-elf/lib\libc.a(lib_a-makebuf.o)
                0x000000000304b57c                __swhatbuf_r
 .text          0x000000000304b614        0x0 c:/intelfpga_lite/21.1/nios2eds/bin/gnu/h-x86_64-mingw32/bin/../lib/gcc/nios2-elf/10.3.1/../../../../../H-x86_64-mingw32/nios2-elf/lib\libc.a(lib_a-malloc.o)
 .text.malloc   0x000000000304b614       0x10 c:/intelfpga_lite/21.1/nios2eds/bin/gnu/h-x86_64-mingw32/bin/../lib/gcc/nios2-elf/10.3.1/../../../../../H-x86_64-mingw32/nios2-elf/lib\libc.a(lib_a-malloc.o)
                0x000000000304b614                malloc
 .text.free     0x000000000304b624       0x10 c:/intelfpga_lite/21.1/nios2eds/bin/gnu/h-x86_64-mingw32/bin/../lib/gcc/nios2-elf/10.3.1/../../../../../H-x86_64-mingw32/nios2-elf/lib\libc.a(lib_a-malloc.o)
                0x000000000304b624                free
 .text          0x000000000304b634        0x0 c:/intelfpga_lite/21.1/nios2eds/bin/gnu/h-x86_64-mingw32/bin/../lib/gcc/nios2-elf/10.3.1/../../../../../H-x86_64-mingw32/nios2-elf/lib\libc.a(lib_a-mallocr.o)
 .text._malloc_r
                0x000000000304b634      0x7e0 c:/intelfpga_lite/21.1/nios2eds/bin/gnu/h-x86_64-mingw32/bin/../lib/gcc/nios2-elf/10.3.1/../../../../../H-x86_64-mingw32/nios2-elf/lib\libc.a(lib_a-mallocr.o)
                0x000000000304b634                _malloc_r
 .text          0x000000000304be14        0x0 c:/intelfpga_lite/21.1/nios2eds/bin/gnu/h-x86_64-mingw32/bin/../lib/gcc/nios2-elf/10.3.1/../../../../../H-x86_64-mingw32/nios2-elf/lib\libc.a(lib_a-memcpy.o)
 .text.memcpy   0x000000000304be14      0x100 c:/intelfpga_lite/21.1/nios2eds/bin/gnu/h-x86_64-mingw32/bin/../lib/gcc/nios2-elf/10.3.1/../../../../../H-x86_64-mingw32/nios2-elf/lib\libc.a(lib_a-memcpy.o)
                0x000000000304be14                memcpy
 .text          0x000000000304bf14        0x0 c:/intelfpga_lite/21.1/nios2eds/bin/gnu/h-x86_64-mingw32/bin/../lib/gcc/nios2-elf/10.3.1/../../../../../H-x86_64-mingw32/nios2-elf/lib\libc.a(lib_a-memset.o)
 .text.memset   0x000000000304bf14       0xf0 c:/intelfpga_lite/21.1/nios2eds/bin/gnu/h-x86_64-mingw32/bin/../lib/gcc/nios2-elf/10.3.1/../../../../../H-x86_64-mingw32/nios2-elf/lib\libc.a(lib_a-memset.o)
                0x000000000304bf14                memset
 .text          0x000000000304c004        0x0 c:/intelfpga_lite/21.1/nios2eds/bin/gnu/h-x86_64-mingw32/bin/../lib/gcc/nios2-elf/10.3.1/../../../../../H-x86_64-mingw32/nios2-elf/lib\libc.a(lib_a-openr.o)
 .text._open_r  0x000000000304c004       0x64 c:/intelfpga_lite/21.1/nios2eds/bin/gnu/h-x86_64-mingw32/bin/../lib/gcc/nios2-elf/10.3.1/../../../../../H-x86_64-mingw32/nios2-elf/lib\libc.a(lib_a-openr.o)
                0x000000000304c004                _open_r
 .text          0x000000000304c068        0x0 c:/intelfpga_lite/21.1/nios2eds/bin/gnu/h-x86_64-mingw32/bin/../lib/gcc/nios2-elf/10.3.1/../../../../../H-x86_64-mingw32/nios2-elf/lib\libc.a(lib_a-printf.o)
 .text._printf_r
                0x000000000304c068       0x30 c:/intelfpga_lite/21.1/nios2eds/bin/gnu/h-x86_64-mingw32/bin/../lib/gcc/nios2-elf/10.3.1/../../../../../H-x86_64-mingw32/nios2-elf/lib\libc.a(lib_a-printf.o)
                0x000000000304c068                _printf_r
 .text.printf   0x000000000304c098       0x38 c:/intelfpga_lite/21.1/nios2eds/bin/gnu/h-x86_64-mingw32/bin/../lib/gcc/nios2-elf/10.3.1/../../../../../H-x86_64-mingw32/nios2-elf/lib\libc.a(lib_a-printf.o)
                0x000000000304c098                printf
 .text          0x000000000304c0d0        0x0 c:/intelfpga_lite/21.1/nios2eds/bin/gnu/h-x86_64-mingw32/bin/../lib/gcc/nios2-elf/10.3.1/../../../../../H-x86_64-mingw32/nios2-elf/lib\libc.a(lib_a-putchar.o)
 .text._putchar_r
                0x000000000304c0d0        0x8 c:/intelfpga_lite/21.1/nios2eds/bin/gnu/h-x86_64-mingw32/bin/../lib/gcc/nios2-elf/10.3.1/../../../../../H-x86_64-mingw32/nios2-elf/lib\libc.a(lib_a-putchar.o)
                0x000000000304c0d0                _putchar_r
 .text.putchar  0x000000000304c0d8       0x18 c:/intelfpga_lite/21.1/nios2eds/bin/gnu/h-x86_64-mingw32/bin/../lib/gcc/nios2-elf/10.3.1/../../../../../H-x86_64-mingw32/nios2-elf/lib\libc.a(lib_a-putchar.o)
                0x000000000304c0d8                putchar
 .text          0x000000000304c0f0        0x0 c:/intelfpga_lite/21.1/nios2eds/bin/gnu/h-x86_64-mingw32/bin/../lib/gcc/nios2-elf/10.3.1/../../../../../H-x86_64-mingw32/nios2-elf/lib\libc.a(lib_a-puts.o)
 .text._puts_r  0x000000000304c0f0       0xcc c:/intelfpga_lite/21.1/nios2eds/bin/gnu/h-x86_64-mingw32/bin/../lib/gcc/nios2-elf/10.3.1/../../../../../H-x86_64-mingw32/nios2-elf/lib\libc.a(lib_a-puts.o)
                0x000000000304c0f0                _puts_r
 .text.puts     0x000000000304c1bc       0x10 c:/intelfpga_lite/21.1/nios2eds/bin/gnu/h-x86_64-mingw32/bin/../lib/gcc/nios2-elf/10.3.1/../../../../../H-x86_64-mingw32/nios2-elf/lib\libc.a(lib_a-puts.o)
                0x000000000304c1bc                puts
 .text          0x000000000304c1cc        0x0 c:/intelfpga_lite/21.1/nios2eds/bin/gnu/h-x86_64-mingw32/bin/../lib/gcc/nios2-elf/10.3.1/../../../../../H-x86_64-mingw32/nios2-elf/lib\libc.a(lib_a-refill.o)
 .text.lflush   0x000000000304c1cc       0x1c c:/intelfpga_lite/21.1/nios2eds/bin/gnu/h-x86_64-mingw32/bin/../lib/gcc/nios2-elf/10.3.1/../../../../../H-x86_64-mingw32/nios2-elf/lib\libc.a(lib_a-refill.o)
 .text.__srefill_r
                0x000000000304c1e8      0x1cc c:/intelfpga_lite/21.1/nios2eds/bin/gnu/h-x86_64-mingw32/bin/../lib/gcc/nios2-elf/10.3.1/../../../../../H-x86_64-mingw32/nios2-elf/lib\libc.a(lib_a-refill.o)
                0x000000000304c1e8                __srefill_r
 .text          0x000000000304c3b4        0x0 c:/intelfpga_lite/21.1/nios2eds/bin/gnu/h-x86_64-mingw32/bin/../lib/gcc/nios2-elf/10.3.1/../../../../../H-x86_64-mingw32/nios2-elf/lib\libc.a(lib_a-sbrkr.o)
 .text._sbrk_r  0x000000000304c3b4       0x58 c:/intelfpga_lite/21.1/nios2eds/bin/gnu/h-x86_64-mingw32/bin/../lib/gcc/nios2-elf/10.3.1/../../../../../H-x86_64-mingw32/nios2-elf/lib\libc.a(lib_a-sbrkr.o)
                0x000000000304c3b4                _sbrk_r
 .text          0x000000000304c40c        0x0 c:/intelfpga_lite/21.1/nios2eds/bin/gnu/h-x86_64-mingw32/bin/../lib/gcc/nios2-elf/10.3.1/../../../../../H-x86_64-mingw32/nios2-elf/lib\libc.a(lib_a-sprintf.o)
 .text._sprintf_r
                0x000000000304c40c       0x54 c:/intelfpga_lite/21.1/nios2eds/bin/gnu/h-x86_64-mingw32/bin/../lib/gcc/nios2-elf/10.3.1/../../../../../H-x86_64-mingw32/nios2-elf/lib\libc.a(lib_a-sprintf.o)
                0x000000000304c40c                _sprintf_r
 .text.sprintf  0x000000000304c460       0x64 c:/intelfpga_lite/21.1/nios2eds/bin/gnu/h-x86_64-mingw32/bin/../lib/gcc/nios2-elf/10.3.1/../../../../../H-x86_64-mingw32/nios2-elf/lib\libc.a(lib_a-sprintf.o)
                0x000000000304c460                sprintf
 .text          0x000000000304c4c4        0x0 c:/intelfpga_lite/21.1/nios2eds/bin/gnu/h-x86_64-mingw32/bin/../lib/gcc/nios2-elf/10.3.1/../../../../../H-x86_64-mingw32/nios2-elf/lib\libc.a(lib_a-stdio.o)
 .text.__sread  0x000000000304c4c4       0x54 c:/intelfpga_lite/21.1/nios2eds/bin/gnu/h-x86_64-mingw32/bin/../lib/gcc/nios2-elf/10.3.1/../../../../../H-x86_64-mingw32/nios2-elf/lib\libc.a(lib_a-stdio.o)
                0x000000000304c4c4                __sread
 .text.__seofread
                0x000000000304c518        0x8 c:/intelfpga_lite/21.1/nios2eds/bin/gnu/h-x86_64-mingw32/bin/../lib/gcc/nios2-elf/10.3.1/../../../../../H-x86_64-mingw32/nios2-elf/lib\libc.a(lib_a-stdio.o)
                0x000000000304c518                __seofread
 .text.__swrite
                0x000000000304c520       0x80 c:/intelfpga_lite/21.1/nios2eds/bin/gnu/h-x86_64-mingw32/bin/../lib/gcc/nios2-elf/10.3.1/../../../../../H-x86_64-mingw32/nios2-elf/lib\libc.a(lib_a-stdio.o)
                0x000000000304c520                __swrite
 .text.__sseek  0x000000000304c5a0       0x5c c:/intelfpga_lite/21.1/nios2eds/bin/gnu/h-x86_64-mingw32/bin/../lib/gcc/nios2-elf/10.3.1/../../../../../H-x86_64-mingw32/nios2-elf/lib\libc.a(lib_a-stdio.o)
                0x000000000304c5a0                __sseek
 .text.__sclose
                0x000000000304c5fc        0x8 c:/intelfpga_lite/21.1/nios2eds/bin/gnu/h-x86_64-mingw32/bin/../lib/gcc/nios2-elf/10.3.1/../../../../../H-x86_64-mingw32/nios2-elf/lib\libc.a(lib_a-stdio.o)
                0x000000000304c5fc                __sclose
 .text          0x000000000304c604        0x0 c:/intelfpga_lite/21.1/nios2eds/bin/gnu/h-x86_64-mingw32/bin/../lib/gcc/nios2-elf/10.3.1/../../../../../H-x86_64-mingw32/nios2-elf/lib\libc.a(lib_a-strcmp.o)
 .text.strcmp   0x000000000304c604       0xb8 c:/intelfpga_lite/21.1/nios2eds/bin/gnu/h-x86_64-mingw32/bin/../lib/gcc/nios2-elf/10.3.1/../../../../../H-x86_64-mingw32/nios2-elf/lib\libc.a(lib_a-strcmp.o)
                0x000000000304c604                strcmp
 .text          0x000000000304c6bc        0x0 c:/intelfpga_lite/21.1/nios2eds/bin/gnu/h-x86_64-mingw32/bin/../lib/gcc/nios2-elf/10.3.1/../../../../../H-x86_64-mingw32/nios2-elf/lib\libc.a(lib_a-strcpy.o)
 .text.strcpy   0x000000000304c6bc       0x8c c:/intelfpga_lite/21.1/nios2eds/bin/gnu/h-x86_64-mingw32/bin/../lib/gcc/nios2-elf/10.3.1/../../../../../H-x86_64-mingw32/nios2-elf/lib\libc.a(lib_a-strcpy.o)
                0x000000000304c6bc                strcpy
 .text          0x000000000304c748        0x0 c:/intelfpga_lite/21.1/nios2eds/bin/gnu/h-x86_64-mingw32/bin/../lib/gcc/nios2-elf/10.3.1/../../../../../H-x86_64-mingw32/nios2-elf/lib\libc.a(lib_a-strlen.o)
 .text.strlen   0x000000000304c748       0x98 c:/intelfpga_lite/21.1/nios2eds/bin/gnu/h-x86_64-mingw32/bin/../lib/gcc/nios2-elf/10.3.1/../../../../../H-x86_64-mingw32/nios2-elf/lib\libc.a(lib_a-strlen.o)
                0x000000000304c748                strlen
 .text          0x000000000304c7e0        0x0 c:/intelfpga_lite/21.1/nios2eds/bin/gnu/h-x86_64-mingw32/bin/../lib/gcc/nios2-elf/10.3.1/../../../../../H-x86_64-mingw32/nios2-elf/lib\libc.a(lib_a-svfprintf.o)
 .text.___svfprintf_internal_r
                0x000000000304c7e0     0x1f90 c:/intelfpga_lite/21.1/nios2eds/bin/gnu/h-x86_64-mingw32/bin/../lib/gcc/nios2-elf/10.3.1/../../../../../H-x86_64-mingw32/nios2-elf/lib\libc.a(lib_a-svfprintf.o)
                0x000000000304c7e0                ___svfprintf_internal_r
 .text          0x000000000304e770        0x0 c:/intelfpga_lite/21.1/nios2eds/bin/gnu/h-x86_64-mingw32/bin/../lib/gcc/nios2-elf/10.3.1/../../../../../H-x86_64-mingw32/nios2-elf/lib\libc.a(lib_a-vfprintf.o)
 .text.___vfprintf_internal_r
                0x000000000304e770     0x2008 c:/intelfpga_lite/21.1/nios2eds/bin/gnu/h-x86_64-mingw32/bin/../lib/gcc/nios2-elf/10.3.1/../../../../../H-x86_64-mingw32/nios2-elf/lib\libc.a(lib_a-vfprintf.o)
                0x000000000304e770                ___vfprintf_internal_r
 .text.__vfprintf_internal
                0x0000000003050778       0x1c c:/intelfpga_lite/21.1/nios2eds/bin/gnu/h-x86_64-mingw32/bin/../lib/gcc/nios2-elf/10.3.1/../../../../../H-x86_64-mingw32/nios2-elf/lib\libc.a(lib_a-vfprintf.o)
                0x0000000003050778                __vfprintf_internal
 .text.__sbprintf
                0x0000000003050794       0xc0 c:/intelfpga_lite/21.1/nios2eds/bin/gnu/h-x86_64-mingw32/bin/../lib/gcc/nios2-elf/10.3.1/../../../../../H-x86_64-mingw32/nios2-elf/lib\libc.a(lib_a-vfprintf.o)
 .text          0x0000000003050854        0x0 c:/intelfpga_lite/21.1/nios2eds/bin/gnu/h-x86_64-mingw32/bin/../lib/gcc/nios2-elf/10.3.1/../../../../../H-x86_64-mingw32/nios2-elf/lib\libc.a(lib_a-vsnprintf.o)
 .text.vsnprintf
                0x0000000003050854       0xc0 c:/intelfpga_lite/21.1/nios2eds/bin/gnu/h-x86_64-mingw32/bin/../lib/gcc/nios2-elf/10.3.1/../../../../../H-x86_64-mingw32/nios2-elf/lib\libc.a(lib_a-vsnprintf.o)
                0x0000000003050854                vsnprintf
 .text._vsnprintf_r
                0x0000000003050914       0xcc c:/intelfpga_lite/21.1/nios2eds/bin/gnu/h-x86_64-mingw32/bin/../lib/gcc/nios2-elf/10.3.1/../../../../../H-x86_64-mingw32/nios2-elf/lib\libc.a(lib_a-vsnprintf.o)
                0x0000000003050914                _vsnprintf_r
 .text          0x00000000030509e0        0x0 c:/intelfpga_lite/21.1/nios2eds/bin/gnu/h-x86_64-mingw32/bin/../lib/gcc/nios2-elf/10.3.1/../../../../../H-x86_64-mingw32/nios2-elf/lib\libc.a(lib_a-writer.o)
 .text._write_r
                0x00000000030509e0       0x64 c:/intelfpga_lite/21.1/nios2eds/bin/gnu/h-x86_64-mingw32/bin/../lib/gcc/nios2-elf/10.3.1/../../../../../H-x86_64-mingw32/nios2-elf/lib\libc.a(lib_a-writer.o)
                0x00000000030509e0                _write_r
 .text          0x0000000003050a44        0x0 c:/intelfpga_lite/21.1/nios2eds/bin/gnu/h-x86_64-mingw32/bin/../lib/gcc/nios2-elf/10.3.1/../../../../../H-x86_64-mingw32/nios2-elf/lib\libc.a(lib_a-wsetup.o)
 .text.__swsetup_r
                0x0000000003050a44      0x164 c:/intelfpga_lite/21.1/nios2eds/bin/gnu/h-x86_64-mingw32/bin/../lib/gcc/nios2-elf/10.3.1/../../../../../H-x86_64-mingw32/nios2-elf/lib\libc.a(lib_a-wsetup.o)
                0x0000000003050a44                __swsetup_r
 .text          0x0000000003050ba8        0x0 c:/intelfpga_lite/21.1/nios2eds/bin/gnu/h-x86_64-mingw32/bin/../lib/gcc/nios2-elf/10.3.1/../../../../../H-x86_64-mingw32/nios2-elf/lib\libc.a(closer.o)
 .text._close_r
                0x0000000003050ba8       0x58 c:/intelfpga_lite/21.1/nios2eds/bin/gnu/h-x86_64-mingw32/bin/../lib/gcc/nios2-elf/10.3.1/../../../../../H-x86_64-mingw32/nios2-elf/lib\libc.a(closer.o)
                0x0000000003050ba8                _close_r
 .text          0x0000000003050c00        0x0 c:/intelfpga_lite/21.1/nios2eds/bin/gnu/h-x86_64-mingw32/bin/../lib/gcc/nios2-elf/10.3.1/../../../../../H-x86_64-mingw32/nios2-elf/lib\libc.a(lib_a-dtoa.o)
 .text.quorem   0x0000000003050c00      0x1fc c:/intelfpga_lite/21.1/nios2eds/bin/gnu/h-x86_64-mingw32/bin/../lib/gcc/nios2-elf/10.3.1/../../../../../H-x86_64-mingw32/nios2-elf/lib\libc.a(lib_a-dtoa.o)
 .text._dtoa_r  0x0000000003050dfc     0x1748 c:/intelfpga_lite/21.1/nios2eds/bin/gnu/h-x86_64-mingw32/bin/../lib/gcc/nios2-elf/10.3.1/../../../../../H-x86_64-mingw32/nios2-elf/lib\libc.a(lib_a-dtoa.o)
                0x0000000003050dfc                _dtoa_r
 .text          0x0000000003052544        0x0 c:/intelfpga_lite/21.1/nios2eds/bin/gnu/h-x86_64-mingw32/bin/../lib/gcc/nios2-elf/10.3.1/../../../../../H-x86_64-mingw32/nios2-elf/lib\libc.a(lib_a-flags.o)
 .text.__sflags
                0x0000000003052544       0xb8 c:/intelfpga_lite/21.1/nios2eds/bin/gnu/h-x86_64-mingw32/bin/../lib/gcc/nios2-elf/10.3.1/../../../../../H-x86_64-mingw32/nios2-elf/lib\libc.a(lib_a-flags.o)
                0x0000000003052544                __sflags
 .text          0x00000000030525fc        0x0 c:/intelfpga_lite/21.1/nios2eds/bin/gnu/h-x86_64-mingw32/bin/../lib/gcc/nios2-elf/10.3.1/../../../../../H-x86_64-mingw32/nios2-elf/lib\libc.a(lib_a-fvwrite.o)
 .text.__sfvwrite_r
                0x00000000030525fc      0x484 c:/intelfpga_lite/21.1/nios2eds/bin/gnu/h-x86_64-mingw32/bin/../lib/gcc/nios2-elf/10.3.1/../../../../../H-x86_64-mingw32/nios2-elf/lib\libc.a(lib_a-fvwrite.o)
                0x00000000030525fc                __sfvwrite_r
 .text          0x0000000003052a80        0x0 c:/intelfpga_lite/21.1/nios2eds/bin/gnu/h-x86_64-mingw32/bin/../lib/gcc/nios2-elf/10.3.1/../../../../../H-x86_64-mingw32/nios2-elf/lib\libc.a(lib_a-isattyr.o)
 .text._isatty_r
                0x0000000003052a80       0x58 c:/intelfpga_lite/21.1/nios2eds/bin/gnu/h-x86_64-mingw32/bin/../lib/gcc/nios2-elf/10.3.1/../../../../../H-x86_64-mingw32/nios2-elf/lib\libc.a(lib_a-isattyr.o)
                0x0000000003052a80                _isatty_r
 .text          0x0000000003052ad8        0x0 c:/intelfpga_lite/21.1/nios2eds/bin/gnu/h-x86_64-mingw32/bin/../lib/gcc/nios2-elf/10.3.1/../../../../../H-x86_64-mingw32/nios2-elf/lib\libc.a(lib_a-localeconv.o)
 .text.__localeconv_l
                0x0000000003052ad8        0x8 c:/intelfpga_lite/21.1/nios2eds/bin/gnu/h-x86_64-mingw32/bin/../lib/gcc/nios2-elf/10.3.1/../../../../../H-x86_64-mingw32/nios2-elf/lib\libc.a(lib_a-localeconv.o)
                0x0000000003052ad8                __localeconv_l
 .text._localeconv_r
                0x0000000003052ae0        0xc c:/intelfpga_lite/21.1/nios2eds/bin/gnu/h-x86_64-mingw32/bin/../lib/gcc/nios2-elf/10.3.1/../../../../../H-x86_64-mingw32/nios2-elf/lib\libc.a(lib_a-localeconv.o)
                0x0000000003052ae0                _localeconv_r
 .text.localeconv
                0x0000000003052aec        0xc c:/intelfpga_lite/21.1/nios2eds/bin/gnu/h-x86_64-mingw32/bin/../lib/gcc/nios2-elf/10.3.1/../../../../../H-x86_64-mingw32/nios2-elf/lib\libc.a(lib_a-localeconv.o)
                0x0000000003052aec                localeconv
 .text          0x0000000003052af8        0x0 c:/intelfpga_lite/21.1/nios2eds/bin/gnu/h-x86_64-mingw32/bin/../lib/gcc/nios2-elf/10.3.1/../../../../../H-x86_64-mingw32/nios2-elf/lib\libc.a(lib_a-lseekr.o)
 .text._lseek_r
                0x0000000003052af8       0x64 c:/intelfpga_lite/21.1/nios2eds/bin/gnu/h-x86_64-mingw32/bin/../lib/gcc/nios2-elf/10.3.1/../../../../../H-x86_64-mingw32/nios2-elf/lib\libc.a(lib_a-lseekr.o)
                0x0000000003052af8                _lseek_r
 .text          0x0000000003052b5c        0x0 c:/intelfpga_lite/21.1/nios2eds/bin/gnu/h-x86_64-mingw32/bin/../lib/gcc/nios2-elf/10.3.1/../../../../../H-x86_64-mingw32/nios2-elf/lib\libc.a(lib_a-memchr.o)
 .text.memchr   0x0000000003052b5c       0xd0 c:/intelfpga_lite/21.1/nios2eds/bin/gnu/h-x86_64-mingw32/bin/../lib/gcc/nios2-elf/10.3.1/../../../../../H-x86_64-mingw32/nios2-elf/lib\libc.a(lib_a-memchr.o)
                0x0000000003052b5c                memchr
 .text          0x0000000003052c2c        0x0 c:/intelfpga_lite/21.1/nios2eds/bin/gnu/h-x86_64-mingw32/bin/../lib/gcc/nios2-elf/10.3.1/../../../../../H-x86_64-mingw32/nios2-elf/lib\libc.a(lib_a-memmove.o)
 .text.memmove  0x0000000003052c2c      0x12c c:/intelfpga_lite/21.1/nios2eds/bin/gnu/h-x86_64-mingw32/bin/../lib/gcc/nios2-elf/10.3.1/../../../../../H-x86_64-mingw32/nios2-elf/lib\libc.a(lib_a-memmove.o)
                0x0000000003052c2c                memmove
 .text          0x0000000003052d58        0x0 c:/intelfpga_lite/21.1/nios2eds/bin/gnu/h-x86_64-mingw32/bin/../lib/gcc/nios2-elf/10.3.1/../../../../../H-x86_64-mingw32/nios2-elf/lib\libc.a(lib_a-mprec.o)
 .text._Balloc  0x0000000003052d58       0xa4 c:/intelfpga_lite/21.1/nios2eds/bin/gnu/h-x86_64-mingw32/bin/../lib/gcc/nios2-elf/10.3.1/../../../../../H-x86_64-mingw32/nios2-elf/lib\libc.a(lib_a-mprec.o)
                0x0000000003052d58                _Balloc
 .text._Bfree   0x0000000003052dfc       0x24 c:/intelfpga_lite/21.1/nios2eds/bin/gnu/h-x86_64-mingw32/bin/../lib/gcc/nios2-elf/10.3.1/../../../../../H-x86_64-mingw32/nios2-elf/lib\libc.a(lib_a-mprec.o)
                0x0000000003052dfc                _Bfree
 .text.__multadd
                0x0000000003052e20      0x138 c:/intelfpga_lite/21.1/nios2eds/bin/gnu/h-x86_64-mingw32/bin/../lib/gcc/nios2-elf/10.3.1/../../../../../H-x86_64-mingw32/nios2-elf/lib\libc.a(lib_a-mprec.o)
                0x0000000003052e20                __multadd
 .text.__s2b    0x0000000003052f58      0x138 c:/intelfpga_lite/21.1/nios2eds/bin/gnu/h-x86_64-mingw32/bin/../lib/gcc/nios2-elf/10.3.1/../../../../../H-x86_64-mingw32/nios2-elf/lib\libc.a(lib_a-mprec.o)
                0x0000000003052f58                __s2b
 .text.__hi0bits
                0x0000000003053090       0x64 c:/intelfpga_lite/21.1/nios2eds/bin/gnu/h-x86_64-mingw32/bin/../lib/gcc/nios2-elf/10.3.1/../../../../../H-x86_64-mingw32/nios2-elf/lib\libc.a(lib_a-mprec.o)
                0x0000000003053090                __hi0bits
 .text.__lo0bits
                0x00000000030530f4       0xb0 c:/intelfpga_lite/21.1/nios2eds/bin/gnu/h-x86_64-mingw32/bin/../lib/gcc/nios2-elf/10.3.1/../../../../../H-x86_64-mingw32/nios2-elf/lib\libc.a(lib_a-mprec.o)
                0x00000000030530f4                __lo0bits
 .text.__i2b    0x00000000030531a4       0xb0 c:/intelfpga_lite/21.1/nios2eds/bin/gnu/h-x86_64-mingw32/bin/../lib/gcc/nios2-elf/10.3.1/../../../../../H-x86_64-mingw32/nios2-elf/lib\libc.a(lib_a-mprec.o)
                0x00000000030531a4                __i2b
 .text.__multiply
                0x0000000003053254      0x254 c:/intelfpga_lite/21.1/nios2eds/bin/gnu/h-x86_64-mingw32/bin/../lib/gcc/nios2-elf/10.3.1/../../../../../H-x86_64-mingw32/nios2-elf/lib\libc.a(lib_a-mprec.o)
                0x0000000003053254                __multiply
 .text.__pow5mult
                0x00000000030534a8      0x148 c:/intelfpga_lite/21.1/nios2eds/bin/gnu/h-x86_64-mingw32/bin/../lib/gcc/nios2-elf/10.3.1/../../../../../H-x86_64-mingw32/nios2-elf/lib\libc.a(lib_a-mprec.o)
                0x00000000030534a8                __pow5mult
 .text.__lshift
                0x00000000030535f0      0x188 c:/intelfpga_lite/21.1/nios2eds/bin/gnu/h-x86_64-mingw32/bin/../lib/gcc/nios2-elf/10.3.1/../../../../../H-x86_64-mingw32/nios2-elf/lib\libc.a(lib_a-mprec.o)
                0x00000000030535f0                __lshift
 .text.__mcmp   0x0000000003053778       0x58 c:/intelfpga_lite/21.1/nios2eds/bin/gnu/h-x86_64-mingw32/bin/../lib/gcc/nios2-elf/10.3.1/../../../../../H-x86_64-mingw32/nios2-elf/lib\libc.a(lib_a-mprec.o)
                0x0000000003053778                __mcmp
 .text.__mdiff  0x00000000030537d0      0x22c c:/intelfpga_lite/21.1/nios2eds/bin/gnu/h-x86_64-mingw32/bin/../lib/gcc/nios2-elf/10.3.1/../../../../../H-x86_64-mingw32/nios2-elf/lib\libc.a(lib_a-mprec.o)
                0x00000000030537d0                __mdiff
 .text.__ulp    0x00000000030539fc       0x5c c:/intelfpga_lite/21.1/nios2eds/bin/gnu/h-x86_64-mingw32/bin/../lib/gcc/nios2-elf/10.3.1/../../../../../H-x86_64-mingw32/nios2-elf/lib\libc.a(lib_a-mprec.o)
                0x00000000030539fc                __ulp
 .text.__b2d    0x0000000003053a58      0x108 c:/intelfpga_lite/21.1/nios2eds/bin/gnu/h-x86_64-mingw32/bin/../lib/gcc/nios2-elf/10.3.1/../../../../../H-x86_64-mingw32/nios2-elf/lib\libc.a(lib_a-mprec.o)
                0x0000000003053a58                __b2d
 .text.__d2b    0x0000000003053b60      0x164 c:/intelfpga_lite/21.1/nios2eds/bin/gnu/h-x86_64-mingw32/bin/../lib/gcc/nios2-elf/10.3.1/../../../../../H-x86_64-mingw32/nios2-elf/lib\libc.a(lib_a-mprec.o)
                0x0000000003053b60                __d2b
 .text.__ratio  0x0000000003053cc4       0xa8 c:/intelfpga_lite/21.1/nios2eds/bin/gnu/h-x86_64-mingw32/bin/../lib/gcc/nios2-elf/10.3.1/../../../../../H-x86_64-mingw32/nios2-elf/lib\libc.a(lib_a-mprec.o)
                0x0000000003053cc4                __ratio
 .text._mprec_log10
                0x0000000003053d6c       0x70 c:/intelfpga_lite/21.1/nios2eds/bin/gnu/h-x86_64-mingw32/bin/../lib/gcc/nios2-elf/10.3.1/../../../../../H-x86_64-mingw32/nios2-elf/lib\libc.a(lib_a-mprec.o)
                0x0000000003053d6c                _mprec_log10
 .text.__copybits
                0x0000000003053ddc       0x7c c:/intelfpga_lite/21.1/nios2eds/bin/gnu/h-x86_64-mingw32/bin/../lib/gcc/nios2-elf/10.3.1/../../../../../H-x86_64-mingw32/nios2-elf/lib\libc.a(lib_a-mprec.o)
                0x0000000003053ddc                __copybits
 .text.__any_on
                0x0000000003053e58       0x60 c:/intelfpga_lite/21.1/nios2eds/bin/gnu/h-x86_64-mingw32/bin/../lib/gcc/nios2-elf/10.3.1/../../../../../H-x86_64-mingw32/nios2-elf/lib\libc.a(lib_a-mprec.o)
                0x0000000003053e58                __any_on
 .text          0x0000000003053eb8        0x0 c:/intelfpga_lite/21.1/nios2eds/bin/gnu/h-x86_64-mingw32/bin/../lib/gcc/nios2-elf/10.3.1/../../../../../H-x86_64-mingw32/nios2-elf/lib\libc.a(lib_a-putc.o)
 .text._putc_r  0x0000000003053eb8       0xcc c:/intelfpga_lite/21.1/nios2eds/bin/gnu/h-x86_64-mingw32/bin/../lib/gcc/nios2-elf/10.3.1/../../../../../H-x86_64-mingw32/nios2-elf/lib\libc.a(lib_a-putc.o)
                0x0000000003053eb8                _putc_r
 .text.putc     0x0000000003053f84       0xe0 c:/intelfpga_lite/21.1/nios2eds/bin/gnu/h-x86_64-mingw32/bin/../lib/gcc/nios2-elf/10.3.1/../../../../../H-x86_64-mingw32/nios2-elf/lib\libc.a(lib_a-putc.o)
                0x0000000003053f84                putc
 .text          0x0000000003054064        0x0 c:/intelfpga_lite/21.1/nios2eds/bin/gnu/h-x86_64-mingw32/bin/../lib/gcc/nios2-elf/10.3.1/../../../../../H-x86_64-mingw32/nios2-elf/lib\libc.a(lib_a-readr.o)
 .text._read_r  0x0000000003054064       0x64 c:/intelfpga_lite/21.1/nios2eds/bin/gnu/h-x86_64-mingw32/bin/../lib/gcc/nios2-elf/10.3.1/../../../../../H-x86_64-mingw32/nios2-elf/lib\libc.a(lib_a-readr.o)
                0x0000000003054064                _read_r
 .text          0x00000000030540c8        0x0 c:/intelfpga_lite/21.1/nios2eds/bin/gnu/h-x86_64-mingw32/bin/../lib/gcc/nios2-elf/10.3.1/../../../../../H-x86_64-mingw32/nios2-elf/lib\libc.a(lib_a-reallocr.o)
 .text._realloc_r
                0x00000000030540c8      0x53c c:/intelfpga_lite/21.1/nios2eds/bin/gnu/h-x86_64-mingw32/bin/../lib/gcc/nios2-elf/10.3.1/../../../../../H-x86_64-mingw32/nios2-elf/lib\libc.a(lib_a-reallocr.o)
                0x00000000030540c8                _realloc_r
 .text          0x0000000003054604        0x0 c:/intelfpga_lite/21.1/nios2eds/bin/gnu/h-x86_64-mingw32/bin/../lib/gcc/nios2-elf/10.3.1/../../../../../H-x86_64-mingw32/nios2-elf/lib\libc.a(lib_a-svfiprintf.o)
 .text.__ssprint_r
                0x0000000003054604      0x1c0 c:/intelfpga_lite/21.1/nios2eds/bin/gnu/h-x86_64-mingw32/bin/../lib/gcc/nios2-elf/10.3.1/../../../../../H-x86_64-mingw32/nios2-elf/lib\libc.a(lib_a-svfiprintf.o)
                0x0000000003054604                __ssprint_r
 .text.___svfiprintf_internal_r
                0x00000000030547c4      0xfe4 c:/intelfpga_lite/21.1/nios2eds/bin/gnu/h-x86_64-mingw32/bin/../lib/gcc/nios2-elf/10.3.1/../../../../../H-x86_64-mingw32/nios2-elf/lib\libc.a(lib_a-svfiprintf.o)
                0x00000000030547c4                ___svfiprintf_internal_r
 .text          0x00000000030557a8        0x0 c:/intelfpga_lite/21.1/nios2eds/bin/gnu/h-x86_64-mingw32/bin/../lib/gcc/nios2-elf/10.3.1/../../../../../H-x86_64-mingw32/nios2-elf/lib\libc.a(lib_a-vfiprintf.o)
 .text.__sprint_r.part.0
                0x00000000030557a8       0xf4 c:/intelfpga_lite/21.1/nios2eds/bin/gnu/h-x86_64-mingw32/bin/../lib/gcc/nios2-elf/10.3.1/../../../../../H-x86_64-mingw32/nios2-elf/lib\libc.a(lib_a-vfiprintf.o)
 .text.__sprint_r
                0x000000000305589c       0x18 c:/intelfpga_lite/21.1/nios2eds/bin/gnu/h-x86_64-mingw32/bin/../lib/gcc/nios2-elf/10.3.1/../../../../../H-x86_64-mingw32/nios2-elf/lib\libc.a(lib_a-vfiprintf.o)
                0x000000000305589c                __sprint_r
 .text.___vfiprintf_internal_r
                0x00000000030558b4     0x1250 c:/intelfpga_lite/21.1/nios2eds/bin/gnu/h-x86_64-mingw32/bin/../lib/gcc/nios2-elf/10.3.1/../../../../../H-x86_64-mingw32/nios2-elf/lib\libc.a(lib_a-vfiprintf.o)
                0x00000000030558b4                ___vfiprintf_internal_r
 .text.__vfiprintf_internal
                0x0000000003056b04       0x1c c:/intelfpga_lite/21.1/nios2eds/bin/gnu/h-x86_64-mingw32/bin/../lib/gcc/nios2-elf/10.3.1/../../../../../H-x86_64-mingw32/nios2-elf/lib\libc.a(lib_a-vfiprintf.o)
                0x0000000003056b04                __vfiprintf_internal
 .text.__sbprintf
                0x0000000003056b20       0xc0 c:/intelfpga_lite/21.1/nios2eds/bin/gnu/h-x86_64-mingw32/bin/../lib/gcc/nios2-elf/10.3.1/../../../../../H-x86_64-mingw32/nios2-elf/lib\libc.a(lib_a-vfiprintf.o)
 .text          0x0000000003056be0        0x0 c:/intelfpga_lite/21.1/nios2eds/bin/gnu/h-x86_64-mingw32/bin/../lib/gcc/nios2-elf/10.3.1/../../../../../H-x86_64-mingw32/nios2-elf/lib\libc.a(lib_a-wbuf.o)
 .text.__swbuf_r
                0x0000000003056be0      0x148 c:/intelfpga_lite/21.1/nios2eds/bin/gnu/h-x86_64-mingw32/bin/../lib/gcc/nios2-elf/10.3.1/../../../../../H-x86_64-mingw32/nios2-elf/lib\libc.a(lib_a-wbuf.o)
                0x0000000003056be0                __swbuf_r
 .text.__swbuf  0x0000000003056d28       0x18 c:/intelfpga_lite/21.1/nios2eds/bin/gnu/h-x86_64-mingw32/bin/../lib/gcc/nios2-elf/10.3.1/../../../../../H-x86_64-mingw32/nios2-elf/lib\libc.a(lib_a-wbuf.o)
                0x0000000003056d28                __swbuf
 .text          0x0000000003056d40        0x0 c:/intelfpga_lite/21.1/nios2eds/bin/gnu/h-x86_64-mingw32/bin/../lib/gcc/nios2-elf/10.3.1/../../../../../H-x86_64-mingw32/nios2-elf/lib\libc.a(lib_a-assert.o)
 .text.__assert_func
                0x0000000003056d40       0x64 c:/intelfpga_lite/21.1/nios2eds/bin/gnu/h-x86_64-mingw32/bin/../lib/gcc/nios2-elf/10.3.1/../../../../../H-x86_64-mingw32/nios2-elf/lib\libc.a(lib_a-assert.o)
                0x0000000003056d40                __assert_func
 .text.__assert
                0x0000000003056da4       0x14 c:/intelfpga_lite/21.1/nios2eds/bin/gnu/h-x86_64-mingw32/bin/../lib/gcc/nios2-elf/10.3.1/../../../../../H-x86_64-mingw32/nios2-elf/lib\libc.a(lib_a-assert.o)
                0x0000000003056da4                __assert
 .text          0x0000000003056db8        0x0 c:/intelfpga_lite/21.1/nios2eds/bin/gnu/h-x86_64-mingw32/bin/../lib/gcc/nios2-elf/10.3.1/../../../../../H-x86_64-mingw32/nios2-elf/lib\libc.a(lib_a-callocr.o)
 .text._calloc_r
                0x0000000003056db8      0x12c c:/intelfpga_lite/21.1/nios2eds/bin/gnu/h-x86_64-mingw32/bin/../lib/gcc/nios2-elf/10.3.1/../../../../../H-x86_64-mingw32/nios2-elf/lib\libc.a(lib_a-callocr.o)
                0x0000000003056db8                _calloc_r
 .text          0x0000000003056ee4        0x0 c:/intelfpga_lite/21.1/nios2eds/bin/gnu/h-x86_64-mingw32/bin/../lib/gcc/nios2-elf/10.3.1/../../../../../H-x86_64-mingw32/nios2-elf/lib\libc.a(lib_a-errno.o)
 .text.__errno  0x0000000003056ee4        0xc c:/intelfpga_lite/21.1/nios2eds/bin/gnu/h-x86_64-mingw32/bin/../lib/gcc/nios2-elf/10.3.1/../../../../../H-x86_64-mingw32/nios2-elf/lib\libc.a(lib_a-errno.o)
                0x0000000003056ee4                __errno
 .text          0x0000000003056ef0        0x0 c:/intelfpga_lite/21.1/nios2eds/bin/gnu/h-x86_64-mingw32/bin/../lib/gcc/nios2-elf/10.3.1/../../../../../H-x86_64-mingw32/nios2-elf/lib\libc.a(lib_a-fiprintf.o)
 .text._fiprintf_r
                0x0000000003056ef0       0x20 c:/intelfpga_lite/21.1/nios2eds/bin/gnu/h-x86_64-mingw32/bin/../lib/gcc/nios2-elf/10.3.1/../../../../../H-x86_64-mingw32/nios2-elf/lib\libc.a(lib_a-fiprintf.o)
                0x0000000003056ef0                _fiprintf_r
 .text.fiprintf
                0x0000000003056f10       0x38 c:/intelfpga_lite/21.1/nios2eds/bin/gnu/h-x86_64-mingw32/bin/../lib/gcc/nios2-elf/10.3.1/../../../../../H-x86_64-mingw32/nios2-elf/lib\libc.a(lib_a-fiprintf.o)
                0x0000000003056f10                fiprintf
 .text          0x0000000003056f48        0x0 c:/intelfpga_lite/21.1/nios2eds/bin/gnu/h-x86_64-mingw32/bin/../lib/gcc/nios2-elf/10.3.1/../../../../../H-x86_64-mingw32/nios2-elf/lib\libc.a(lib_a-fputwc.o)
 .text.__fputwc
                0x0000000003056f48      0x164 c:/intelfpga_lite/21.1/nios2eds/bin/gnu/h-x86_64-mingw32/bin/../lib/gcc/nios2-elf/10.3.1/../../../../../H-x86_64-mingw32/nios2-elf/lib\libc.a(lib_a-fputwc.o)
                0x0000000003056f48                __fputwc
 .text._fputwc_r
                0x00000000030570ac       0x24 c:/intelfpga_lite/21.1/nios2eds/bin/gnu/h-x86_64-mingw32/bin/../lib/gcc/nios2-elf/10.3.1/../../../../../H-x86_64-mingw32/nios2-elf/lib\libc.a(lib_a-fputwc.o)
                0x00000000030570ac                _fputwc_r
 .text.fputwc   0x00000000030570d0       0x78 c:/intelfpga_lite/21.1/nios2eds/bin/gnu/h-x86_64-mingw32/bin/../lib/gcc/nios2-elf/10.3.1/../../../../../H-x86_64-mingw32/nios2-elf/lib\libc.a(lib_a-fputwc.o)
                0x00000000030570d0                fputwc
 .text          0x0000000003057148        0x0 c:/intelfpga_lite/21.1/nios2eds/bin/gnu/h-x86_64-mingw32/bin/../lib/gcc/nios2-elf/10.3.1/../../../../../H-x86_64-mingw32/nios2-elf/lib\libc.a(lib_a-locale.o)
 .text._setlocale_r
                0x0000000003057148       0x74 c:/intelfpga_lite/21.1/nios2eds/bin/gnu/h-x86_64-mingw32/bin/../lib/gcc/nios2-elf/10.3.1/../../../../../H-x86_64-mingw32/nios2-elf/lib\libc.a(lib_a-locale.o)
                0x0000000003057148                _setlocale_r
 .text.__locale_mb_cur_max
                0x00000000030571bc        0xc c:/intelfpga_lite/21.1/nios2eds/bin/gnu/h-x86_64-mingw32/bin/../lib/gcc/nios2-elf/10.3.1/../../../../../H-x86_64-mingw32/nios2-elf/lib\libc.a(lib_a-locale.o)
                0x00000000030571bc                __locale_mb_cur_max
 .text.setlocale
                0x00000000030571c8       0x74 c:/intelfpga_lite/21.1/nios2eds/bin/gnu/h-x86_64-mingw32/bin/../lib/gcc/nios2-elf/10.3.1/../../../../../H-x86_64-mingw32/nios2-elf/lib\libc.a(lib_a-locale.o)
                0x00000000030571c8                setlocale
 .text          0x000000000305723c        0x0 c:/intelfpga_lite/21.1/nios2eds/bin/gnu/h-x86_64-mingw32/bin/../lib/gcc/nios2-elf/10.3.1/../../../../../H-x86_64-mingw32/nios2-elf/lib\libc.a(lib_a-mbtowc_r.o)
 .text._mbtowc_r
                0x000000000305723c        0xc c:/intelfpga_lite/21.1/nios2eds/bin/gnu/h-x86_64-mingw32/bin/../lib/gcc/nios2-elf/10.3.1/../../../../../H-x86_64-mingw32/nios2-elf/lib\libc.a(lib_a-mbtowc_r.o)
                0x000000000305723c                _mbtowc_r
 .text.__ascii_mbtowc
                0x0000000003057248       0x44 c:/intelfpga_lite/21.1/nios2eds/bin/gnu/h-x86_64-mingw32/bin/../lib/gcc/nios2-elf/10.3.1/../../../../../H-x86_64-mingw32/nios2-elf/lib\libc.a(lib_a-mbtowc_r.o)
                0x0000000003057248                __ascii_mbtowc
 .text          0x000000000305728c        0x0 c:/intelfpga_lite/21.1/nios2eds/bin/gnu/h-x86_64-mingw32/bin/../lib/gcc/nios2-elf/10.3.1/../../../../../H-x86_64-mingw32/nios2-elf/lib\libc.a(lib_a-vfiprintfr_1.o)
 .text._vfiprintf_r
                0x000000000305728c        0x4 c:/intelfpga_lite/21.1/nios2eds/bin/gnu/h-x86_64-mingw32/bin/../lib/gcc/nios2-elf/10.3.1/../../../../../H-x86_64-mingw32/nios2-elf/lib\libc.a(lib_a-vfiprintfr_1.o)
                0x000000000305728c                _vfiprintf_r
 .text          0x0000000003057290        0x0 c:/intelfpga_lite/21.1/nios2eds/bin/gnu/h-x86_64-mingw32/bin/../lib/gcc/nios2-elf/10.3.1/../../../../../H-x86_64-mingw32/nios2-elf/lib\libc.a(lib_a-wcrtomb.o)
 .text._wcrtomb_r
                0x0000000003057290       0x6c c:/intelfpga_lite/21.1/nios2eds/bin/gnu/h-x86_64-mingw32/bin/../lib/gcc/nios2-elf/10.3.1/../../../../../H-x86_64-mingw32/nios2-elf/lib\libc.a(lib_a-wcrtomb.o)
                0x0000000003057290                _wcrtomb_r
 .text.wcrtomb  0x00000000030572fc       0x88 c:/intelfpga_lite/21.1/nios2eds/bin/gnu/h-x86_64-mingw32/bin/../lib/gcc/nios2-elf/10.3.1/../../../../../H-x86_64-mingw32/nios2-elf/lib\libc.a(lib_a-wcrtomb.o)
                0x00000000030572fc                wcrtomb
 .text          0x0000000003057384        0x0 c:/intelfpga_lite/21.1/nios2eds/bin/gnu/h-x86_64-mingw32/bin/../lib/gcc/nios2-elf/10.3.1/../../../../../H-x86_64-mingw32/nios2-elf/lib\libc.a(lib_a-wctomb_r.o)
 .text._wctomb_r
                0x0000000003057384        0xc c:/intelfpga_lite/21.1/nios2eds/bin/gnu/h-x86_64-mingw32/bin/../lib/gcc/nios2-elf/10.3.1/../../../../../H-x86_64-mingw32/nios2-elf/lib\libc.a(lib_a-wctomb_r.o)
                0x0000000003057384                _wctomb_r
 .text.__ascii_wctomb
                0x0000000003057390       0x30 c:/intelfpga_lite/21.1/nios2eds/bin/gnu/h-x86_64-mingw32/bin/../lib/gcc/nios2-elf/10.3.1/../../../../../H-x86_64-mingw32/nios2-elf/lib\libc.a(lib_a-wctomb_r.o)
                0x0000000003057390                __ascii_wctomb
 .text          0x00000000030573c0        0x0 c:/intelfpga_lite/21.1/nios2eds/bin/gnu/h-x86_64-mingw32/bin/../lib/gcc/nios2-elf/10.3.1/../../../../../H-x86_64-mingw32/nios2-elf/lib\libc.a(lib_a-abort.o)
 .text.unlikely.abort
                0x00000000030573c0       0x18 c:/intelfpga_lite/21.1/nios2eds/bin/gnu/h-x86_64-mingw32/bin/../lib/gcc/nios2-elf/10.3.1/../../../../../H-x86_64-mingw32/nios2-elf/lib\libc.a(lib_a-abort.o)
                0x00000000030573c0                abort
 .text          0x00000000030573d8        0x0 c:/intelfpga_lite/21.1/nios2eds/bin/gnu/h-x86_64-mingw32/bin/../lib/gcc/nios2-elf/10.3.1/../../../../../H-x86_64-mingw32/nios2-elf/lib\libc.a(lib_a-ctype_.o)
 .text          0x00000000030573d8        0x0 c:/intelfpga_lite/21.1/nios2eds/bin/gnu/h-x86_64-mingw32/bin/../lib/gcc/nios2-elf/10.3.1/../../../../../H-x86_64-mingw32/nios2-elf/lib\libc.a(lib_a-signal.o)
 .text._init_signal_r
                0x00000000030573d8       0x5c c:/intelfpga_lite/21.1/nios2eds/bin/gnu/h-x86_64-mingw32/bin/../lib/gcc/nios2-elf/10.3.1/../../../../../H-x86_64-mingw32/nios2-elf/lib\libc.a(lib_a-signal.o)
                0x00000000030573d8                _init_signal_r
 .text._signal_r
                0x0000000003057434       0x98 c:/intelfpga_lite/21.1/nios2eds/bin/gnu/h-x86_64-mingw32/bin/../lib/gcc/nios2-elf/10.3.1/../../../../../H-x86_64-mingw32/nios2-elf/lib\libc.a(lib_a-signal.o)
                0x0000000003057434                _signal_r
 .text._raise_r
                0x00000000030574cc       0xc4 c:/intelfpga_lite/21.1/nios2eds/bin/gnu/h-x86_64-mingw32/bin/../lib/gcc/nios2-elf/10.3.1/../../../../../H-x86_64-mingw32/nios2-elf/lib\libc.a(lib_a-signal.o)
                0x00000000030574cc                _raise_r
 .text.__sigtramp_r
                0x0000000003057590       0xbc c:/intelfpga_lite/21.1/nios2eds/bin/gnu/h-x86_64-mingw32/bin/../lib/gcc/nios2-elf/10.3.1/../../../../../H-x86_64-mingw32/nios2-elf/lib\libc.a(lib_a-signal.o)
                0x0000000003057590                __sigtramp_r
 .text.raise    0x000000000305764c       0xbc c:/intelfpga_lite/21.1/nios2eds/bin/gnu/h-x86_64-mingw32/bin/../lib/gcc/nios2-elf/10.3.1/../../../../../H-x86_64-mingw32/nios2-elf/lib\libc.a(lib_a-signal.o)
                0x000000000305764c                raise
 .text.signal   0x0000000003057708       0xa0 c:/intelfpga_lite/21.1/nios2eds/bin/gnu/h-x86_64-mingw32/bin/../lib/gcc/nios2-elf/10.3.1/../../../../../H-x86_64-mingw32/nios2-elf/lib\libc.a(lib_a-signal.o)
                0x0000000003057708                signal
 .text._init_signal
                0x00000000030577a8       0x60 c:/intelfpga_lite/21.1/nios2eds/bin/gnu/h-x86_64-mingw32/bin/../lib/gcc/nios2-elf/10.3.1/../../../../../H-x86_64-mingw32/nios2-elf/lib\libc.a(lib_a-signal.o)
                0x00000000030577a8                _init_signal
 .text.__sigtramp
                0x0000000003057808       0xbc c:/intelfpga_lite/21.1/nios2eds/bin/gnu/h-x86_64-mingw32/bin/../lib/gcc/nios2-elf/10.3.1/../../../../../H-x86_64-mingw32/nios2-elf/lib\libc.a(lib_a-signal.o)
                0x0000000003057808                __sigtramp
 .text          0x00000000030578c4        0x0 c:/intelfpga_lite/21.1/nios2eds/bin/gnu/h-x86_64-mingw32/bin/../lib/gcc/nios2-elf/10.3.1/../../../../../H-x86_64-mingw32/nios2-elf/lib\libc.a(lib_a-signalr.o)
 .text._kill_r  0x00000000030578c4       0x60 c:/intelfpga_lite/21.1/nios2eds/bin/gnu/h-x86_64-mingw32/bin/../lib/gcc/nios2-elf/10.3.1/../../../../../H-x86_64-mingw32/nios2-elf/lib\libc.a(lib_a-signalr.o)
                0x00000000030578c4                _kill_r
 .text._getpid_r
                0x0000000003057924        0x4 c:/intelfpga_lite/21.1/nios2eds/bin/gnu/h-x86_64-mingw32/bin/../lib/gcc/nios2-elf/10.3.1/../../../../../H-x86_64-mingw32/nios2-elf/lib\libc.a(lib_a-signalr.o)
                0x0000000003057924                _getpid_r
 .text          0x0000000003057928      0x590 c:/intelfpga_lite/21.1/nios2eds/bin/gnu/h-x86_64-mingw32/bin/../lib/gcc/nios2-elf/10.3.1\libgcc.a(_udivdi3.o)
                0x0000000003057928                __udivdi3
 .text          0x0000000003057eb8      0x534 c:/intelfpga_lite/21.1/nios2eds/bin/gnu/h-x86_64-mingw32/bin/../lib/gcc/nios2-elf/10.3.1\libgcc.a(_umoddi3.o)
                0x0000000003057eb8                __umoddi3
 .text          0x00000000030583ec      0x8f0 c:/intelfpga_lite/21.1/nios2eds/bin/gnu/h-x86_64-mingw32/bin/../lib/gcc/nios2-elf/10.3.1\libgcc.a(adddf3.o)
                0x00000000030583ec                __adddf3
 .text          0x0000000003058cdc       0x80 c:/intelfpga_lite/21.1/nios2eds/bin/gnu/h-x86_64-mingw32/bin/../lib/gcc/nios2-elf/10.3.1\libgcc.a(eqdf2.o)
                0x0000000003058cdc                __nedf2
                0x0000000003058cdc                __eqdf2
 .text          0x0000000003058d5c       0xe8 c:/intelfpga_lite/21.1/nios2eds/bin/gnu/h-x86_64-mingw32/bin/../lib/gcc/nios2-elf/10.3.1\libgcc.a(gedf2.o)
                0x0000000003058d5c                __gedf2
                0x0000000003058d5c                __gtdf2
 .text          0x0000000003058e44       0xe8 c:/intelfpga_lite/21.1/nios2eds/bin/gnu/h-x86_64-mingw32/bin/../lib/gcc/nios2-elf/10.3.1\libgcc.a(ledf2.o)
                0x0000000003058e44                __ledf2
                0x0000000003058e44                __ltdf2
 .text          0x0000000003058f2c      0x674 c:/intelfpga_lite/21.1/nios2eds/bin/gnu/h-x86_64-mingw32/bin/../lib/gcc/nios2-elf/10.3.1\libgcc.a(muldf3.o)
                0x0000000003058f2c                __muldf3
 .text          0x00000000030595a0      0x90c c:/intelfpga_lite/21.1/nios2eds/bin/gnu/h-x86_64-mingw32/bin/../lib/gcc/nios2-elf/10.3.1\libgcc.a(subdf3.o)
                0x00000000030595a0                __subdf3
 .text          0x0000000003059eac       0x54 c:/intelfpga_lite/21.1/nios2eds/bin/gnu/h-x86_64-mingw32/bin/../lib/gcc/nios2-elf/10.3.1\libgcc.a(unorddf2.o)
                0x0000000003059eac                __unorddf2
 .text          0x0000000003059f00       0x80 c:/intelfpga_lite/21.1/nios2eds/bin/gnu/h-x86_64-mingw32/bin/../lib/gcc/nios2-elf/10.3.1\libgcc.a(fixdfsi.o)
                0x0000000003059f00                __fixdfsi
 .text          0x0000000003059f80       0xb8 c:/intelfpga_lite/21.1/nios2eds/bin/gnu/h-x86_64-mingw32/bin/../lib/gcc/nios2-elf/10.3.1\libgcc.a(floatsidf.o)
                0x0000000003059f80                __floatsidf
 .text          0x000000000305a038       0x90 c:/intelfpga_lite/21.1/nios2eds/bin/gnu/h-x86_64-mingw32/bin/../lib/gcc/nios2-elf/10.3.1\libgcc.a(floatunsidf.o)
                0x000000000305a038                __floatunsidf
 .text          0x000000000305a0c8      0x10c c:/Users/Robin/Documents/NHLStenden/FPGA/QuartusPrimeProjects/DE2-115_V.1.0.6_SystemCD/DE2_115_demonstrations/DE2_115_SD_Card_Audio_Player_Copy/Software/Audio_Player_test1_bsp/\libhal_bsp.a(alt_close.o)
                0x000000000305a104                close
 .text          0x000000000305a1d4       0x2c c:/Users/Robin/Documents/NHLStenden/FPGA/QuartusPrimeProjects/DE2-115_V.1.0.6_SystemCD/DE2_115_demonstrations/DE2_115_SD_Card_Audio_Player_Copy/Software/Audio_Player_test1_bsp/\libhal_bsp.a(alt_dev.o)
 .text          0x000000000305a200        0x0 c:/Users/Robin/Documents/NHLStenden/FPGA/QuartusPrimeProjects/DE2-115_V.1.0.6_SystemCD/DE2_115_demonstrations/DE2_115_SD_Card_Audio_Player_Copy/Software/Audio_Player_test1_bsp/\libhal_bsp.a(alt_errno.o)
 .text          0x000000000305a200       0x38 c:/Users/Robin/Documents/NHLStenden/FPGA/QuartusPrimeProjects/DE2-115_V.1.0.6_SystemCD/DE2_115_demonstrations/DE2_115_SD_Card_Audio_Player_Copy/Software/Audio_Player_test1_bsp/\libhal_bsp.a(alt_exit.o)
                0x000000000305a200                _exit
 .text          0x000000000305a238       0xec c:/Users/Robin/Documents/NHLStenden/FPGA/QuartusPrimeProjects/DE2-115_V.1.0.6_SystemCD/DE2_115_demonstrations/DE2_115_SD_Card_Audio_Player_Copy/Software/Audio_Player_test1_bsp/\libhal_bsp.a(alt_fstat.o)
                0x000000000305a274                fstat
 .text          0x000000000305a324       0x20 c:/Users/Robin/Documents/NHLStenden/FPGA/QuartusPrimeProjects/DE2-115_V.1.0.6_SystemCD/DE2_115_demonstrations/DE2_115_SD_Card_Audio_Player_Copy/Software/Audio_Player_test1_bsp/\libhal_bsp.a(alt_getpid.o)
                0x000000000305a324                getpid
 .text          0x000000000305a344      0x180 c:/Users/Robin/Documents/NHLStenden/FPGA/QuartusPrimeProjects/DE2-115_V.1.0.6_SystemCD/DE2_115_demonstrations/DE2_115_SD_Card_Audio_Player_Copy/Software/Audio_Player_test1_bsp/\libhal_bsp.a(alt_irq_register.o)
                0x000000000305a344                alt_irq_register
 .text          0x000000000305a4c4        0x0 c:/Users/Robin/Documents/NHLStenden/FPGA/QuartusPrimeProjects/DE2-115_V.1.0.6_SystemCD/DE2_115_demonstrations/DE2_115_SD_Card_Audio_Player_Copy/Software/Audio_Player_test1_bsp/\libhal_bsp.a(alt_irq_vars.o)
 .text          0x000000000305a4c4       0xe0 c:/Users/Robin/Documents/NHLStenden/FPGA/QuartusPrimeProjects/DE2-115_V.1.0.6_SystemCD/DE2_115_demonstrations/DE2_115_SD_Card_Audio_Player_Copy/Software/Audio_Player_test1_bsp/\libhal_bsp.a(alt_isatty.o)
                0x000000000305a500                isatty
 .text          0x000000000305a5a4      0x168 c:/Users/Robin/Documents/NHLStenden/FPGA/QuartusPrimeProjects/DE2-115_V.1.0.6_SystemCD/DE2_115_demonstrations/DE2_115_SD_Card_Audio_Player_Copy/Software/Audio_Player_test1_bsp/\libhal_bsp.a(alt_kill.o)
                0x000000000305a5e0                kill
 .text          0x000000000305a70c       0xec c:/Users/Robin/Documents/NHLStenden/FPGA/QuartusPrimeProjects/DE2-115_V.1.0.6_SystemCD/DE2_115_demonstrations/DE2_115_SD_Card_Audio_Player_Copy/Software/Audio_Player_test1_bsp/\libhal_bsp.a(alt_load.o)
                0x000000000305a774                alt_load
 .text          0x000000000305a7f8      0x110 c:/Users/Robin/Documents/NHLStenden/FPGA/QuartusPrimeProjects/DE2-115_V.1.0.6_SystemCD/DE2_115_demonstrations/DE2_115_SD_Card_Audio_Player_Copy/Software/Audio_Player_test1_bsp/\libhal_bsp.a(alt_lseek.o)
                0x000000000305a834                lseek
 .text          0x000000000305a908       0x7c c:/Users/Robin/Documents/NHLStenden/FPGA/QuartusPrimeProjects/DE2-115_V.1.0.6_SystemCD/DE2_115_demonstrations/DE2_115_SD_Card_Audio_Player_Copy/Software/Audio_Player_test1_bsp/\libhal_bsp.a(alt_main.o)
                0x000000000305a908                alt_main
 .text          0x000000000305a984       0x48 c:/Users/Robin/Documents/NHLStenden/FPGA/QuartusPrimeProjects/DE2-115_V.1.0.6_SystemCD/DE2_115_demonstrations/DE2_115_SD_Card_Audio_Player_Copy/Software/Audio_Player_test1_bsp/\libhal_bsp.a(alt_malloc_lock.o)
                0x000000000305a984                __malloc_lock
                0x000000000305a9a8                __malloc_unlock
 .text          0x000000000305a9cc      0x248 c:/Users/Robin/Documents/NHLStenden/FPGA/QuartusPrimeProjects/DE2-115_V.1.0.6_SystemCD/DE2_115_demonstrations/DE2_115_SD_Card_Audio_Player_Copy/Software/Audio_Player_test1_bsp/\libhal_bsp.a(alt_open.o)
                0x000000000305aac0                open
 .text          0x000000000305ac14      0x138 c:/Users/Robin/Documents/NHLStenden/FPGA/QuartusPrimeProjects/DE2-115_V.1.0.6_SystemCD/DE2_115_demonstrations/DE2_115_SD_Card_Audio_Player_Copy/Software/Audio_Player_test1_bsp/\libhal_bsp.a(alt_read.o)
                0x000000000305ac50                read
 .text          0x000000000305ad4c       0x58 c:/Users/Robin/Documents/NHLStenden/FPGA/QuartusPrimeProjects/DE2-115_V.1.0.6_SystemCD/DE2_115_demonstrations/DE2_115_SD_Card_Audio_Player_Copy/Software/Audio_Player_test1_bsp/\libhal_bsp.a(alt_release_fd.o)
                0x000000000305ad4c                alt_release_fd
 .text          0x000000000305ada4       0xb8 c:/Users/Robin/Documents/NHLStenden/FPGA/QuartusPrimeProjects/DE2-115_V.1.0.6_SystemCD/DE2_115_demonstrations/DE2_115_SD_Card_Audio_Player_Copy/Software/Audio_Player_test1_bsp/\libhal_bsp.a(alt_sbrk.o)
                0x000000000305ada4                sbrk
 .text          0x000000000305ae5c      0x1d0 c:/Users/Robin/Documents/NHLStenden/FPGA/QuartusPrimeProjects/DE2-115_V.1.0.6_SystemCD/DE2_115_demonstrations/DE2_115_SD_Card_Audio_Player_Copy/Software/Audio_Player_test1_bsp/\libhal_bsp.a(alt_tick.o)
                0x000000000305ae5c                alt_alarm_stop
                0x000000000305af00                alt_tick
 .text          0x000000000305b02c       0x30 c:/Users/Robin/Documents/NHLStenden/FPGA/QuartusPrimeProjects/DE2-115_V.1.0.6_SystemCD/DE2_115_demonstrations/DE2_115_SD_Card_Audio_Player_Copy/Software/Audio_Player_test1_bsp/\libhal_bsp.a(alt_usleep.o)
                0x000000000305b02c                usleep
 .text          0x000000000305b05c      0x134 c:/Users/Robin/Documents/NHLStenden/FPGA/QuartusPrimeProjects/DE2-115_V.1.0.6_SystemCD/DE2_115_demonstrations/DE2_115_SD_Card_Audio_Player_Copy/Software/Audio_Player_test1_bsp/\libhal_bsp.a(alt_write.o)
                0x000000000305b098                write
 .text          0x000000000305b190       0xfc c:/Users/Robin/Documents/NHLStenden/FPGA/QuartusPrimeProjects/DE2-115_V.1.0.6_SystemCD/DE2_115_demonstrations/DE2_115_SD_Card_Audio_Player_Copy/Software/Audio_Player_test1_bsp/\libhal_bsp.a(alt_sys_init.o)
                0x000000000305b1c4                alt_irq_init
                0x000000000305b200                alt_sys_init
 .text          0x000000000305b28c      0x87c c:/Users/Robin/Documents/NHLStenden/FPGA/QuartusPrimeProjects/DE2-115_V.1.0.6_SystemCD/DE2_115_demonstrations/DE2_115_SD_Card_Audio_Player_Copy/Software/Audio_Player_test1_bsp/\libhal_bsp.a(altera_avalon_cfi_flash.o)
                0x000000000305b2c0                alt_flash_cfi_init
                0x000000000305b350                alt_flash_cfi_write
                0x000000000305b5ec                alt_flash_cfi_get_info
                0x000000000305b678                alt_flash_cfi_read
                0x000000000305b6dc                alt_write_value_to_flash
                0x000000000305b838                alt_flash_program_block
 .text          0x000000000305bb08     0x1404 c:/Users/Robin/Documents/NHLStenden/FPGA/QuartusPrimeProjects/DE2-115_V.1.0.6_SystemCD/DE2_115_demonstrations/DE2_115_SD_Card_Audio_Player_Copy/Software/Audio_Player_test1_bsp/\libhal_bsp.a(altera_avalon_cfi_flash_table.o)
                0x000000000305bb08                alt_read_query_entry_8bit
                0x000000000305bb44                alt_read_query_entry_16bit
                0x000000000305bb84                alt_read_query_entry_32bit
                0x000000000305bbc0                alt_write_flash_command_8bit_device_8bit_mode
                0x000000000305bc04                alt_write_flash_command_16bit_device_8bit_mode
                0x000000000305bc7c                alt_write_flash_command_32bit_device_8bit_mode
                0x000000000305bcc8                alt_write_flash_command_16bit_device_16bit_mode
                0x000000000305bd14                alt_write_flash_command_32bit_device_16bit_mode
                0x000000000305bd60                alt_write_flash_command_32bit_device_32bit_mode
                0x000000000305bdac                alt_write_native_8bit
                0x000000000305bde4                alt_write_native_16bit
                0x000000000305be1c                alt_write_native_32bit
                0x000000000305be50                alt_set_flash_width_func
                0x000000000305c034                alt_set_flash_algorithm_func
                0x000000000305c154                alt_read_cfi_table
                0x000000000305c6e0                alt_read_cfi_width
                0x000000000305ce38                alt_check_primary_table
 .text          0x000000000305cf0c      0x164 c:/Users/Robin/Documents/NHLStenden/FPGA/QuartusPrimeProjects/DE2-115_V.1.0.6_SystemCD/DE2_115_demonstrations/DE2_115_SD_Card_Audio_Player_Copy/Software/Audio_Player_test1_bsp/\libhal_bsp.a(altera_avalon_jtag_uart_fd.o)
                0x000000000305cf0c                altera_avalon_jtag_uart_read_fd
                0x000000000305cf6c                altera_avalon_jtag_uart_write_fd
                0x000000000305cfcc                altera_avalon_jtag_uart_close_fd
                0x000000000305d01c                altera_avalon_jtag_uart_ioctl_fd
 .text          0x000000000305d070      0x3d4 c:/Users/Robin/Documents/NHLStenden/FPGA/QuartusPrimeProjects/DE2-115_V.1.0.6_SystemCD/DE2_115_demonstrations/DE2_115_SD_Card_Audio_Player_Copy/Software/Audio_Player_test1_bsp/\libhal_bsp.a(altera_avalon_jtag_uart_init.o)
                0x000000000305d070                altera_avalon_jtag_uart_init
                0x000000000305d3dc                altera_avalon_jtag_uart_close
 .text          0x000000000305d444       0xf4 c:/Users/Robin/Documents/NHLStenden/FPGA/QuartusPrimeProjects/DE2-115_V.1.0.6_SystemCD/DE2_115_demonstrations/DE2_115_SD_Card_Audio_Player_Copy/Software/Audio_Player_test1_bsp/\libhal_bsp.a(altera_avalon_jtag_uart_ioctl.o)
                0x000000000305d444                altera_avalon_jtag_uart_ioctl
 .text          0x000000000305d538      0x220 c:/Users/Robin/Documents/NHLStenden/FPGA/QuartusPrimeProjects/DE2-115_V.1.0.6_SystemCD/DE2_115_demonstrations/DE2_115_SD_Card_Audio_Player_Copy/Software/Audio_Player_test1_bsp/\libhal_bsp.a(altera_avalon_jtag_uart_read.o)
                0x000000000305d538                altera_avalon_jtag_uart_read
 .text          0x000000000305d758      0x228 c:/Users/Robin/Documents/NHLStenden/FPGA/QuartusPrimeProjects/DE2-115_V.1.0.6_SystemCD/DE2_115_demonstrations/DE2_115_SD_Card_Audio_Player_Copy/Software/Audio_Player_test1_bsp/\libhal_bsp.a(altera_avalon_jtag_uart_write.o)
                0x000000000305d758                altera_avalon_jtag_uart_write
 .text          0x000000000305d980      0x100 c:/Users/Robin/Documents/NHLStenden/FPGA/QuartusPrimeProjects/DE2-115_V.1.0.6_SystemCD/DE2_115_demonstrations/DE2_115_SD_Card_Audio_Player_Copy/Software/Audio_Player_test1_bsp/\libhal_bsp.a(altera_avalon_timer_sc.o)
                0x000000000305d9fc                alt_avalon_timer_sc_init
 .text          0x000000000305da80      0x110 c:/Users/Robin/Documents/NHLStenden/FPGA/QuartusPrimeProjects/DE2-115_V.1.0.6_SystemCD/DE2_115_demonstrations/DE2_115_SD_Card_Audio_Player_Copy/Software/Audio_Player_test1_bsp/\libhal_bsp.a(altera_avalon_uart_fd.o)
                0x000000000305da80                altera_avalon_uart_read_fd
                0x000000000305dae0                altera_avalon_uart_write_fd
                0x000000000305db40                altera_avalon_uart_close_fd
 .text          0x000000000305db90      0x3c0 c:/Users/Robin/Documents/NHLStenden/FPGA/QuartusPrimeProjects/DE2-115_V.1.0.6_SystemCD/DE2_115_demonstrations/DE2_115_SD_Card_Audio_Player_Copy/Software/Audio_Player_test1_bsp/\libhal_bsp.a(altera_avalon_uart_init.o)
                0x000000000305db90                altera_avalon_uart_init
                0x000000000305defc                altera_avalon_uart_close
 .text          0x000000000305df50      0x224 c:/Users/Robin/Documents/NHLStenden/FPGA/QuartusPrimeProjects/DE2-115_V.1.0.6_SystemCD/DE2_115_demonstrations/DE2_115_SD_Card_Audio_Player_Copy/Software/Audio_Player_test1_bsp/\libhal_bsp.a(altera_avalon_uart_read.o)
                0x000000000305df8c                altera_avalon_uart_read
 .text          0x000000000305e174      0x1f0 c:/Users/Robin/Documents/NHLStenden/FPGA/QuartusPrimeProjects/DE2-115_V.1.0.6_SystemCD/DE2_115_demonstrations/DE2_115_SD_Card_Audio_Player_Copy/Software/Audio_Player_test1_bsp/\libhal_bsp.a(altera_avalon_uart_write.o)
                0x000000000305e1b0                altera_avalon_uart_write
 .text          0x000000000305e364      0x160 c:/Users/Robin/Documents/NHLStenden/FPGA/QuartusPrimeProjects/DE2-115_V.1.0.6_SystemCD/DE2_115_demonstrations/DE2_115_SD_Card_Audio_Player_Copy/Software/Audio_Player_test1_bsp/\libhal_bsp.a(alt_alarm_start.o)
                0x000000000305e364                alt_alarm_start
 .text          0x000000000305e4c4      0x158 c:/Users/Robin/Documents/NHLStenden/FPGA/QuartusPrimeProjects/DE2-115_V.1.0.6_SystemCD/DE2_115_demonstrations/DE2_115_SD_Card_Audio_Player_Copy/Software/Audio_Player_test1_bsp/\libhal_bsp.a(alt_busy_sleep.o)
                0x000000000305e4c4                alt_busy_sleep
 .text          0x000000000305e61c       0x78 c:/Users/Robin/Documents/NHLStenden/FPGA/QuartusPrimeProjects/DE2-115_V.1.0.6_SystemCD/DE2_115_demonstrations/DE2_115_SD_Card_Audio_Player_Copy/Software/Audio_Player_test1_bsp/\libhal_bsp.a(alt_dcache_flush.o)
                0x000000000305e61c                alt_dcache_flush
 .text          0x000000000305e694       0x4c c:/Users/Robin/Documents/NHLStenden/FPGA/QuartusPrimeProjects/DE2-115_V.1.0.6_SystemCD/DE2_115_demonstrations/DE2_115_SD_Card_Audio_Player_Copy/Software/Audio_Player_test1_bsp/\libhal_bsp.a(alt_dcache_flush_all.o)
                0x000000000305e694                alt_dcache_flush_all
 .text          0x000000000305e6e0       0xe4 c:/Users/Robin/Documents/NHLStenden/FPGA/QuartusPrimeProjects/DE2-115_V.1.0.6_SystemCD/DE2_115_demonstrations/DE2_115_SD_Card_Audio_Player_Copy/Software/Audio_Player_test1_bsp/\libhal_bsp.a(alt_dev_llist_insert.o)
                0x000000000305e71c                alt_dev_llist_insert
 .text          0x000000000305e7c4       0x64 c:/Users/Robin/Documents/NHLStenden/FPGA/QuartusPrimeProjects/DE2-115_V.1.0.6_SystemCD/DE2_115_demonstrations/DE2_115_SD_Card_Audio_Player_Copy/Software/Audio_Player_test1_bsp/\libhal_bsp.a(alt_do_ctors.o)
                0x000000000305e7c4                _do_ctors
 .text          0x000000000305e828       0x64 c:/Users/Robin/Documents/NHLStenden/FPGA/QuartusPrimeProjects/DE2-115_V.1.0.6_SystemCD/DE2_115_demonstrations/DE2_115_SD_Card_Audio_Player_Copy/Software/Audio_Player_test1_bsp/\libhal_bsp.a(alt_do_dtors.o)
                0x000000000305e828                _do_dtors
 .text          0x000000000305e88c       0x90 c:/Users/Robin/Documents/NHLStenden/FPGA/QuartusPrimeProjects/DE2-115_V.1.0.6_SystemCD/DE2_115_demonstrations/DE2_115_SD_Card_Audio_Player_Copy/Software/Audio_Player_test1_bsp/\libhal_bsp.a(alt_find_dev.o)
                0x000000000305e88c                alt_find_dev
 .text          0x000000000305e91c      0x108 c:/Users/Robin/Documents/NHLStenden/FPGA/QuartusPrimeProjects/DE2-115_V.1.0.6_SystemCD/DE2_115_demonstrations/DE2_115_SD_Card_Audio_Player_Copy/Software/Audio_Player_test1_bsp/\libhal_bsp.a(alt_find_file.o)
                0x000000000305e91c                alt_find_file
 .text          0x000000000305ea24       0xbc c:/Users/Robin/Documents/NHLStenden/FPGA/QuartusPrimeProjects/DE2-115_V.1.0.6_SystemCD/DE2_115_demonstrations/DE2_115_SD_Card_Audio_Player_Copy/Software/Audio_Player_test1_bsp/\libhal_bsp.a(alt_flash_dev.o)
                0x000000000305ea24                alt_flash_open_dev
                0x000000000305ea8c                alt_flash_close_dev
 .text          0x000000000305eae0       0xa0 c:/Users/Robin/Documents/NHLStenden/FPGA/QuartusPrimeProjects/DE2-115_V.1.0.6_SystemCD/DE2_115_demonstrations/DE2_115_SD_Card_Audio_Player_Copy/Software/Audio_Player_test1_bsp/\libhal_bsp.a(alt_get_fd.o)
                0x000000000305eae0                alt_get_fd
 .text          0x000000000305eb80       0x34 c:/Users/Robin/Documents/NHLStenden/FPGA/QuartusPrimeProjects/DE2-115_V.1.0.6_SystemCD/DE2_115_demonstrations/DE2_115_SD_Card_Audio_Player_Copy/Software/Audio_Player_test1_bsp/\libhal_bsp.a(alt_icache_flush_all.o)
                0x000000000305eb80                alt_icache_flush_all
 .text          0x000000000305ebb4      0x1b0 c:/Users/Robin/Documents/NHLStenden/FPGA/QuartusPrimeProjects/DE2-115_V.1.0.6_SystemCD/DE2_115_demonstrations/DE2_115_SD_Card_Audio_Player_Copy/Software/Audio_Player_test1_bsp/\libhal_bsp.a(alt_iic.o)
                0x000000000305ebb4                alt_ic_isr_register
                0x000000000305ec04                alt_ic_irq_enable
                0x000000000305ec8c                alt_ic_irq_disable
                0x000000000305ed18                alt_ic_irq_enabled
 .text          0x000000000305ed64       0xe8 c:/Users/Robin/Documents/NHLStenden/FPGA/QuartusPrimeProjects/DE2-115_V.1.0.6_SystemCD/DE2_115_demonstrations/DE2_115_SD_Card_Audio_Player_Copy/Software/Audio_Player_test1_bsp/\libhal_bsp.a(alt_iic_isr_register.o)
                0x000000000305ed64                alt_iic_isr_register
 .text          0x000000000305ee4c      0x12c c:/Users/Robin/Documents/NHLStenden/FPGA/QuartusPrimeProjects/DE2-115_V.1.0.6_SystemCD/DE2_115_demonstrations/DE2_115_SD_Card_Audio_Player_Copy/Software/Audio_Player_test1_bsp/\libhal_bsp.a(alt_io_redirect.o)
                0x000000000305eefc                alt_io_redirect
 .text          0x000000000305ef78        0x0 c:/Users/Robin/Documents/NHLStenden/FPGA/QuartusPrimeProjects/DE2-115_V.1.0.6_SystemCD/DE2_115_demonstrations/DE2_115_SD_Card_Audio_Player_Copy/Software/Audio_Player_test1_bsp/\libhal_bsp.a(alt_irq_entry.o)
 .text          0x000000000305ef78        0x0 c:/Users/Robin/Documents/NHLStenden/FPGA/QuartusPrimeProjects/DE2-115_V.1.0.6_SystemCD/DE2_115_demonstrations/DE2_115_SD_Card_Audio_Player_Copy/Software/Audio_Player_test1_bsp/\libhal_bsp.a(alt_irq_handler.o)
 .text          0x000000000305ef78       0x24 c:/Users/Robin/Documents/NHLStenden/FPGA/QuartusPrimeProjects/DE2-115_V.1.0.6_SystemCD/DE2_115_demonstrations/DE2_115_SD_Card_Audio_Player_Copy/Software/Audio_Player_test1_bsp/\libhal_bsp.a(altera_nios2_irq.o)
                0x000000000305ef78                altera_nios2_irq_init
 .text          0x000000000305ef9c      0x468 c:/Users/Robin/Documents/NHLStenden/FPGA/QuartusPrimeProjects/DE2-115_V.1.0.6_SystemCD/DE2_115_demonstrations/DE2_115_SD_Card_Audio_Player_Copy/Software/Audio_Player_test1_bsp/\libhal_bsp.a(altera_avalon_cfi_flash_amd.o)
                0x000000000305ef9c                alt_program_amd
                0x000000000305f004                alt_erase_block_amd
 .text          0x000000000305f404      0x45c c:/Users/Robin/Documents/NHLStenden/FPGA/QuartusPrimeProjects/DE2-115_V.1.0.6_SystemCD/DE2_115_demonstrations/DE2_115_SD_Card_Audio_Player_Copy/Software/Audio_Player_test1_bsp/\libhal_bsp.a(altera_avalon_cfi_flash_intel.o)
                0x000000000305f404                alt_program_intel
                0x000000000305f484                alt_erase_block_intel
 .text          0x000000000305f860        0x0 c:/Users/Robin/Documents/NHLStenden/FPGA/QuartusPrimeProjects/DE2-115_V.1.0.6_SystemCD/DE2_115_demonstrations/DE2_115_SD_Card_Audio_Player_Copy/Software/Audio_Player_test1_bsp/\libhal_bsp.a(alt_exception_entry.o)
 .text          0x000000000305f860       0x90 c:/Users/Robin/Documents/NHLStenden/FPGA/QuartusPrimeProjects/DE2-115_V.1.0.6_SystemCD/DE2_115_demonstrations/DE2_115_SD_Card_Audio_Player_Copy/Software/Audio_Player_test1_bsp/\libhal_bsp.a(alt_icache_flush.o)
                0x000000000305f860                alt_icache_flush
 .text          0x000000000305f8f0        0x0 c:/intelfpga_lite/21.1/nios2eds/bin/gnu/h-x86_64-mingw32/bin/../lib/gcc/nios2-elf/10.3.1/../../../../../H-x86_64-mingw32/nios2-elf/lib\libc.a(lib_a-atexit.o)
 .text.atexit   0x000000000305f8f0       0x14 c:/intelfpga_lite/21.1/nios2eds/bin/gnu/h-x86_64-mingw32/bin/../lib/gcc/nios2-elf/10.3.1/../../../../../H-x86_64-mingw32/nios2-elf/lib\libc.a(lib_a-atexit.o)
                0x000000000305f8f0                atexit
 .text          0x000000000305f904        0x0 c:/intelfpga_lite/21.1/nios2eds/bin/gnu/h-x86_64-mingw32/bin/../lib/gcc/nios2-elf/10.3.1/../../../../../H-x86_64-mingw32/nios2-elf/lib\libc.a(lib_a-exit.o)
 .text.exit     0x000000000305f904       0x34 c:/intelfpga_lite/21.1/nios2eds/bin/gnu/h-x86_64-mingw32/bin/../lib/gcc/nios2-elf/10.3.1/../../../../../H-x86_64-mingw32/nios2-elf/lib\libc.a(lib_a-exit.o)
                0x000000000305f904                exit
 .text          0x000000000305f938        0x0 c:/intelfpga_lite/21.1/nios2eds/bin/gnu/h-x86_64-mingw32/bin/../lib/gcc/nios2-elf/10.3.1/../../../../../H-x86_64-mingw32/nios2-elf/lib\libc.a(lib_a-memcmp.o)
 .text.memcmp   0x000000000305f938       0x78 c:/intelfpga_lite/21.1/nios2eds/bin/gnu/h-x86_64-mingw32/bin/../lib/gcc/nios2-elf/10.3.1/../../../../../H-x86_64-mingw32/nios2-elf/lib\libc.a(lib_a-memcmp.o)
                0x000000000305f938                memcmp
 .text          0x000000000305f9b0        0x0 c:/intelfpga_lite/21.1/nios2eds/bin/gnu/h-x86_64-mingw32/bin/../lib/gcc/nios2-elf/10.3.1/../../../../../H-x86_64-mingw32/nios2-elf/lib\libc.a(lib_a-__atexit.o)
 .text.__register_exitproc
                0x000000000305f9b0       0x90 c:/intelfpga_lite/21.1/nios2eds/bin/gnu/h-x86_64-mingw32/bin/../lib/gcc/nios2-elf/10.3.1/../../../../../H-x86_64-mingw32/nios2-elf/lib\libc.a(lib_a-__atexit.o)
                0x000000000305f9b0                __register_exitproc
 .text          0x000000000305fa40        0x0 c:/intelfpga_lite/21.1/nios2eds/bin/gnu/h-x86_64-mingw32/bin/../lib/gcc/nios2-elf/10.3.1/../../../../../H-x86_64-mingw32/nios2-elf/lib\libc.a(lib_a-__call_atexit.o)
 .text.__call_exitprocs
                0x000000000305fa40      0x120 c:/intelfpga_lite/21.1/nios2eds/bin/gnu/h-x86_64-mingw32/bin/../lib/gcc/nios2-elf/10.3.1/../../../../../H-x86_64-mingw32/nios2-elf/lib\libc.a(lib_a-__call_atexit.o)
                0x000000000305fa40                __call_exitprocs
 *(.gnu.warning.*)
 *(.fini)
                [!provide]                        PROVIDE (__etext = ABSOLUTE (.))
                [!provide]                        PROVIDE (_etext = ABSOLUTE (.))
                [!provide]                        PROVIDE (etext = ABSOLUTE (.))
 *(.eh_frame_hdr)
                0x000000000305fb60                . = ALIGN (0x4)
                [!provide]                        PROVIDE (__preinit_array_start = ABSOLUTE (.))
 *(.preinit_array)
                [!provide]                        PROVIDE (__preinit_array_end = ABSOLUTE (.))
                [!provide]                        PROVIDE (__init_array_start = ABSOLUTE (.))
 *(.init_array)
                [!provide]                        PROVIDE (__init_array_end = ABSOLUTE (.))
                [!provide]                        PROVIDE (__fini_array_start = ABSOLUTE (.))
 *(.fini_array)
                [!provide]                        PROVIDE (__fini_array_end = ABSOLUTE (.))
 *(.eh_frame)
 *(.gcc_except_table .gcc_except_table.*)
 *(.dynamic)
                0x000000000305fb60                PROVIDE (__CTOR_LIST__ = ABSOLUTE (.))
 *(.ctors)
 *(SORT_BY_NAME(.ctors.*))
                0x000000000305fb60                PROVIDE (__CTOR_END__ = ABSOLUTE (.))
                0x000000000305fb60                PROVIDE (__DTOR_LIST__ = ABSOLUTE (.))
 *(.dtors)
 *(SORT_BY_NAME(.dtors.*))
                0x000000000305fb60                PROVIDE (__DTOR_END__ = ABSOLUTE (.))
 *(.jcr)
                0x000000000305fb60                . = ALIGN (0x4)

.rodata         0x000000000305fb60     0x12a4
                0x000000000305fb60                PROVIDE (__ram_rodata_start = ABSOLUTE (.))
                0x000000000305fb60                . = ALIGN (0x4)
 *(.rodata .rodata.* .gnu.linkonce.r.*)
 .rodata        0x000000000305fb60       0xd1 obj/default/AUDIO.o
 *fill*         0x000000000305fc31        0x3 
 .rodata        0x000000000305fc34       0xa8 obj/default/FatFileSystem.o
 .rodata        0x000000000305fcdc      0x2de obj/default/FatInternal.o
 *fill*         0x000000000305ffba        0x2 
 .rodata        0x000000000305ffbc       0x86 obj/default/I2C.o
 *fill*         0x0000000003060042        0x2 
 .rodata        0x0000000003060044        0xd obj/default/LCD.o
 *fill*         0x0000000003060051        0x1 
 .rodata        0x0000000003060052      0x200 obj/default/crc16.o
 *fill*         0x0000000003060252        0x2 
 .rodata        0x0000000003060254      0x100 obj/default/crc7.o
 .rodata        0x0000000003060354        0xf obj/default/debug.o
 *fill*         0x0000000003060363        0x1 
 .rodata        0x0000000003060364      0x3fb obj/default/hello_world.o
 *fill*         0x000000000306075f        0x1 
 .rodata        0x0000000003060760      0x100 c:/intelfpga_lite/21.1/nios2eds/bin/gnu/h-x86_64-mingw32/bin/../lib/gcc/nios2-elf/10.3.1\libgcc.a(_clz.o)
                0x0000000003060760                __clz_tab
 .rodata._puts_r.str1.4
                0x0000000003060860        0x2 c:/intelfpga_lite/21.1/nios2eds/bin/gnu/h-x86_64-mingw32/bin/../lib/gcc/nios2-elf/10.3.1/../../../../../H-x86_64-mingw32/nios2-elf/lib\libc.a(lib_a-puts.o)
 *fill*         0x0000000003060862        0x2 
 .rodata.___svfprintf_internal_r.str1.4
                0x0000000003060864       0x42 c:/intelfpga_lite/21.1/nios2eds/bin/gnu/h-x86_64-mingw32/bin/../lib/gcc/nios2-elf/10.3.1/../../../../../H-x86_64-mingw32/nios2-elf/lib\libc.a(lib_a-svfprintf.o)
 *fill*         0x00000000030608a6        0x2 
 .rodata.zeroes.0
                0x00000000030608a8       0x10 c:/intelfpga_lite/21.1/nios2eds/bin/gnu/h-x86_64-mingw32/bin/../lib/gcc/nios2-elf/10.3.1/../../../../../H-x86_64-mingw32/nios2-elf/lib\libc.a(lib_a-svfprintf.o)
 .rodata.blanks.1
                0x00000000030608b8       0x10 c:/intelfpga_lite/21.1/nios2eds/bin/gnu/h-x86_64-mingw32/bin/../lib/gcc/nios2-elf/10.3.1/../../../../../H-x86_64-mingw32/nios2-elf/lib\libc.a(lib_a-svfprintf.o)
 .rodata.___vfprintf_internal_r.str1.4
                0x00000000030608c8       0x42 c:/intelfpga_lite/21.1/nios2eds/bin/gnu/h-x86_64-mingw32/bin/../lib/gcc/nios2-elf/10.3.1/../../../../../H-x86_64-mingw32/nios2-elf/lib\libc.a(lib_a-vfprintf.o)
 .rodata.zeroes.0
                0x00000000030608c8       0x10 c:/intelfpga_lite/21.1/nios2eds/bin/gnu/h-x86_64-mingw32/bin/../lib/gcc/nios2-elf/10.3.1/../../../../../H-x86_64-mingw32/nios2-elf/lib\libc.a(lib_a-vfprintf.o)
 .rodata.blanks.1
                0x00000000030608d8       0x10 c:/intelfpga_lite/21.1/nios2eds/bin/gnu/h-x86_64-mingw32/bin/../lib/gcc/nios2-elf/10.3.1/../../../../../H-x86_64-mingw32/nios2-elf/lib\libc.a(lib_a-vfprintf.o)
 .rodata._dtoa_r.str1.4
                0x00000000030608e8       0x5e c:/intelfpga_lite/21.1/nios2eds/bin/gnu/h-x86_64-mingw32/bin/../lib/gcc/nios2-elf/10.3.1/../../../../../H-x86_64-mingw32/nios2-elf/lib\libc.a(lib_a-dtoa.o)
                                         0x62 (size before relaxing)
 *fill*         0x0000000003060946        0x2 
 .rodata.__multadd.str1.4
                0x0000000003060948       0x3b c:/intelfpga_lite/21.1/nios2eds/bin/gnu/h-x86_64-mingw32/bin/../lib/gcc/nios2-elf/10.3.1/../../../../../H-x86_64-mingw32/nios2-elf/lib\libc.a(lib_a-mprec.o)
                                         0x4f (size before relaxing)
 *fill*         0x0000000003060983        0x1 
 .rodata.p05.0  0x0000000003060984        0xc c:/intelfpga_lite/21.1/nios2eds/bin/gnu/h-x86_64-mingw32/bin/../lib/gcc/nios2-elf/10.3.1/../../../../../H-x86_64-mingw32/nios2-elf/lib\libc.a(lib_a-mprec.o)
 .rodata.__mprec_tinytens
                0x0000000003060990       0x28 c:/intelfpga_lite/21.1/nios2eds/bin/gnu/h-x86_64-mingw32/bin/../lib/gcc/nios2-elf/10.3.1/../../../../../H-x86_64-mingw32/nios2-elf/lib\libc.a(lib_a-mprec.o)
                0x0000000003060990                __mprec_tinytens
 .rodata.__mprec_bigtens
                0x00000000030609b8       0x28 c:/intelfpga_lite/21.1/nios2eds/bin/gnu/h-x86_64-mingw32/bin/../lib/gcc/nios2-elf/10.3.1/../../../../../H-x86_64-mingw32/nios2-elf/lib\libc.a(lib_a-mprec.o)
                0x00000000030609b8                __mprec_bigtens
 .rodata.__mprec_tens
                0x00000000030609e0       0xc8 c:/intelfpga_lite/21.1/nios2eds/bin/gnu/h-x86_64-mingw32/bin/../lib/gcc/nios2-elf/10.3.1/../../../../../H-x86_64-mingw32/nios2-elf/lib\libc.a(lib_a-mprec.o)
                0x00000000030609e0                __mprec_tens
 .rodata.___svfiprintf_internal_r.str1.4
                0x0000000003060aa8       0x2f c:/intelfpga_lite/21.1/nios2eds/bin/gnu/h-x86_64-mingw32/bin/../lib/gcc/nios2-elf/10.3.1/../../../../../H-x86_64-mingw32/nios2-elf/lib\libc.a(lib_a-svfiprintf.o)
 .rodata.zeroes.0
                0x0000000003060aa8       0x10 c:/intelfpga_lite/21.1/nios2eds/bin/gnu/h-x86_64-mingw32/bin/../lib/gcc/nios2-elf/10.3.1/../../../../../H-x86_64-mingw32/nios2-elf/lib\libc.a(lib_a-svfiprintf.o)
 .rodata.blanks.1
                0x0000000003060ab8       0x10 c:/intelfpga_lite/21.1/nios2eds/bin/gnu/h-x86_64-mingw32/bin/../lib/gcc/nios2-elf/10.3.1/../../../../../H-x86_64-mingw32/nios2-elf/lib\libc.a(lib_a-svfiprintf.o)
 .rodata.___vfiprintf_internal_r.str1.4
                0x0000000003060ac8       0x2f c:/intelfpga_lite/21.1/nios2eds/bin/gnu/h-x86_64-mingw32/bin/../lib/gcc/nios2-elf/10.3.1/../../../../../H-x86_64-mingw32/nios2-elf/lib\libc.a(lib_a-vfiprintf.o)
 .rodata.zeroes.0
                0x0000000003060ac8       0x10 c:/intelfpga_lite/21.1/nios2eds/bin/gnu/h-x86_64-mingw32/bin/../lib/gcc/nios2-elf/10.3.1/../../../../../H-x86_64-mingw32/nios2-elf/lib\libc.a(lib_a-vfiprintf.o)
 .rodata.blanks.1
                0x0000000003060ad8       0x10 c:/intelfpga_lite/21.1/nios2eds/bin/gnu/h-x86_64-mingw32/bin/../lib/gcc/nios2-elf/10.3.1/../../../../../H-x86_64-mingw32/nios2-elf/lib\libc.a(lib_a-vfiprintf.o)
 .rodata.__assert_func.str1.4
                0x0000000003060ae8       0x3f c:/intelfpga_lite/21.1/nios2eds/bin/gnu/h-x86_64-mingw32/bin/../lib/gcc/nios2-elf/10.3.1/../../../../../H-x86_64-mingw32/nios2-elf/lib\libc.a(lib_a-assert.o)
                                         0x43 (size before relaxing)
 *fill*         0x0000000003060b27        0x1 
 .rodata._setlocale_r.str1.4
                0x0000000003060b28        0xa c:/intelfpga_lite/21.1/nios2eds/bin/gnu/h-x86_64-mingw32/bin/../lib/gcc/nios2-elf/10.3.1/../../../../../H-x86_64-mingw32/nios2-elf/lib\libc.a(lib_a-locale.o)
 *fill*         0x0000000003060b32        0x2 
 .rodata.str1.4
                0x0000000003060b34        0x2 c:/intelfpga_lite/21.1/nios2eds/bin/gnu/h-x86_64-mingw32/bin/../lib/gcc/nios2-elf/10.3.1/../../../../../H-x86_64-mingw32/nios2-elf/lib\libc.a(lib_a-locale.o)
                                          0x5 (size before relaxing)
 *fill*         0x0000000003060b36        0x2 
 .rodata._ctype_
                0x0000000003060b38      0x101 c:/intelfpga_lite/21.1/nios2eds/bin/gnu/h-x86_64-mingw32/bin/../lib/gcc/nios2-elf/10.3.1/../../../../../H-x86_64-mingw32/nios2-elf/lib\libc.a(lib_a-ctype_.o)
                0x0000000003060b38                _ctype_
 *fill*         0x0000000003060c39        0x3 
 .rodata._ctype_b
                0x0000000003060c3c      0x180 c:/intelfpga_lite/21.1/nios2eds/bin/gnu/h-x86_64-mingw32/bin/../lib/gcc/nios2-elf/10.3.1/../../../../../H-x86_64-mingw32/nios2-elf/lib\libc.a(lib_a-ctype_.o)
                0x0000000003060c3c                _ctype_b
 .rodata        0x0000000003060dbc        0xa c:/Users/Robin/Documents/NHLStenden/FPGA/QuartusPrimeProjects/DE2-115_V.1.0.6_SystemCD/DE2_115_demonstrations/DE2_115_SD_Card_Audio_Player_Copy/Software/Audio_Player_test1_bsp/\libhal_bsp.a(alt_dev.o)
 *fill*         0x0000000003060dc6        0x2 
 .rodata        0x0000000003060dc8        0xf c:/Users/Robin/Documents/NHLStenden/FPGA/QuartusPrimeProjects/DE2-115_V.1.0.6_SystemCD/DE2_115_demonstrations/DE2_115_SD_Card_Audio_Player_Copy/Software/Audio_Player_test1_bsp/\libhal_bsp.a(alt_main.o)
 *fill*         0x0000000003060dd7        0x1 
 .rodata        0x0000000003060dd8       0x2b c:/Users/Robin/Documents/NHLStenden/FPGA/QuartusPrimeProjects/DE2-115_V.1.0.6_SystemCD/DE2_115_demonstrations/DE2_115_SD_Card_Audio_Player_Copy/Software/Audio_Player_test1_bsp/\libhal_bsp.a(alt_sys_init.o)
 *(.rodata1)
                0x0000000003060e04                . = ALIGN (0x4)
 *fill*         0x0000000003060e03        0x1 
                0x0000000003060e04                PROVIDE (__ram_rodata_end = ABSOLUTE (.))
                0x000000000305fb60                PROVIDE (__flash_rodata_start = LOADADDR (.rodata))

.rwdata         0x0000000003060e04     0x1d94 load address 0x0000000003062b98
                0x0000000003060e04                PROVIDE (__ram_rwdata_start = ABSOLUTE (.))
                0x0000000003060e04                . = ALIGN (0x4)
 *(.got.plt)
 *(.got)
 *(.data1)
 *(.data .data.* .gnu.linkonce.d.*)
 .data          0x0000000003060e04        0x0 c:/Users/Robin/Documents/NHLStenden/FPGA/QuartusPrimeProjects/DE2-115_V.1.0.6_SystemCD/DE2_115_demonstrations/DE2_115_SD_Card_Audio_Player_Copy/Software/Audio_Player_test1_bsp//obj/HAL/src/crt0.o
 .data          0x0000000003060e04        0x0 obj/default/AUDIO.o
 .data          0x0000000003060e04        0x0 obj/default/FatFileSystem.o
 .data          0x0000000003060e04        0x0 obj/default/FatInternal.o
 .data          0x0000000003060e04        0x0 obj/default/I2C.o
 .data          0x0000000003060e04        0x0 obj/default/LCD.o
 .data          0x0000000003060e04        0x0 obj/default/LED.o
 .data          0x0000000003060e04       0x10 obj/default/SEG7.o
 .data          0x0000000003060e14        0x0 obj/default/WaveLib.o
 .data          0x0000000003060e14        0x0 obj/default/crc16.o
 .data          0x0000000003060e14        0x0 obj/default/crc7.o
 .data          0x0000000003060e14        0x0 obj/default/debug.o
 .data          0x0000000003060e14        0x0 obj/default/hello_world.o
 .data          0x0000000003060e14        0x0 obj/default/sd_hal.o
 .data          0x0000000003060e14        0x0 obj/default/sd_lib.o
 .data          0x0000000003060e14        0x0 obj/default/sd_protocol.o
 .data          0x0000000003060e14        0x0 c:/intelfpga_lite/21.1/nios2eds/bin/gnu/h-x86_64-mingw32/bin/../lib/gcc/nios2-elf/10.3.1\libgcc.a(lib2-divmod.o)
 .data          0x0000000003060e14        0x0 c:/intelfpga_lite/21.1/nios2eds/bin/gnu/h-x86_64-mingw32/bin/../lib/gcc/nios2-elf/10.3.1\libgcc.a(divsf3.o)
 .data          0x0000000003060e14        0x0 c:/intelfpga_lite/21.1/nios2eds/bin/gnu/h-x86_64-mingw32/bin/../lib/gcc/nios2-elf/10.3.1\libgcc.a(mulsf3.o)
 .data          0x0000000003060e14        0x0 c:/intelfpga_lite/21.1/nios2eds/bin/gnu/h-x86_64-mingw32/bin/../lib/gcc/nios2-elf/10.3.1\libgcc.a(floatunsisf.o)
 .data          0x0000000003060e14        0x0 c:/intelfpga_lite/21.1/nios2eds/bin/gnu/h-x86_64-mingw32/bin/../lib/gcc/nios2-elf/10.3.1\libgcc.a(divdf3.o)
 .data          0x0000000003060e14        0x0 c:/intelfpga_lite/21.1/nios2eds/bin/gnu/h-x86_64-mingw32/bin/../lib/gcc/nios2-elf/10.3.1\libgcc.a(extendsfdf2.o)
 .data          0x0000000003060e14        0x0 c:/intelfpga_lite/21.1/nios2eds/bin/gnu/h-x86_64-mingw32/bin/../lib/gcc/nios2-elf/10.3.1\libgcc.a(truncdfsf2.o)
 .data          0x0000000003060e14        0x0 c:/intelfpga_lite/21.1/nios2eds/bin/gnu/h-x86_64-mingw32/bin/../lib/gcc/nios2-elf/10.3.1\libgcc.a(_clzsi2.o)
 .data          0x0000000003060e14        0x0 c:/intelfpga_lite/21.1/nios2eds/bin/gnu/h-x86_64-mingw32/bin/../lib/gcc/nios2-elf/10.3.1\libgcc.a(_clz.o)
 .data          0x0000000003060e14        0x0 c:/intelfpga_lite/21.1/nios2eds/bin/gnu/h-x86_64-mingw32/bin/../lib/gcc/nios2-elf/10.3.1/../../../../../H-x86_64-mingw32/nios2-elf/lib\libc.a(lib_a-fclose.o)
 .data          0x0000000003060e14        0x0 c:/intelfpga_lite/21.1/nios2eds/bin/gnu/h-x86_64-mingw32/bin/../lib/gcc/nios2-elf/10.3.1/../../../../../H-x86_64-mingw32/nios2-elf/lib\libc.a(lib_a-fflush.o)
 .data          0x0000000003060e14        0x0 c:/intelfpga_lite/21.1/nios2eds/bin/gnu/h-x86_64-mingw32/bin/../lib/gcc/nios2-elf/10.3.1/../../../../../H-x86_64-mingw32/nios2-elf/lib\libc.a(lib_a-findfp.o)
 .data          0x0000000003060e14        0x0 c:/intelfpga_lite/21.1/nios2eds/bin/gnu/h-x86_64-mingw32/bin/../lib/gcc/nios2-elf/10.3.1/../../../../../H-x86_64-mingw32/nios2-elf/lib\libc.a(lib_a-fopen.o)
 .data          0x0000000003060e14        0x0 c:/intelfpga_lite/21.1/nios2eds/bin/gnu/h-x86_64-mingw32/bin/../lib/gcc/nios2-elf/10.3.1/../../../../../H-x86_64-mingw32/nios2-elf/lib\libc.a(lib_a-freer.o)
 .data          0x0000000003060e14        0x0 c:/intelfpga_lite/21.1/nios2eds/bin/gnu/h-x86_64-mingw32/bin/../lib/gcc/nios2-elf/10.3.1/../../../../../H-x86_64-mingw32/nios2-elf/lib\libc.a(lib_a-fseek.o)
 .data          0x0000000003060e14        0x0 c:/intelfpga_lite/21.1/nios2eds/bin/gnu/h-x86_64-mingw32/bin/../lib/gcc/nios2-elf/10.3.1/../../../../../H-x86_64-mingw32/nios2-elf/lib\libc.a(lib_a-fseeko.o)
 .data          0x0000000003060e14        0x0 c:/intelfpga_lite/21.1/nios2eds/bin/gnu/h-x86_64-mingw32/bin/../lib/gcc/nios2-elf/10.3.1/../../../../../H-x86_64-mingw32/nios2-elf/lib\libc.a(lib_a-fstatr.o)
 .data          0x0000000003060e14        0x0 c:/intelfpga_lite/21.1/nios2eds/bin/gnu/h-x86_64-mingw32/bin/../lib/gcc/nios2-elf/10.3.1/../../../../../H-x86_64-mingw32/nios2-elf/lib\libc.a(lib_a-fwalk.o)
 .data          0x0000000003060e14        0x0 c:/intelfpga_lite/21.1/nios2eds/bin/gnu/h-x86_64-mingw32/bin/../lib/gcc/nios2-elf/10.3.1/../../../../../H-x86_64-mingw32/nios2-elf/lib\libc.a(lib_a-fwrite.o)
 .data          0x0000000003060e14        0x0 c:/intelfpga_lite/21.1/nios2eds/bin/gnu/h-x86_64-mingw32/bin/../lib/gcc/nios2-elf/10.3.1/../../../../../H-x86_64-mingw32/nios2-elf/lib\libc.a(lib_a-impure.o)
 .data.impure_data
                0x0000000003060e14      0x424 c:/intelfpga_lite/21.1/nios2eds/bin/gnu/h-x86_64-mingw32/bin/../lib/gcc/nios2-elf/10.3.1/../../../../../H-x86_64-mingw32/nios2-elf/lib\libc.a(lib_a-impure.o)
 .data          0x0000000003061238        0x0 c:/intelfpga_lite/21.1/nios2eds/bin/gnu/h-x86_64-mingw32/bin/../lib/gcc/nios2-elf/10.3.1/../../../../../H-x86_64-mingw32/nios2-elf/lib\libc.a(lib_a-int_errno.o)
 .data          0x0000000003061238        0x0 c:/intelfpga_lite/21.1/nios2eds/bin/gnu/h-x86_64-mingw32/bin/../lib/gcc/nios2-elf/10.3.1/../../../../../H-x86_64-mingw32/nios2-elf/lib\libc.a(lib_a-makebuf.o)
 .data          0x0000000003061238        0x0 c:/intelfpga_lite/21.1/nios2eds/bin/gnu/h-x86_64-mingw32/bin/../lib/gcc/nios2-elf/10.3.1/../../../../../H-x86_64-mingw32/nios2-elf/lib\libc.a(lib_a-malloc.o)
 .data          0x0000000003061238        0x0 c:/intelfpga_lite/21.1/nios2eds/bin/gnu/h-x86_64-mingw32/bin/../lib/gcc/nios2-elf/10.3.1/../../../../../H-x86_64-mingw32/nios2-elf/lib\libc.a(lib_a-mallocr.o)
 .data.__malloc_av_
                0x0000000003061238      0x408 c:/intelfpga_lite/21.1/nios2eds/bin/gnu/h-x86_64-mingw32/bin/../lib/gcc/nios2-elf/10.3.1/../../../../../H-x86_64-mingw32/nios2-elf/lib\libc.a(lib_a-mallocr.o)
                0x0000000003061238                __malloc_av_
 .data          0x0000000003061640        0x0 c:/intelfpga_lite/21.1/nios2eds/bin/gnu/h-x86_64-mingw32/bin/../lib/gcc/nios2-elf/10.3.1/../../../../../H-x86_64-mingw32/nios2-elf/lib\libc.a(lib_a-memcpy.o)
 .data          0x0000000003061640        0x0 c:/intelfpga_lite/21.1/nios2eds/bin/gnu/h-x86_64-mingw32/bin/../lib/gcc/nios2-elf/10.3.1/../../../../../H-x86_64-mingw32/nios2-elf/lib\libc.a(lib_a-memset.o)
 .data          0x0000000003061640        0x0 c:/intelfpga_lite/21.1/nios2eds/bin/gnu/h-x86_64-mingw32/bin/../lib/gcc/nios2-elf/10.3.1/../../../../../H-x86_64-mingw32/nios2-elf/lib\libc.a(lib_a-openr.o)
 .data          0x0000000003061640        0x0 c:/intelfpga_lite/21.1/nios2eds/bin/gnu/h-x86_64-mingw32/bin/../lib/gcc/nios2-elf/10.3.1/../../../../../H-x86_64-mingw32/nios2-elf/lib\libc.a(lib_a-printf.o)
 .data          0x0000000003061640        0x0 c:/intelfpga_lite/21.1/nios2eds/bin/gnu/h-x86_64-mingw32/bin/../lib/gcc/nios2-elf/10.3.1/../../../../../H-x86_64-mingw32/nios2-elf/lib\libc.a(lib_a-putchar.o)
 .data          0x0000000003061640        0x0 c:/intelfpga_lite/21.1/nios2eds/bin/gnu/h-x86_64-mingw32/bin/../lib/gcc/nios2-elf/10.3.1/../../../../../H-x86_64-mingw32/nios2-elf/lib\libc.a(lib_a-puts.o)
 .data          0x0000000003061640        0x0 c:/intelfpga_lite/21.1/nios2eds/bin/gnu/h-x86_64-mingw32/bin/../lib/gcc/nios2-elf/10.3.1/../../../../../H-x86_64-mingw32/nios2-elf/lib\libc.a(lib_a-refill.o)
 .data          0x0000000003061640        0x0 c:/intelfpga_lite/21.1/nios2eds/bin/gnu/h-x86_64-mingw32/bin/../lib/gcc/nios2-elf/10.3.1/../../../../../H-x86_64-mingw32/nios2-elf/lib\libc.a(lib_a-sbrkr.o)
 .data          0x0000000003061640        0x0 c:/intelfpga_lite/21.1/nios2eds/bin/gnu/h-x86_64-mingw32/bin/../lib/gcc/nios2-elf/10.3.1/../../../../../H-x86_64-mingw32/nios2-elf/lib\libc.a(lib_a-sprintf.o)
 .data          0x0000000003061640        0x0 c:/intelfpga_lite/21.1/nios2eds/bin/gnu/h-x86_64-mingw32/bin/../lib/gcc/nios2-elf/10.3.1/../../../../../H-x86_64-mingw32/nios2-elf/lib\libc.a(lib_a-stdio.o)
 .data          0x0000000003061640        0x0 c:/intelfpga_lite/21.1/nios2eds/bin/gnu/h-x86_64-mingw32/bin/../lib/gcc/nios2-elf/10.3.1/../../../../../H-x86_64-mingw32/nios2-elf/lib\libc.a(lib_a-strcmp.o)
 .data          0x0000000003061640        0x0 c:/intelfpga_lite/21.1/nios2eds/bin/gnu/h-x86_64-mingw32/bin/../lib/gcc/nios2-elf/10.3.1/../../../../../H-x86_64-mingw32/nios2-elf/lib\libc.a(lib_a-strcpy.o)
 .data          0x0000000003061640        0x0 c:/intelfpga_lite/21.1/nios2eds/bin/gnu/h-x86_64-mingw32/bin/../lib/gcc/nios2-elf/10.3.1/../../../../../H-x86_64-mingw32/nios2-elf/lib\libc.a(lib_a-strlen.o)
 .data          0x0000000003061640        0x0 c:/intelfpga_lite/21.1/nios2eds/bin/gnu/h-x86_64-mingw32/bin/../lib/gcc/nios2-elf/10.3.1/../../../../../H-x86_64-mingw32/nios2-elf/lib\libc.a(lib_a-svfprintf.o)
 .data          0x0000000003061640        0x0 c:/intelfpga_lite/21.1/nios2eds/bin/gnu/h-x86_64-mingw32/bin/../lib/gcc/nios2-elf/10.3.1/../../../../../H-x86_64-mingw32/nios2-elf/lib\libc.a(lib_a-vfprintf.o)
 .data          0x0000000003061640        0x0 c:/intelfpga_lite/21.1/nios2eds/bin/gnu/h-x86_64-mingw32/bin/../lib/gcc/nios2-elf/10.3.1/../../../../../H-x86_64-mingw32/nios2-elf/lib\libc.a(lib_a-vsnprintf.o)
 .data          0x0000000003061640        0x0 c:/intelfpga_lite/21.1/nios2eds/bin/gnu/h-x86_64-mingw32/bin/../lib/gcc/nios2-elf/10.3.1/../../../../../H-x86_64-mingw32/nios2-elf/lib\libc.a(lib_a-writer.o)
 .data          0x0000000003061640        0x0 c:/intelfpga_lite/21.1/nios2eds/bin/gnu/h-x86_64-mingw32/bin/../lib/gcc/nios2-elf/10.3.1/../../../../../H-x86_64-mingw32/nios2-elf/lib\libc.a(lib_a-wsetup.o)
 .data          0x0000000003061640        0x0 c:/intelfpga_lite/21.1/nios2eds/bin/gnu/h-x86_64-mingw32/bin/../lib/gcc/nios2-elf/10.3.1/../../../../../H-x86_64-mingw32/nios2-elf/lib\libc.a(closer.o)
 .data          0x0000000003061640        0x0 c:/intelfpga_lite/21.1/nios2eds/bin/gnu/h-x86_64-mingw32/bin/../lib/gcc/nios2-elf/10.3.1/../../../../../H-x86_64-mingw32/nios2-elf/lib\libc.a(lib_a-dtoa.o)
 .data          0x0000000003061640        0x0 c:/intelfpga_lite/21.1/nios2eds/bin/gnu/h-x86_64-mingw32/bin/../lib/gcc/nios2-elf/10.3.1/../../../../../H-x86_64-mingw32/nios2-elf/lib\libc.a(lib_a-flags.o)
 .data          0x0000000003061640        0x0 c:/intelfpga_lite/21.1/nios2eds/bin/gnu/h-x86_64-mingw32/bin/../lib/gcc/nios2-elf/10.3.1/../../../../../H-x86_64-mingw32/nios2-elf/lib\libc.a(lib_a-fvwrite.o)
 .data          0x0000000003061640        0x0 c:/intelfpga_lite/21.1/nios2eds/bin/gnu/h-x86_64-mingw32/bin/../lib/gcc/nios2-elf/10.3.1/../../../../../H-x86_64-mingw32/nios2-elf/lib\libc.a(lib_a-isattyr.o)
 .data          0x0000000003061640        0x0 c:/intelfpga_lite/21.1/nios2eds/bin/gnu/h-x86_64-mingw32/bin/../lib/gcc/nios2-elf/10.3.1/../../../../../H-x86_64-mingw32/nios2-elf/lib\libc.a(lib_a-localeconv.o)
 .data          0x0000000003061640        0x0 c:/intelfpga_lite/21.1/nios2eds/bin/gnu/h-x86_64-mingw32/bin/../lib/gcc/nios2-elf/10.3.1/../../../../../H-x86_64-mingw32/nios2-elf/lib\libc.a(lib_a-lseekr.o)
 .data          0x0000000003061640        0x0 c:/intelfpga_lite/21.1/nios2eds/bin/gnu/h-x86_64-mingw32/bin/../lib/gcc/nios2-elf/10.3.1/../../../../../H-x86_64-mingw32/nios2-elf/lib\libc.a(lib_a-memchr.o)
 .data          0x0000000003061640        0x0 c:/intelfpga_lite/21.1/nios2eds/bin/gnu/h-x86_64-mingw32/bin/../lib/gcc/nios2-elf/10.3.1/../../../../../H-x86_64-mingw32/nios2-elf/lib\libc.a(lib_a-memmove.o)
 .data          0x0000000003061640        0x0 c:/intelfpga_lite/21.1/nios2eds/bin/gnu/h-x86_64-mingw32/bin/../lib/gcc/nios2-elf/10.3.1/../../../../../H-x86_64-mingw32/nios2-elf/lib\libc.a(lib_a-mprec.o)
 .data          0x0000000003061640        0x0 c:/intelfpga_lite/21.1/nios2eds/bin/gnu/h-x86_64-mingw32/bin/../lib/gcc/nios2-elf/10.3.1/../../../../../H-x86_64-mingw32/nios2-elf/lib\libc.a(lib_a-putc.o)
 .data          0x0000000003061640        0x0 c:/intelfpga_lite/21.1/nios2eds/bin/gnu/h-x86_64-mingw32/bin/../lib/gcc/nios2-elf/10.3.1/../../../../../H-x86_64-mingw32/nios2-elf/lib\libc.a(lib_a-readr.o)
 .data          0x0000000003061640        0x0 c:/intelfpga_lite/21.1/nios2eds/bin/gnu/h-x86_64-mingw32/bin/../lib/gcc/nios2-elf/10.3.1/../../../../../H-x86_64-mingw32/nios2-elf/lib\libc.a(lib_a-reallocr.o)
 .data          0x0000000003061640        0x0 c:/intelfpga_lite/21.1/nios2eds/bin/gnu/h-x86_64-mingw32/bin/../lib/gcc/nios2-elf/10.3.1/../../../../../H-x86_64-mingw32/nios2-elf/lib\libc.a(lib_a-svfiprintf.o)
 .data          0x0000000003061640        0x0 c:/intelfpga_lite/21.1/nios2eds/bin/gnu/h-x86_64-mingw32/bin/../lib/gcc/nios2-elf/10.3.1/../../../../../H-x86_64-mingw32/nios2-elf/lib\libc.a(lib_a-vfiprintf.o)
 .data          0x0000000003061640        0x0 c:/intelfpga_lite/21.1/nios2eds/bin/gnu/h-x86_64-mingw32/bin/../lib/gcc/nios2-elf/10.3.1/../../../../../H-x86_64-mingw32/nios2-elf/lib\libc.a(lib_a-wbuf.o)
 .data          0x0000000003061640        0x0 c:/intelfpga_lite/21.1/nios2eds/bin/gnu/h-x86_64-mingw32/bin/../lib/gcc/nios2-elf/10.3.1/../../../../../H-x86_64-mingw32/nios2-elf/lib\libc.a(lib_a-assert.o)
 .data          0x0000000003061640        0x0 c:/intelfpga_lite/21.1/nios2eds/bin/gnu/h-x86_64-mingw32/bin/../lib/gcc/nios2-elf/10.3.1/../../../../../H-x86_64-mingw32/nios2-elf/lib\libc.a(lib_a-callocr.o)
 .data          0x0000000003061640        0x0 c:/intelfpga_lite/21.1/nios2eds/bin/gnu/h-x86_64-mingw32/bin/../lib/gcc/nios2-elf/10.3.1/../../../../../H-x86_64-mingw32/nios2-elf/lib\libc.a(lib_a-errno.o)
 .data          0x0000000003061640        0x0 c:/intelfpga_lite/21.1/nios2eds/bin/gnu/h-x86_64-mingw32/bin/../lib/gcc/nios2-elf/10.3.1/../../../../../H-x86_64-mingw32/nios2-elf/lib\libc.a(lib_a-fiprintf.o)
 .data          0x0000000003061640        0x0 c:/intelfpga_lite/21.1/nios2eds/bin/gnu/h-x86_64-mingw32/bin/../lib/gcc/nios2-elf/10.3.1/../../../../../H-x86_64-mingw32/nios2-elf/lib\libc.a(lib_a-fputwc.o)
 .data          0x0000000003061640        0x0 c:/intelfpga_lite/21.1/nios2eds/bin/gnu/h-x86_64-mingw32/bin/../lib/gcc/nios2-elf/10.3.1/../../../../../H-x86_64-mingw32/nios2-elf/lib\libc.a(lib_a-locale.o)
 .data.__global_locale
                0x0000000003061640      0x16c c:/intelfpga_lite/21.1/nios2eds/bin/gnu/h-x86_64-mingw32/bin/../lib/gcc/nios2-elf/10.3.1/../../../../../H-x86_64-mingw32/nios2-elf/lib\libc.a(lib_a-locale.o)
                0x0000000003061640                __global_locale
 .data          0x00000000030617ac        0x0 c:/intelfpga_lite/21.1/nios2eds/bin/gnu/h-x86_64-mingw32/bin/../lib/gcc/nios2-elf/10.3.1/../../../../../H-x86_64-mingw32/nios2-elf/lib\libc.a(lib_a-mbtowc_r.o)
 .data          0x00000000030617ac        0x0 c:/intelfpga_lite/21.1/nios2eds/bin/gnu/h-x86_64-mingw32/bin/../lib/gcc/nios2-elf/10.3.1/../../../../../H-x86_64-mingw32/nios2-elf/lib\libc.a(lib_a-vfiprintfr_1.o)
 .data          0x00000000030617ac        0x0 c:/intelfpga_lite/21.1/nios2eds/bin/gnu/h-x86_64-mingw32/bin/../lib/gcc/nios2-elf/10.3.1/../../../../../H-x86_64-mingw32/nios2-elf/lib\libc.a(lib_a-wcrtomb.o)
 .data          0x00000000030617ac        0x0 c:/intelfpga_lite/21.1/nios2eds/bin/gnu/h-x86_64-mingw32/bin/../lib/gcc/nios2-elf/10.3.1/../../../../../H-x86_64-mingw32/nios2-elf/lib\libc.a(lib_a-wctomb_r.o)
 .data          0x00000000030617ac        0x0 c:/intelfpga_lite/21.1/nios2eds/bin/gnu/h-x86_64-mingw32/bin/../lib/gcc/nios2-elf/10.3.1/../../../../../H-x86_64-mingw32/nios2-elf/lib\libc.a(lib_a-abort.o)
 .data          0x00000000030617ac        0x0 c:/intelfpga_lite/21.1/nios2eds/bin/gnu/h-x86_64-mingw32/bin/../lib/gcc/nios2-elf/10.3.1/../../../../../H-x86_64-mingw32/nios2-elf/lib\libc.a(lib_a-ctype_.o)
 .data          0x00000000030617ac        0x0 c:/intelfpga_lite/21.1/nios2eds/bin/gnu/h-x86_64-mingw32/bin/../lib/gcc/nios2-elf/10.3.1/../../../../../H-x86_64-mingw32/nios2-elf/lib\libc.a(lib_a-signal.o)
 .data          0x00000000030617ac        0x0 c:/intelfpga_lite/21.1/nios2eds/bin/gnu/h-x86_64-mingw32/bin/../lib/gcc/nios2-elf/10.3.1/../../../../../H-x86_64-mingw32/nios2-elf/lib\libc.a(lib_a-signalr.o)
 .data          0x00000000030617ac        0x0 c:/intelfpga_lite/21.1/nios2eds/bin/gnu/h-x86_64-mingw32/bin/../lib/gcc/nios2-elf/10.3.1\libgcc.a(_udivdi3.o)
 .data          0x00000000030617ac        0x0 c:/intelfpga_lite/21.1/nios2eds/bin/gnu/h-x86_64-mingw32/bin/../lib/gcc/nios2-elf/10.3.1\libgcc.a(_umoddi3.o)
 .data          0x00000000030617ac        0x0 c:/intelfpga_lite/21.1/nios2eds/bin/gnu/h-x86_64-mingw32/bin/../lib/gcc/nios2-elf/10.3.1\libgcc.a(adddf3.o)
 .data          0x00000000030617ac        0x0 c:/intelfpga_lite/21.1/nios2eds/bin/gnu/h-x86_64-mingw32/bin/../lib/gcc/nios2-elf/10.3.1\libgcc.a(eqdf2.o)
 .data          0x00000000030617ac        0x0 c:/intelfpga_lite/21.1/nios2eds/bin/gnu/h-x86_64-mingw32/bin/../lib/gcc/nios2-elf/10.3.1\libgcc.a(gedf2.o)
 .data          0x00000000030617ac        0x0 c:/intelfpga_lite/21.1/nios2eds/bin/gnu/h-x86_64-mingw32/bin/../lib/gcc/nios2-elf/10.3.1\libgcc.a(ledf2.o)
 .data          0x00000000030617ac        0x0 c:/intelfpga_lite/21.1/nios2eds/bin/gnu/h-x86_64-mingw32/bin/../lib/gcc/nios2-elf/10.3.1\libgcc.a(muldf3.o)
 .data          0x00000000030617ac        0x0 c:/intelfpga_lite/21.1/nios2eds/bin/gnu/h-x86_64-mingw32/bin/../lib/gcc/nios2-elf/10.3.1\libgcc.a(subdf3.o)
 .data          0x00000000030617ac        0x0 c:/intelfpga_lite/21.1/nios2eds/bin/gnu/h-x86_64-mingw32/bin/../lib/gcc/nios2-elf/10.3.1\libgcc.a(unorddf2.o)
 .data          0x00000000030617ac        0x0 c:/intelfpga_lite/21.1/nios2eds/bin/gnu/h-x86_64-mingw32/bin/../lib/gcc/nios2-elf/10.3.1\libgcc.a(fixdfsi.o)
 .data          0x00000000030617ac        0x0 c:/intelfpga_lite/21.1/nios2eds/bin/gnu/h-x86_64-mingw32/bin/../lib/gcc/nios2-elf/10.3.1\libgcc.a(floatsidf.o)
 .data          0x00000000030617ac        0x0 c:/intelfpga_lite/21.1/nios2eds/bin/gnu/h-x86_64-mingw32/bin/../lib/gcc/nios2-elf/10.3.1\libgcc.a(floatunsidf.o)
 .data          0x00000000030617ac        0x0 c:/Users/Robin/Documents/NHLStenden/FPGA/QuartusPrimeProjects/DE2-115_V.1.0.6_SystemCD/DE2_115_demonstrations/DE2_115_SD_Card_Audio_Player_Copy/Software/Audio_Player_test1_bsp/\libhal_bsp.a(alt_close.o)
 .data          0x00000000030617ac      0x1a8 c:/Users/Robin/Documents/NHLStenden/FPGA/QuartusPrimeProjects/DE2-115_V.1.0.6_SystemCD/DE2_115_demonstrations/DE2_115_SD_Card_Audio_Player_Copy/Software/Audio_Player_test1_bsp/\libhal_bsp.a(alt_dev.o)
                0x00000000030617ac                alt_dev_null
                0x00000000030617d4                alt_fd_list
 .data          0x0000000003061954        0x0 c:/Users/Robin/Documents/NHLStenden/FPGA/QuartusPrimeProjects/DE2-115_V.1.0.6_SystemCD/DE2_115_demonstrations/DE2_115_SD_Card_Audio_Player_Copy/Software/Audio_Player_test1_bsp/\libhal_bsp.a(alt_errno.o)
 .data          0x0000000003061954        0x0 c:/Users/Robin/Documents/NHLStenden/FPGA/QuartusPrimeProjects/DE2-115_V.1.0.6_SystemCD/DE2_115_demonstrations/DE2_115_SD_Card_Audio_Player_Copy/Software/Audio_Player_test1_bsp/\libhal_bsp.a(alt_exit.o)
 .data          0x0000000003061954        0x0 c:/Users/Robin/Documents/NHLStenden/FPGA/QuartusPrimeProjects/DE2-115_V.1.0.6_SystemCD/DE2_115_demonstrations/DE2_115_SD_Card_Audio_Player_Copy/Software/Audio_Player_test1_bsp/\libhal_bsp.a(alt_fstat.o)
 .data          0x0000000003061954        0x0 c:/Users/Robin/Documents/NHLStenden/FPGA/QuartusPrimeProjects/DE2-115_V.1.0.6_SystemCD/DE2_115_demonstrations/DE2_115_SD_Card_Audio_Player_Copy/Software/Audio_Player_test1_bsp/\libhal_bsp.a(alt_getpid.o)
 .data          0x0000000003061954        0x0 c:/Users/Robin/Documents/NHLStenden/FPGA/QuartusPrimeProjects/DE2-115_V.1.0.6_SystemCD/DE2_115_demonstrations/DE2_115_SD_Card_Audio_Player_Copy/Software/Audio_Player_test1_bsp/\libhal_bsp.a(alt_irq_register.o)
 .data          0x0000000003061954        0x0 c:/Users/Robin/Documents/NHLStenden/FPGA/QuartusPrimeProjects/DE2-115_V.1.0.6_SystemCD/DE2_115_demonstrations/DE2_115_SD_Card_Audio_Player_Copy/Software/Audio_Player_test1_bsp/\libhal_bsp.a(alt_irq_vars.o)
 .data          0x0000000003061954        0x0 c:/Users/Robin/Documents/NHLStenden/FPGA/QuartusPrimeProjects/DE2-115_V.1.0.6_SystemCD/DE2_115_demonstrations/DE2_115_SD_Card_Audio_Player_Copy/Software/Audio_Player_test1_bsp/\libhal_bsp.a(alt_isatty.o)
 .data          0x0000000003061954        0x0 c:/Users/Robin/Documents/NHLStenden/FPGA/QuartusPrimeProjects/DE2-115_V.1.0.6_SystemCD/DE2_115_demonstrations/DE2_115_SD_Card_Audio_Player_Copy/Software/Audio_Player_test1_bsp/\libhal_bsp.a(alt_kill.o)
 .data          0x0000000003061954        0x0 c:/Users/Robin/Documents/NHLStenden/FPGA/QuartusPrimeProjects/DE2-115_V.1.0.6_SystemCD/DE2_115_demonstrations/DE2_115_SD_Card_Audio_Player_Copy/Software/Audio_Player_test1_bsp/\libhal_bsp.a(alt_load.o)
 .data          0x0000000003061954        0x0 c:/Users/Robin/Documents/NHLStenden/FPGA/QuartusPrimeProjects/DE2-115_V.1.0.6_SystemCD/DE2_115_demonstrations/DE2_115_SD_Card_Audio_Player_Copy/Software/Audio_Player_test1_bsp/\libhal_bsp.a(alt_lseek.o)
 .data          0x0000000003061954        0x0 c:/Users/Robin/Documents/NHLStenden/FPGA/QuartusPrimeProjects/DE2-115_V.1.0.6_SystemCD/DE2_115_demonstrations/DE2_115_SD_Card_Audio_Player_Copy/Software/Audio_Player_test1_bsp/\libhal_bsp.a(alt_main.o)
 .data          0x0000000003061954        0x0 c:/Users/Robin/Documents/NHLStenden/FPGA/QuartusPrimeProjects/DE2-115_V.1.0.6_SystemCD/DE2_115_demonstrations/DE2_115_SD_Card_Audio_Player_Copy/Software/Audio_Player_test1_bsp/\libhal_bsp.a(alt_malloc_lock.o)
 .data          0x0000000003061954        0x0 c:/Users/Robin/Documents/NHLStenden/FPGA/QuartusPrimeProjects/DE2-115_V.1.0.6_SystemCD/DE2_115_demonstrations/DE2_115_SD_Card_Audio_Player_Copy/Software/Audio_Player_test1_bsp/\libhal_bsp.a(alt_open.o)
 .data          0x0000000003061954        0x0 c:/Users/Robin/Documents/NHLStenden/FPGA/QuartusPrimeProjects/DE2-115_V.1.0.6_SystemCD/DE2_115_demonstrations/DE2_115_SD_Card_Audio_Player_Copy/Software/Audio_Player_test1_bsp/\libhal_bsp.a(alt_read.o)
 .data          0x0000000003061954        0x0 c:/Users/Robin/Documents/NHLStenden/FPGA/QuartusPrimeProjects/DE2-115_V.1.0.6_SystemCD/DE2_115_demonstrations/DE2_115_SD_Card_Audio_Player_Copy/Software/Audio_Player_test1_bsp/\libhal_bsp.a(alt_release_fd.o)
 .data          0x0000000003061954        0x0 c:/Users/Robin/Documents/NHLStenden/FPGA/QuartusPrimeProjects/DE2-115_V.1.0.6_SystemCD/DE2_115_demonstrations/DE2_115_SD_Card_Audio_Player_Copy/Software/Audio_Player_test1_bsp/\libhal_bsp.a(alt_sbrk.o)
 .data          0x0000000003061954        0x0 c:/Users/Robin/Documents/NHLStenden/FPGA/QuartusPrimeProjects/DE2-115_V.1.0.6_SystemCD/DE2_115_demonstrations/DE2_115_SD_Card_Audio_Player_Copy/Software/Audio_Player_test1_bsp/\libhal_bsp.a(alt_tick.o)
 .data          0x0000000003061954        0x0 c:/Users/Robin/Documents/NHLStenden/FPGA/QuartusPrimeProjects/DE2-115_V.1.0.6_SystemCD/DE2_115_demonstrations/DE2_115_SD_Card_Audio_Player_Copy/Software/Audio_Player_test1_bsp/\libhal_bsp.a(alt_usleep.o)
 .data          0x0000000003061954        0x0 c:/Users/Robin/Documents/NHLStenden/FPGA/QuartusPrimeProjects/DE2-115_V.1.0.6_SystemCD/DE2_115_demonstrations/DE2_115_SD_Card_Audio_Player_Copy/Software/Audio_Player_test1_bsp/\libhal_bsp.a(alt_write.o)
 .data          0x0000000003061954     0x1200 c:/Users/Robin/Documents/NHLStenden/FPGA/QuartusPrimeProjects/DE2-115_V.1.0.6_SystemCD/DE2_115_demonstrations/DE2_115_SD_Card_Audio_Player_Copy/Software/Audio_Player_test1_bsp/\libhal_bsp.a(alt_sys_init.o)
 .data          0x0000000003062b54        0x0 c:/Users/Robin/Documents/NHLStenden/FPGA/QuartusPrimeProjects/DE2-115_V.1.0.6_SystemCD/DE2_115_demonstrations/DE2_115_SD_Card_Audio_Player_Copy/Software/Audio_Player_test1_bsp/\libhal_bsp.a(altera_avalon_cfi_flash.o)
 .data          0x0000000003062b54        0x0 c:/Users/Robin/Documents/NHLStenden/FPGA/QuartusPrimeProjects/DE2-115_V.1.0.6_SystemCD/DE2_115_demonstrations/DE2_115_SD_Card_Audio_Player_Copy/Software/Audio_Player_test1_bsp/\libhal_bsp.a(altera_avalon_cfi_flash_table.o)
 .data          0x0000000003062b54        0x0 c:/Users/Robin/Documents/NHLStenden/FPGA/QuartusPrimeProjects/DE2-115_V.1.0.6_SystemCD/DE2_115_demonstrations/DE2_115_SD_Card_Audio_Player_Copy/Software/Audio_Player_test1_bsp/\libhal_bsp.a(altera_avalon_jtag_uart_fd.o)
 .data          0x0000000003062b54        0x0 c:/Users/Robin/Documents/NHLStenden/FPGA/QuartusPrimeProjects/DE2-115_V.1.0.6_SystemCD/DE2_115_demonstrations/DE2_115_SD_Card_Audio_Player_Copy/Software/Audio_Player_test1_bsp/\libhal_bsp.a(altera_avalon_jtag_uart_init.o)
 .data          0x0000000003062b54        0x0 c:/Users/Robin/Documents/NHLStenden/FPGA/QuartusPrimeProjects/DE2-115_V.1.0.6_SystemCD/DE2_115_demonstrations/DE2_115_SD_Card_Audio_Player_Copy/Software/Audio_Player_test1_bsp/\libhal_bsp.a(altera_avalon_jtag_uart_ioctl.o)
 .data          0x0000000003062b54        0x0 c:/Users/Robin/Documents/NHLStenden/FPGA/QuartusPrimeProjects/DE2-115_V.1.0.6_SystemCD/DE2_115_demonstrations/DE2_115_SD_Card_Audio_Player_Copy/Software/Audio_Player_test1_bsp/\libhal_bsp.a(altera_avalon_jtag_uart_read.o)
 .data          0x0000000003062b54        0x0 c:/Users/Robin/Documents/NHLStenden/FPGA/QuartusPrimeProjects/DE2-115_V.1.0.6_SystemCD/DE2_115_demonstrations/DE2_115_SD_Card_Audio_Player_Copy/Software/Audio_Player_test1_bsp/\libhal_bsp.a(altera_avalon_jtag_uart_write.o)
 .data          0x0000000003062b54        0x0 c:/Users/Robin/Documents/NHLStenden/FPGA/QuartusPrimeProjects/DE2-115_V.1.0.6_SystemCD/DE2_115_demonstrations/DE2_115_SD_Card_Audio_Player_Copy/Software/Audio_Player_test1_bsp/\libhal_bsp.a(altera_avalon_timer_sc.o)
 .data          0x0000000003062b54        0x0 c:/Users/Robin/Documents/NHLStenden/FPGA/QuartusPrimeProjects/DE2-115_V.1.0.6_SystemCD/DE2_115_demonstrations/DE2_115_SD_Card_Audio_Player_Copy/Software/Audio_Player_test1_bsp/\libhal_bsp.a(altera_avalon_uart_fd.o)
 .data          0x0000000003062b54        0x0 c:/Users/Robin/Documents/NHLStenden/FPGA/QuartusPrimeProjects/DE2-115_V.1.0.6_SystemCD/DE2_115_demonstrations/DE2_115_SD_Card_Audio_Player_Copy/Software/Audio_Player_test1_bsp/\libhal_bsp.a(altera_avalon_uart_init.o)
 .data          0x0000000003062b54        0x0 c:/Users/Robin/Documents/NHLStenden/FPGA/QuartusPrimeProjects/DE2-115_V.1.0.6_SystemCD/DE2_115_demonstrations/DE2_115_SD_Card_Audio_Player_Copy/Software/Audio_Player_test1_bsp/\libhal_bsp.a(altera_avalon_uart_read.o)
 .data          0x0000000003062b54        0x0 c:/Users/Robin/Documents/NHLStenden/FPGA/QuartusPrimeProjects/DE2-115_V.1.0.6_SystemCD/DE2_115_demonstrations/DE2_115_SD_Card_Audio_Player_Copy/Software/Audio_Player_test1_bsp/\libhal_bsp.a(altera_avalon_uart_write.o)
 .data          0x0000000003062b54        0x0 c:/Users/Robin/Documents/NHLStenden/FPGA/QuartusPrimeProjects/DE2-115_V.1.0.6_SystemCD/DE2_115_demonstrations/DE2_115_SD_Card_Audio_Player_Copy/Software/Audio_Player_test1_bsp/\libhal_bsp.a(alt_alarm_start.o)
 .data          0x0000000003062b54        0x0 c:/Users/Robin/Documents/NHLStenden/FPGA/QuartusPrimeProjects/DE2-115_V.1.0.6_SystemCD/DE2_115_demonstrations/DE2_115_SD_Card_Audio_Player_Copy/Software/Audio_Player_test1_bsp/\libhal_bsp.a(alt_busy_sleep.o)
 .data          0x0000000003062b54        0x0 c:/Users/Robin/Documents/NHLStenden/FPGA/QuartusPrimeProjects/DE2-115_V.1.0.6_SystemCD/DE2_115_demonstrations/DE2_115_SD_Card_Audio_Player_Copy/Software/Audio_Player_test1_bsp/\libhal_bsp.a(alt_dcache_flush.o)
 .data          0x0000000003062b54        0x0 c:/Users/Robin/Documents/NHLStenden/FPGA/QuartusPrimeProjects/DE2-115_V.1.0.6_SystemCD/DE2_115_demonstrations/DE2_115_SD_Card_Audio_Player_Copy/Software/Audio_Player_test1_bsp/\libhal_bsp.a(alt_dcache_flush_all.o)
 .data          0x0000000003062b54        0x0 c:/Users/Robin/Documents/NHLStenden/FPGA/QuartusPrimeProjects/DE2-115_V.1.0.6_SystemCD/DE2_115_demonstrations/DE2_115_SD_Card_Audio_Player_Copy/Software/Audio_Player_test1_bsp/\libhal_bsp.a(alt_dev_llist_insert.o)
 .data          0x0000000003062b54        0x0 c:/Users/Robin/Documents/NHLStenden/FPGA/QuartusPrimeProjects/DE2-115_V.1.0.6_SystemCD/DE2_115_demonstrations/DE2_115_SD_Card_Audio_Player_Copy/Software/Audio_Player_test1_bsp/\libhal_bsp.a(alt_do_ctors.o)
 .data          0x0000000003062b54        0x0 c:/Users/Robin/Documents/NHLStenden/FPGA/QuartusPrimeProjects/DE2-115_V.1.0.6_SystemCD/DE2_115_demonstrations/DE2_115_SD_Card_Audio_Player_Copy/Software/Audio_Player_test1_bsp/\libhal_bsp.a(alt_do_dtors.o)
 .data          0x0000000003062b54        0x0 c:/Users/Robin/Documents/NHLStenden/FPGA/QuartusPrimeProjects/DE2-115_V.1.0.6_SystemCD/DE2_115_demonstrations/DE2_115_SD_Card_Audio_Player_Copy/Software/Audio_Player_test1_bsp/\libhal_bsp.a(alt_find_dev.o)
 .data          0x0000000003062b54        0x0 c:/Users/Robin/Documents/NHLStenden/FPGA/QuartusPrimeProjects/DE2-115_V.1.0.6_SystemCD/DE2_115_demonstrations/DE2_115_SD_Card_Audio_Player_Copy/Software/Audio_Player_test1_bsp/\libhal_bsp.a(alt_find_file.o)
 .data          0x0000000003062b54        0x0 c:/Users/Robin/Documents/NHLStenden/FPGA/QuartusPrimeProjects/DE2-115_V.1.0.6_SystemCD/DE2_115_demonstrations/DE2_115_SD_Card_Audio_Player_Copy/Software/Audio_Player_test1_bsp/\libhal_bsp.a(alt_flash_dev.o)
 .data          0x0000000003062b54        0x0 c:/Users/Robin/Documents/NHLStenden/FPGA/QuartusPrimeProjects/DE2-115_V.1.0.6_SystemCD/DE2_115_demonstrations/DE2_115_SD_Card_Audio_Player_Copy/Software/Audio_Player_test1_bsp/\libhal_bsp.a(alt_get_fd.o)
 .data          0x0000000003062b54        0x0 c:/Users/Robin/Documents/NHLStenden/FPGA/QuartusPrimeProjects/DE2-115_V.1.0.6_SystemCD/DE2_115_demonstrations/DE2_115_SD_Card_Audio_Player_Copy/Software/Audio_Player_test1_bsp/\libhal_bsp.a(alt_icache_flush_all.o)
 .data          0x0000000003062b54        0x0 c:/Users/Robin/Documents/NHLStenden/FPGA/QuartusPrimeProjects/DE2-115_V.1.0.6_SystemCD/DE2_115_demonstrations/DE2_115_SD_Card_Audio_Player_Copy/Software/Audio_Player_test1_bsp/\libhal_bsp.a(alt_iic.o)
 .data          0x0000000003062b54        0x0 c:/Users/Robin/Documents/NHLStenden/FPGA/QuartusPrimeProjects/DE2-115_V.1.0.6_SystemCD/DE2_115_demonstrations/DE2_115_SD_Card_Audio_Player_Copy/Software/Audio_Player_test1_bsp/\libhal_bsp.a(alt_iic_isr_register.o)
 .data          0x0000000003062b54        0x0 c:/Users/Robin/Documents/NHLStenden/FPGA/QuartusPrimeProjects/DE2-115_V.1.0.6_SystemCD/DE2_115_demonstrations/DE2_115_SD_Card_Audio_Player_Copy/Software/Audio_Player_test1_bsp/\libhal_bsp.a(alt_io_redirect.o)
 .data          0x0000000003062b54        0x0 c:/Users/Robin/Documents/NHLStenden/FPGA/QuartusPrimeProjects/DE2-115_V.1.0.6_SystemCD/DE2_115_demonstrations/DE2_115_SD_Card_Audio_Player_Copy/Software/Audio_Player_test1_bsp/\libhal_bsp.a(alt_irq_entry.o)
 .data          0x0000000003062b54        0x0 c:/Users/Robin/Documents/NHLStenden/FPGA/QuartusPrimeProjects/DE2-115_V.1.0.6_SystemCD/DE2_115_demonstrations/DE2_115_SD_Card_Audio_Player_Copy/Software/Audio_Player_test1_bsp/\libhal_bsp.a(alt_irq_handler.o)
 .data          0x0000000003062b54        0x0 c:/Users/Robin/Documents/NHLStenden/FPGA/QuartusPrimeProjects/DE2-115_V.1.0.6_SystemCD/DE2_115_demonstrations/DE2_115_SD_Card_Audio_Player_Copy/Software/Audio_Player_test1_bsp/\libhal_bsp.a(altera_nios2_irq.o)
 .data          0x0000000003062b54        0x0 c:/Users/Robin/Documents/NHLStenden/FPGA/QuartusPrimeProjects/DE2-115_V.1.0.6_SystemCD/DE2_115_demonstrations/DE2_115_SD_Card_Audio_Player_Copy/Software/Audio_Player_test1_bsp/\libhal_bsp.a(altera_avalon_cfi_flash_amd.o)
 .data          0x0000000003062b54        0x0 c:/Users/Robin/Documents/NHLStenden/FPGA/QuartusPrimeProjects/DE2-115_V.1.0.6_SystemCD/DE2_115_demonstrations/DE2_115_SD_Card_Audio_Player_Copy/Software/Audio_Player_test1_bsp/\libhal_bsp.a(altera_avalon_cfi_flash_intel.o)
 .data          0x0000000003062b54        0x0 c:/Users/Robin/Documents/NHLStenden/FPGA/QuartusPrimeProjects/DE2-115_V.1.0.6_SystemCD/DE2_115_demonstrations/DE2_115_SD_Card_Audio_Player_Copy/Software/Audio_Player_test1_bsp/\libhal_bsp.a(alt_exception_entry.o)
 .data          0x0000000003062b54        0x0 c:/Users/Robin/Documents/NHLStenden/FPGA/QuartusPrimeProjects/DE2-115_V.1.0.6_SystemCD/DE2_115_demonstrations/DE2_115_SD_Card_Audio_Player_Copy/Software/Audio_Player_test1_bsp/\libhal_bsp.a(alt_icache_flush.o)
 .data          0x0000000003062b54        0x0 c:/intelfpga_lite/21.1/nios2eds/bin/gnu/h-x86_64-mingw32/bin/../lib/gcc/nios2-elf/10.3.1/../../../../../H-x86_64-mingw32/nios2-elf/lib\libc.a(lib_a-atexit.o)
 .data          0x0000000003062b54        0x0 c:/intelfpga_lite/21.1/nios2eds/bin/gnu/h-x86_64-mingw32/bin/../lib/gcc/nios2-elf/10.3.1/../../../../../H-x86_64-mingw32/nios2-elf/lib\libc.a(lib_a-exit.o)
 .data          0x0000000003062b54        0x0 c:/intelfpga_lite/21.1/nios2eds/bin/gnu/h-x86_64-mingw32/bin/../lib/gcc/nios2-elf/10.3.1/../../../../../H-x86_64-mingw32/nios2-elf/lib\libc.a(lib_a-memcmp.o)
 .data          0x0000000003062b54        0x0 c:/intelfpga_lite/21.1/nios2eds/bin/gnu/h-x86_64-mingw32/bin/../lib/gcc/nios2-elf/10.3.1/../../../../../H-x86_64-mingw32/nios2-elf/lib\libc.a(lib_a-__atexit.o)
 .data          0x0000000003062b54        0x0 c:/intelfpga_lite/21.1/nios2eds/bin/gnu/h-x86_64-mingw32/bin/../lib/gcc/nios2-elf/10.3.1/../../../../../H-x86_64-mingw32/nios2-elf/lib\libc.a(lib_a-__call_atexit.o)
                0x000000000306ab54                _gp = ABSOLUTE ((. + 0x8000))
                [!provide]                        PROVIDE (gp = _gp)
 *(.rwdata .rwdata.*)
 *(.sdata .sdata.* .gnu.linkonce.s.*)
 .sdata         0x0000000003062b54        0x3 obj/default/hello_world.o
 *fill*         0x0000000003062b57        0x1 
 .sdata._global_impure_ptr
                0x0000000003062b58        0x4 c:/intelfpga_lite/21.1/nios2eds/bin/gnu/h-x86_64-mingw32/bin/../lib/gcc/nios2-elf/10.3.1/../../../../../H-x86_64-mingw32/nios2-elf/lib\libc.a(lib_a-impure.o)
                0x0000000003062b58                _global_impure_ptr
 .sdata._impure_ptr
                0x0000000003062b5c        0x4 c:/intelfpga_lite/21.1/nios2eds/bin/gnu/h-x86_64-mingw32/bin/../lib/gcc/nios2-elf/10.3.1/../../../../../H-x86_64-mingw32/nios2-elf/lib\libc.a(lib_a-impure.o)
                0x0000000003062b5c                _impure_ptr
 .sdata.__malloc_sbrk_base
                0x0000000003062b60        0x4 c:/intelfpga_lite/21.1/nios2eds/bin/gnu/h-x86_64-mingw32/bin/../lib/gcc/nios2-elf/10.3.1/../../../../../H-x86_64-mingw32/nios2-elf/lib\libc.a(lib_a-mallocr.o)
                0x0000000003062b60                __malloc_sbrk_base
 .sdata.__malloc_trim_threshold
                0x0000000003062b64        0x4 c:/intelfpga_lite/21.1/nios2eds/bin/gnu/h-x86_64-mingw32/bin/../lib/gcc/nios2-elf/10.3.1/../../../../../H-x86_64-mingw32/nios2-elf/lib\libc.a(lib_a-mallocr.o)
                0x0000000003062b64                __malloc_trim_threshold
 .sdata         0x0000000003062b68       0x14 c:/Users/Robin/Documents/NHLStenden/FPGA/QuartusPrimeProjects/DE2-115_V.1.0.6_SystemCD/DE2_115_demonstrations/DE2_115_SD_Card_Audio_Player_Copy/Software/Audio_Player_test1_bsp/\libhal_bsp.a(alt_dev.o)
                0x0000000003062b68                alt_fs_list
                0x0000000003062b70                alt_dev_list
                0x0000000003062b78                alt_max_fd
 .sdata         0x0000000003062b7c        0x4 c:/Users/Robin/Documents/NHLStenden/FPGA/QuartusPrimeProjects/DE2-115_V.1.0.6_SystemCD/DE2_115_demonstrations/DE2_115_SD_Card_Audio_Player_Copy/Software/Audio_Player_test1_bsp/\libhal_bsp.a(alt_errno.o)
                0x0000000003062b7c                alt_errno
 .sdata         0x0000000003062b80        0x4 c:/Users/Robin/Documents/NHLStenden/FPGA/QuartusPrimeProjects/DE2-115_V.1.0.6_SystemCD/DE2_115_demonstrations/DE2_115_SD_Card_Audio_Player_Copy/Software/Audio_Player_test1_bsp/\libhal_bsp.a(alt_irq_vars.o)
                0x0000000003062b80                alt_priority_mask
 .sdata         0x0000000003062b84        0x4 c:/Users/Robin/Documents/NHLStenden/FPGA/QuartusPrimeProjects/DE2-115_V.1.0.6_SystemCD/DE2_115_demonstrations/DE2_115_SD_Card_Audio_Player_Copy/Software/Audio_Player_test1_bsp/\libhal_bsp.a(alt_sbrk.o)
 .sdata         0x0000000003062b88        0x8 c:/Users/Robin/Documents/NHLStenden/FPGA/QuartusPrimeProjects/DE2-115_V.1.0.6_SystemCD/DE2_115_demonstrations/DE2_115_SD_Card_Audio_Player_Copy/Software/Audio_Player_test1_bsp/\libhal_bsp.a(alt_tick.o)
                0x0000000003062b88                alt_alarm_list
 .sdata         0x0000000003062b90        0x8 c:/Users/Robin/Documents/NHLStenden/FPGA/QuartusPrimeProjects/DE2-115_V.1.0.6_SystemCD/DE2_115_demonstrations/DE2_115_SD_Card_Audio_Player_Copy/Software/Audio_Player_test1_bsp/\libhal_bsp.a(alt_flash_dev.o)
                0x0000000003062b90                alt_flash_dev_list
 *(.sdata2 .sdata2.* .gnu.linkonce.s2.*)
                0x0000000003062b98                . = ALIGN (0x4)
                0x0000000003062b98                _edata = ABSOLUTE (.)
                [!provide]                        PROVIDE (edata = ABSOLUTE (.))
                0x0000000003062b98                PROVIDE (__ram_rwdata_end = ABSOLUTE (.))
                0x0000000003062b98                PROVIDE (__flash_rwdata_start = LOADADDR (.rwdata))

.bss            0x000000000306492c     0x1404
                0x000000000306492c                __bss_start = ABSOLUTE (.)
                [!provide]                        PROVIDE (__sbss_start = ABSOLUTE (.))
                [!provide]                        PROVIDE (___sbss_start = ABSOLUTE (.))
 *(.dynsbss)
 *(.sbss .sbss.* .gnu.linkonce.sb.*)
 .sbss          0x000000000306492c        0x4 obj/default/LCD.o
 .sbss          0x0000000003064930        0xb obj/default/hello_world.o
 *fill*         0x000000000306493b        0x1 
 .sbss.errno    0x000000000306493c        0x4 c:/intelfpga_lite/21.1/nios2eds/bin/gnu/h-x86_64-mingw32/bin/../lib/gcc/nios2-elf/10.3.1/../../../../../H-x86_64-mingw32/nios2-elf/lib\libc.a(lib_a-int_errno.o)
                0x000000000306493c                errno
 .sbss.__malloc_max_total_mem
                0x0000000003064940        0x4 c:/intelfpga_lite/21.1/nios2eds/bin/gnu/h-x86_64-mingw32/bin/../lib/gcc/nios2-elf/10.3.1/../../../../../H-x86_64-mingw32/nios2-elf/lib\libc.a(lib_a-mallocr.o)
                0x0000000003064940                __malloc_max_total_mem
 .sbss.__malloc_max_sbrked_mem
                0x0000000003064944        0x4 c:/intelfpga_lite/21.1/nios2eds/bin/gnu/h-x86_64-mingw32/bin/../lib/gcc/nios2-elf/10.3.1/../../../../../H-x86_64-mingw32/nios2-elf/lib\libc.a(lib_a-mallocr.o)
                0x0000000003064944                __malloc_max_sbrked_mem
 .sbss.__malloc_top_pad
                0x0000000003064948        0x4 c:/intelfpga_lite/21.1/nios2eds/bin/gnu/h-x86_64-mingw32/bin/../lib/gcc/nios2-elf/10.3.1/../../../../../H-x86_64-mingw32/nios2-elf/lib\libc.a(lib_a-mallocr.o)
                0x0000000003064948                __malloc_top_pad
 .sbss._PathLocale
                0x000000000306494c        0x4 c:/intelfpga_lite/21.1/nios2eds/bin/gnu/h-x86_64-mingw32/bin/../lib/gcc/nios2-elf/10.3.1/../../../../../H-x86_64-mingw32/nios2-elf/lib\libc.a(lib_a-locale.o)
                0x000000000306494c                _PathLocale
 .sbss          0x0000000003064950        0x4 c:/Users/Robin/Documents/NHLStenden/FPGA/QuartusPrimeProjects/DE2-115_V.1.0.6_SystemCD/DE2_115_demonstrations/DE2_115_SD_Card_Audio_Player_Copy/Software/Audio_Player_test1_bsp/\libhal_bsp.a(alt_irq_vars.o)
                0x0000000003064950                alt_irq_active
 .sbss          0x0000000003064954        0xc c:/Users/Robin/Documents/NHLStenden/FPGA/QuartusPrimeProjects/DE2-115_V.1.0.6_SystemCD/DE2_115_demonstrations/DE2_115_SD_Card_Audio_Player_Copy/Software/Audio_Player_test1_bsp/\libhal_bsp.a(alt_main.o)
                0x0000000003064954                alt_argc
                0x0000000003064958                alt_argv
                0x000000000306495c                alt_envp
 .sbss          0x0000000003064960        0xc c:/Users/Robin/Documents/NHLStenden/FPGA/QuartusPrimeProjects/DE2-115_V.1.0.6_SystemCD/DE2_115_demonstrations/DE2_115_SD_Card_Audio_Player_Copy/Software/Audio_Player_test1_bsp/\libhal_bsp.a(alt_tick.o)
                0x0000000003064960                _alt_tick_rate
                0x0000000003064964                _alt_nticks
 *(.sbss2 .sbss2.* .gnu.linkonce.sb2.*)
 *(.scommon)
                [!provide]                        PROVIDE (__sbss_end = ABSOLUTE (.))
                [!provide]                        PROVIDE (___sbss_end = ABSOLUTE (.))
 *(.dynbss)
 *(.bss .bss.* .gnu.linkonce.b.*)
 .bss           0x000000000306496c        0x0 c:/Users/Robin/Documents/NHLStenden/FPGA/QuartusPrimeProjects/DE2-115_V.1.0.6_SystemCD/DE2_115_demonstrations/DE2_115_SD_Card_Audio_Player_Copy/Software/Audio_Player_test1_bsp//obj/HAL/src/crt0.o
 .bss           0x000000000306496c       0x28 obj/default/AUDIO.o
 .bss           0x0000000003064994        0x0 obj/default/FatFileSystem.o
 .bss           0x0000000003064994        0x0 obj/default/FatInternal.o
 .bss           0x0000000003064994        0x0 obj/default/I2C.o
 .bss           0x0000000003064994        0x0 obj/default/LCD.o
 .bss           0x0000000003064994        0x0 obj/default/LED.o
 .bss           0x0000000003064994        0x0 obj/default/SEG7.o
 .bss           0x0000000003064994        0x0 obj/default/WaveLib.o
 .bss           0x0000000003064994        0x0 obj/default/crc16.o
 .bss           0x0000000003064994        0x0 obj/default/crc7.o
 .bss           0x0000000003064994        0x0 obj/default/debug.o
 .bss           0x0000000003064994     0x123c obj/default/hello_world.o
 .bss           0x0000000003065bd0        0x0 obj/default/sd_hal.o
 .bss           0x0000000003065bd0       0x38 obj/default/sd_lib.o
 .bss           0x0000000003065c08        0x0 obj/default/sd_protocol.o
 .bss           0x0000000003065c08        0x0 c:/intelfpga_lite/21.1/nios2eds/bin/gnu/h-x86_64-mingw32/bin/../lib/gcc/nios2-elf/10.3.1\libgcc.a(lib2-divmod.o)
 .bss           0x0000000003065c08        0x0 c:/intelfpga_lite/21.1/nios2eds/bin/gnu/h-x86_64-mingw32/bin/../lib/gcc/nios2-elf/10.3.1\libgcc.a(divsf3.o)
 .bss           0x0000000003065c08        0x0 c:/intelfpga_lite/21.1/nios2eds/bin/gnu/h-x86_64-mingw32/bin/../lib/gcc/nios2-elf/10.3.1\libgcc.a(mulsf3.o)
 .bss           0x0000000003065c08        0x0 c:/intelfpga_lite/21.1/nios2eds/bin/gnu/h-x86_64-mingw32/bin/../lib/gcc/nios2-elf/10.3.1\libgcc.a(floatunsisf.o)
 .bss           0x0000000003065c08        0x0 c:/intelfpga_lite/21.1/nios2eds/bin/gnu/h-x86_64-mingw32/bin/../lib/gcc/nios2-elf/10.3.1\libgcc.a(divdf3.o)
 .bss           0x0000000003065c08        0x0 c:/intelfpga_lite/21.1/nios2eds/bin/gnu/h-x86_64-mingw32/bin/../lib/gcc/nios2-elf/10.3.1\libgcc.a(extendsfdf2.o)
 .bss           0x0000000003065c08        0x0 c:/intelfpga_lite/21.1/nios2eds/bin/gnu/h-x86_64-mingw32/bin/../lib/gcc/nios2-elf/10.3.1\libgcc.a(truncdfsf2.o)
 .bss           0x0000000003065c08        0x0 c:/intelfpga_lite/21.1/nios2eds/bin/gnu/h-x86_64-mingw32/bin/../lib/gcc/nios2-elf/10.3.1\libgcc.a(_clzsi2.o)
 .bss           0x0000000003065c08        0x0 c:/intelfpga_lite/21.1/nios2eds/bin/gnu/h-x86_64-mingw32/bin/../lib/gcc/nios2-elf/10.3.1\libgcc.a(_clz.o)
 .bss           0x0000000003065c08        0x0 c:/intelfpga_lite/21.1/nios2eds/bin/gnu/h-x86_64-mingw32/bin/../lib/gcc/nios2-elf/10.3.1/../../../../../H-x86_64-mingw32/nios2-elf/lib\libc.a(lib_a-fclose.o)
 .bss           0x0000000003065c08        0x0 c:/intelfpga_lite/21.1/nios2eds/bin/gnu/h-x86_64-mingw32/bin/../lib/gcc/nios2-elf/10.3.1/../../../../../H-x86_64-mingw32/nios2-elf/lib\libc.a(lib_a-fflush.o)
 .bss           0x0000000003065c08        0x0 c:/intelfpga_lite/21.1/nios2eds/bin/gnu/h-x86_64-mingw32/bin/../lib/gcc/nios2-elf/10.3.1/../../../../../H-x86_64-mingw32/nios2-elf/lib\libc.a(lib_a-findfp.o)
 .bss           0x0000000003065c08        0x0 c:/intelfpga_lite/21.1/nios2eds/bin/gnu/h-x86_64-mingw32/bin/../lib/gcc/nios2-elf/10.3.1/../../../../../H-x86_64-mingw32/nios2-elf/lib\libc.a(lib_a-fopen.o)
 .bss           0x0000000003065c08        0x0 c:/intelfpga_lite/21.1/nios2eds/bin/gnu/h-x86_64-mingw32/bin/../lib/gcc/nios2-elf/10.3.1/../../../../../H-x86_64-mingw32/nios2-elf/lib\libc.a(lib_a-freer.o)
 .bss           0x0000000003065c08        0x0 c:/intelfpga_lite/21.1/nios2eds/bin/gnu/h-x86_64-mingw32/bin/../lib/gcc/nios2-elf/10.3.1/../../../../../H-x86_64-mingw32/nios2-elf/lib\libc.a(lib_a-fseek.o)
 .bss           0x0000000003065c08        0x0 c:/intelfpga_lite/21.1/nios2eds/bin/gnu/h-x86_64-mingw32/bin/../lib/gcc/nios2-elf/10.3.1/../../../../../H-x86_64-mingw32/nios2-elf/lib\libc.a(lib_a-fseeko.o)
 .bss           0x0000000003065c08        0x0 c:/intelfpga_lite/21.1/nios2eds/bin/gnu/h-x86_64-mingw32/bin/../lib/gcc/nios2-elf/10.3.1/../../../../../H-x86_64-mingw32/nios2-elf/lib\libc.a(lib_a-fstatr.o)
 .bss           0x0000000003065c08        0x0 c:/intelfpga_lite/21.1/nios2eds/bin/gnu/h-x86_64-mingw32/bin/../lib/gcc/nios2-elf/10.3.1/../../../../../H-x86_64-mingw32/nios2-elf/lib\libc.a(lib_a-fwalk.o)
 .bss           0x0000000003065c08        0x0 c:/intelfpga_lite/21.1/nios2eds/bin/gnu/h-x86_64-mingw32/bin/../lib/gcc/nios2-elf/10.3.1/../../../../../H-x86_64-mingw32/nios2-elf/lib\libc.a(lib_a-fwrite.o)
 .bss           0x0000000003065c08        0x0 c:/intelfpga_lite/21.1/nios2eds/bin/gnu/h-x86_64-mingw32/bin/../lib/gcc/nios2-elf/10.3.1/../../../../../H-x86_64-mingw32/nios2-elf/lib\libc.a(lib_a-impure.o)
 .bss           0x0000000003065c08        0x0 c:/intelfpga_lite/21.1/nios2eds/bin/gnu/h-x86_64-mingw32/bin/../lib/gcc/nios2-elf/10.3.1/../../../../../H-x86_64-mingw32/nios2-elf/lib\libc.a(lib_a-int_errno.o)
 .bss           0x0000000003065c08        0x0 c:/intelfpga_lite/21.1/nios2eds/bin/gnu/h-x86_64-mingw32/bin/../lib/gcc/nios2-elf/10.3.1/../../../../../H-x86_64-mingw32/nios2-elf/lib\libc.a(lib_a-makebuf.o)
 .bss           0x0000000003065c08        0x0 c:/intelfpga_lite/21.1/nios2eds/bin/gnu/h-x86_64-mingw32/bin/../lib/gcc/nios2-elf/10.3.1/../../../../../H-x86_64-mingw32/nios2-elf/lib\libc.a(lib_a-malloc.o)
 .bss           0x0000000003065c08        0x0 c:/intelfpga_lite/21.1/nios2eds/bin/gnu/h-x86_64-mingw32/bin/../lib/gcc/nios2-elf/10.3.1/../../../../../H-x86_64-mingw32/nios2-elf/lib\libc.a(lib_a-mallocr.o)
 .bss.__malloc_current_mallinfo
                0x0000000003065c08       0x28 c:/intelfpga_lite/21.1/nios2eds/bin/gnu/h-x86_64-mingw32/bin/../lib/gcc/nios2-elf/10.3.1/../../../../../H-x86_64-mingw32/nios2-elf/lib\libc.a(lib_a-mallocr.o)
                0x0000000003065c08                __malloc_current_mallinfo
 .bss           0x0000000003065c30        0x0 c:/intelfpga_lite/21.1/nios2eds/bin/gnu/h-x86_64-mingw32/bin/../lib/gcc/nios2-elf/10.3.1/../../../../../H-x86_64-mingw32/nios2-elf/lib\libc.a(lib_a-memcpy.o)
 .bss           0x0000000003065c30        0x0 c:/intelfpga_lite/21.1/nios2eds/bin/gnu/h-x86_64-mingw32/bin/../lib/gcc/nios2-elf/10.3.1/../../../../../H-x86_64-mingw32/nios2-elf/lib\libc.a(lib_a-memset.o)
 .bss           0x0000000003065c30        0x0 c:/intelfpga_lite/21.1/nios2eds/bin/gnu/h-x86_64-mingw32/bin/../lib/gcc/nios2-elf/10.3.1/../../../../../H-x86_64-mingw32/nios2-elf/lib\libc.a(lib_a-openr.o)
 .bss           0x0000000003065c30        0x0 c:/intelfpga_lite/21.1/nios2eds/bin/gnu/h-x86_64-mingw32/bin/../lib/gcc/nios2-elf/10.3.1/../../../../../H-x86_64-mingw32/nios2-elf/lib\libc.a(lib_a-printf.o)
 .bss           0x0000000003065c30        0x0 c:/intelfpga_lite/21.1/nios2eds/bin/gnu/h-x86_64-mingw32/bin/../lib/gcc/nios2-elf/10.3.1/../../../../../H-x86_64-mingw32/nios2-elf/lib\libc.a(lib_a-putchar.o)
 .bss           0x0000000003065c30        0x0 c:/intelfpga_lite/21.1/nios2eds/bin/gnu/h-x86_64-mingw32/bin/../lib/gcc/nios2-elf/10.3.1/../../../../../H-x86_64-mingw32/nios2-elf/lib\libc.a(lib_a-puts.o)
 .bss           0x0000000003065c30        0x0 c:/intelfpga_lite/21.1/nios2eds/bin/gnu/h-x86_64-mingw32/bin/../lib/gcc/nios2-elf/10.3.1/../../../../../H-x86_64-mingw32/nios2-elf/lib\libc.a(lib_a-refill.o)
 .bss           0x0000000003065c30        0x0 c:/intelfpga_lite/21.1/nios2eds/bin/gnu/h-x86_64-mingw32/bin/../lib/gcc/nios2-elf/10.3.1/../../../../../H-x86_64-mingw32/nios2-elf/lib\libc.a(lib_a-sbrkr.o)
 .bss           0x0000000003065c30        0x0 c:/intelfpga_lite/21.1/nios2eds/bin/gnu/h-x86_64-mingw32/bin/../lib/gcc/nios2-elf/10.3.1/../../../../../H-x86_64-mingw32/nios2-elf/lib\libc.a(lib_a-sprintf.o)
 .bss           0x0000000003065c30        0x0 c:/intelfpga_lite/21.1/nios2eds/bin/gnu/h-x86_64-mingw32/bin/../lib/gcc/nios2-elf/10.3.1/../../../../../H-x86_64-mingw32/nios2-elf/lib\libc.a(lib_a-stdio.o)
 .bss           0x0000000003065c30        0x0 c:/intelfpga_lite/21.1/nios2eds/bin/gnu/h-x86_64-mingw32/bin/../lib/gcc/nios2-elf/10.3.1/../../../../../H-x86_64-mingw32/nios2-elf/lib\libc.a(lib_a-strcmp.o)
 .bss           0x0000000003065c30        0x0 c:/intelfpga_lite/21.1/nios2eds/bin/gnu/h-x86_64-mingw32/bin/../lib/gcc/nios2-elf/10.3.1/../../../../../H-x86_64-mingw32/nios2-elf/lib\libc.a(lib_a-strcpy.o)
 .bss           0x0000000003065c30        0x0 c:/intelfpga_lite/21.1/nios2eds/bin/gnu/h-x86_64-mingw32/bin/../lib/gcc/nios2-elf/10.3.1/../../../../../H-x86_64-mingw32/nios2-elf/lib\libc.a(lib_a-strlen.o)
 .bss           0x0000000003065c30        0x0 c:/intelfpga_lite/21.1/nios2eds/bin/gnu/h-x86_64-mingw32/bin/../lib/gcc/nios2-elf/10.3.1/../../../../../H-x86_64-mingw32/nios2-elf/lib\libc.a(lib_a-svfprintf.o)
 .bss           0x0000000003065c30        0x0 c:/intelfpga_lite/21.1/nios2eds/bin/gnu/h-x86_64-mingw32/bin/../lib/gcc/nios2-elf/10.3.1/../../../../../H-x86_64-mingw32/nios2-elf/lib\libc.a(lib_a-vfprintf.o)
 .bss           0x0000000003065c30        0x0 c:/intelfpga_lite/21.1/nios2eds/bin/gnu/h-x86_64-mingw32/bin/../lib/gcc/nios2-elf/10.3.1/../../../../../H-x86_64-mingw32/nios2-elf/lib\libc.a(lib_a-vsnprintf.o)
 .bss           0x0000000003065c30        0x0 c:/intelfpga_lite/21.1/nios2eds/bin/gnu/h-x86_64-mingw32/bin/../lib/gcc/nios2-elf/10.3.1/../../../../../H-x86_64-mingw32/nios2-elf/lib\libc.a(lib_a-writer.o)
 .bss           0x0000000003065c30        0x0 c:/intelfpga_lite/21.1/nios2eds/bin/gnu/h-x86_64-mingw32/bin/../lib/gcc/nios2-elf/10.3.1/../../../../../H-x86_64-mingw32/nios2-elf/lib\libc.a(lib_a-wsetup.o)
 .bss           0x0000000003065c30        0x0 c:/intelfpga_lite/21.1/nios2eds/bin/gnu/h-x86_64-mingw32/bin/../lib/gcc/nios2-elf/10.3.1/../../../../../H-x86_64-mingw32/nios2-elf/lib\libc.a(closer.o)
 .bss           0x0000000003065c30        0x0 c:/intelfpga_lite/21.1/nios2eds/bin/gnu/h-x86_64-mingw32/bin/../lib/gcc/nios2-elf/10.3.1/../../../../../H-x86_64-mingw32/nios2-elf/lib\libc.a(lib_a-dtoa.o)
 .bss           0x0000000003065c30        0x0 c:/intelfpga_lite/21.1/nios2eds/bin/gnu/h-x86_64-mingw32/bin/../lib/gcc/nios2-elf/10.3.1/../../../../../H-x86_64-mingw32/nios2-elf/lib\libc.a(lib_a-flags.o)
 .bss           0x0000000003065c30        0x0 c:/intelfpga_lite/21.1/nios2eds/bin/gnu/h-x86_64-mingw32/bin/../lib/gcc/nios2-elf/10.3.1/../../../../../H-x86_64-mingw32/nios2-elf/lib\libc.a(lib_a-fvwrite.o)
 .bss           0x0000000003065c30        0x0 c:/intelfpga_lite/21.1/nios2eds/bin/gnu/h-x86_64-mingw32/bin/../lib/gcc/nios2-elf/10.3.1/../../../../../H-x86_64-mingw32/nios2-elf/lib\libc.a(lib_a-isattyr.o)
 .bss           0x0000000003065c30        0x0 c:/intelfpga_lite/21.1/nios2eds/bin/gnu/h-x86_64-mingw32/bin/../lib/gcc/nios2-elf/10.3.1/../../../../../H-x86_64-mingw32/nios2-elf/lib\libc.a(lib_a-localeconv.o)
 .bss           0x0000000003065c30        0x0 c:/intelfpga_lite/21.1/nios2eds/bin/gnu/h-x86_64-mingw32/bin/../lib/gcc/nios2-elf/10.3.1/../../../../../H-x86_64-mingw32/nios2-elf/lib\libc.a(lib_a-lseekr.o)
 .bss           0x0000000003065c30        0x0 c:/intelfpga_lite/21.1/nios2eds/bin/gnu/h-x86_64-mingw32/bin/../lib/gcc/nios2-elf/10.3.1/../../../../../H-x86_64-mingw32/nios2-elf/lib\libc.a(lib_a-memchr.o)
 .bss           0x0000000003065c30        0x0 c:/intelfpga_lite/21.1/nios2eds/bin/gnu/h-x86_64-mingw32/bin/../lib/gcc/nios2-elf/10.3.1/../../../../../H-x86_64-mingw32/nios2-elf/lib\libc.a(lib_a-memmove.o)
 .bss           0x0000000003065c30        0x0 c:/intelfpga_lite/21.1/nios2eds/bin/gnu/h-x86_64-mingw32/bin/../lib/gcc/nios2-elf/10.3.1/../../../../../H-x86_64-mingw32/nios2-elf/lib\libc.a(lib_a-mprec.o)
 .bss           0x0000000003065c30        0x0 c:/intelfpga_lite/21.1/nios2eds/bin/gnu/h-x86_64-mingw32/bin/../lib/gcc/nios2-elf/10.3.1/../../../../../H-x86_64-mingw32/nios2-elf/lib\libc.a(lib_a-putc.o)
 .bss           0x0000000003065c30        0x0 c:/intelfpga_lite/21.1/nios2eds/bin/gnu/h-x86_64-mingw32/bin/../lib/gcc/nios2-elf/10.3.1/../../../../../H-x86_64-mingw32/nios2-elf/lib\libc.a(lib_a-readr.o)
 .bss           0x0000000003065c30        0x0 c:/intelfpga_lite/21.1/nios2eds/bin/gnu/h-x86_64-mingw32/bin/../lib/gcc/nios2-elf/10.3.1/../../../../../H-x86_64-mingw32/nios2-elf/lib\libc.a(lib_a-reallocr.o)
 .bss           0x0000000003065c30        0x0 c:/intelfpga_lite/21.1/nios2eds/bin/gnu/h-x86_64-mingw32/bin/../lib/gcc/nios2-elf/10.3.1/../../../../../H-x86_64-mingw32/nios2-elf/lib\libc.a(lib_a-svfiprintf.o)
 .bss           0x0000000003065c30        0x0 c:/intelfpga_lite/21.1/nios2eds/bin/gnu/h-x86_64-mingw32/bin/../lib/gcc/nios2-elf/10.3.1/../../../../../H-x86_64-mingw32/nios2-elf/lib\libc.a(lib_a-vfiprintf.o)
 .bss           0x0000000003065c30        0x0 c:/intelfpga_lite/21.1/nios2eds/bin/gnu/h-x86_64-mingw32/bin/../lib/gcc/nios2-elf/10.3.1/../../../../../H-x86_64-mingw32/nios2-elf/lib\libc.a(lib_a-wbuf.o)
 .bss           0x0000000003065c30        0x0 c:/intelfpga_lite/21.1/nios2eds/bin/gnu/h-x86_64-mingw32/bin/../lib/gcc/nios2-elf/10.3.1/../../../../../H-x86_64-mingw32/nios2-elf/lib\libc.a(lib_a-assert.o)
 .bss           0x0000000003065c30        0x0 c:/intelfpga_lite/21.1/nios2eds/bin/gnu/h-x86_64-mingw32/bin/../lib/gcc/nios2-elf/10.3.1/../../../../../H-x86_64-mingw32/nios2-elf/lib\libc.a(lib_a-callocr.o)
 .bss           0x0000000003065c30        0x0 c:/intelfpga_lite/21.1/nios2eds/bin/gnu/h-x86_64-mingw32/bin/../lib/gcc/nios2-elf/10.3.1/../../../../../H-x86_64-mingw32/nios2-elf/lib\libc.a(lib_a-errno.o)
 .bss           0x0000000003065c30        0x0 c:/intelfpga_lite/21.1/nios2eds/bin/gnu/h-x86_64-mingw32/bin/../lib/gcc/nios2-elf/10.3.1/../../../../../H-x86_64-mingw32/nios2-elf/lib\libc.a(lib_a-fiprintf.o)
 .bss           0x0000000003065c30        0x0 c:/intelfpga_lite/21.1/nios2eds/bin/gnu/h-x86_64-mingw32/bin/../lib/gcc/nios2-elf/10.3.1/../../../../../H-x86_64-mingw32/nios2-elf/lib\libc.a(lib_a-fputwc.o)
 .bss           0x0000000003065c30        0x0 c:/intelfpga_lite/21.1/nios2eds/bin/gnu/h-x86_64-mingw32/bin/../lib/gcc/nios2-elf/10.3.1/../../../../../H-x86_64-mingw32/nios2-elf/lib\libc.a(lib_a-locale.o)
 .bss           0x0000000003065c30        0x0 c:/intelfpga_lite/21.1/nios2eds/bin/gnu/h-x86_64-mingw32/bin/../lib/gcc/nios2-elf/10.3.1/../../../../../H-x86_64-mingw32/nios2-elf/lib\libc.a(lib_a-mbtowc_r.o)
 .bss           0x0000000003065c30        0x0 c:/intelfpga_lite/21.1/nios2eds/bin/gnu/h-x86_64-mingw32/bin/../lib/gcc/nios2-elf/10.3.1/../../../../../H-x86_64-mingw32/nios2-elf/lib\libc.a(lib_a-vfiprintfr_1.o)
 .bss           0x0000000003065c30        0x0 c:/intelfpga_lite/21.1/nios2eds/bin/gnu/h-x86_64-mingw32/bin/../lib/gcc/nios2-elf/10.3.1/../../../../../H-x86_64-mingw32/nios2-elf/lib\libc.a(lib_a-wcrtomb.o)
 .bss           0x0000000003065c30        0x0 c:/intelfpga_lite/21.1/nios2eds/bin/gnu/h-x86_64-mingw32/bin/../lib/gcc/nios2-elf/10.3.1/../../../../../H-x86_64-mingw32/nios2-elf/lib\libc.a(lib_a-wctomb_r.o)
 .bss           0x0000000003065c30        0x0 c:/intelfpga_lite/21.1/nios2eds/bin/gnu/h-x86_64-mingw32/bin/../lib/gcc/nios2-elf/10.3.1/../../../../../H-x86_64-mingw32/nios2-elf/lib\libc.a(lib_a-abort.o)
 .bss           0x0000000003065c30        0x0 c:/intelfpga_lite/21.1/nios2eds/bin/gnu/h-x86_64-mingw32/bin/../lib/gcc/nios2-elf/10.3.1/../../../../../H-x86_64-mingw32/nios2-elf/lib\libc.a(lib_a-ctype_.o)
 .bss           0x0000000003065c30        0x0 c:/intelfpga_lite/21.1/nios2eds/bin/gnu/h-x86_64-mingw32/bin/../lib/gcc/nios2-elf/10.3.1/../../../../../H-x86_64-mingw32/nios2-elf/lib\libc.a(lib_a-signal.o)
 .bss           0x0000000003065c30        0x0 c:/intelfpga_lite/21.1/nios2eds/bin/gnu/h-x86_64-mingw32/bin/../lib/gcc/nios2-elf/10.3.1/../../../../../H-x86_64-mingw32/nios2-elf/lib\libc.a(lib_a-signalr.o)
 .bss           0x0000000003065c30        0x0 c:/intelfpga_lite/21.1/nios2eds/bin/gnu/h-x86_64-mingw32/bin/../lib/gcc/nios2-elf/10.3.1\libgcc.a(_udivdi3.o)
 .bss           0x0000000003065c30        0x0 c:/intelfpga_lite/21.1/nios2eds/bin/gnu/h-x86_64-mingw32/bin/../lib/gcc/nios2-elf/10.3.1\libgcc.a(_umoddi3.o)
 .bss           0x0000000003065c30        0x0 c:/intelfpga_lite/21.1/nios2eds/bin/gnu/h-x86_64-mingw32/bin/../lib/gcc/nios2-elf/10.3.1\libgcc.a(adddf3.o)
 .bss           0x0000000003065c30        0x0 c:/intelfpga_lite/21.1/nios2eds/bin/gnu/h-x86_64-mingw32/bin/../lib/gcc/nios2-elf/10.3.1\libgcc.a(eqdf2.o)
 .bss           0x0000000003065c30        0x0 c:/intelfpga_lite/21.1/nios2eds/bin/gnu/h-x86_64-mingw32/bin/../lib/gcc/nios2-elf/10.3.1\libgcc.a(gedf2.o)
 .bss           0x0000000003065c30        0x0 c:/intelfpga_lite/21.1/nios2eds/bin/gnu/h-x86_64-mingw32/bin/../lib/gcc/nios2-elf/10.3.1\libgcc.a(ledf2.o)
 .bss           0x0000000003065c30        0x0 c:/intelfpga_lite/21.1/nios2eds/bin/gnu/h-x86_64-mingw32/bin/../lib/gcc/nios2-elf/10.3.1\libgcc.a(muldf3.o)
 .bss           0x0000000003065c30        0x0 c:/intelfpga_lite/21.1/nios2eds/bin/gnu/h-x86_64-mingw32/bin/../lib/gcc/nios2-elf/10.3.1\libgcc.a(subdf3.o)
 .bss           0x0000000003065c30        0x0 c:/intelfpga_lite/21.1/nios2eds/bin/gnu/h-x86_64-mingw32/bin/../lib/gcc/nios2-elf/10.3.1\libgcc.a(unorddf2.o)
 .bss           0x0000000003065c30        0x0 c:/intelfpga_lite/21.1/nios2eds/bin/gnu/h-x86_64-mingw32/bin/../lib/gcc/nios2-elf/10.3.1\libgcc.a(fixdfsi.o)
 .bss           0x0000000003065c30        0x0 c:/intelfpga_lite/21.1/nios2eds/bin/gnu/h-x86_64-mingw32/bin/../lib/gcc/nios2-elf/10.3.1\libgcc.a(floatsidf.o)
 .bss           0x0000000003065c30        0x0 c:/intelfpga_lite/21.1/nios2eds/bin/gnu/h-x86_64-mingw32/bin/../lib/gcc/nios2-elf/10.3.1\libgcc.a(floatunsidf.o)
 .bss           0x0000000003065c30        0x0 c:/Users/Robin/Documents/NHLStenden/FPGA/QuartusPrimeProjects/DE2-115_V.1.0.6_SystemCD/DE2_115_demonstrations/DE2_115_SD_Card_Audio_Player_Copy/Software/Audio_Player_test1_bsp/\libhal_bsp.a(alt_close.o)
 .bss           0x0000000003065c30        0x0 c:/Users/Robin/Documents/NHLStenden/FPGA/QuartusPrimeProjects/DE2-115_V.1.0.6_SystemCD/DE2_115_demonstrations/DE2_115_SD_Card_Audio_Player_Copy/Software/Audio_Player_test1_bsp/\libhal_bsp.a(alt_dev.o)
 .bss           0x0000000003065c30        0x0 c:/Users/Robin/Documents/NHLStenden/FPGA/QuartusPrimeProjects/DE2-115_V.1.0.6_SystemCD/DE2_115_demonstrations/DE2_115_SD_Card_Audio_Player_Copy/Software/Audio_Player_test1_bsp/\libhal_bsp.a(alt_errno.o)
 .bss           0x0000000003065c30        0x0 c:/Users/Robin/Documents/NHLStenden/FPGA/QuartusPrimeProjects/DE2-115_V.1.0.6_SystemCD/DE2_115_demonstrations/DE2_115_SD_Card_Audio_Player_Copy/Software/Audio_Player_test1_bsp/\libhal_bsp.a(alt_exit.o)
 .bss           0x0000000003065c30        0x0 c:/Users/Robin/Documents/NHLStenden/FPGA/QuartusPrimeProjects/DE2-115_V.1.0.6_SystemCD/DE2_115_demonstrations/DE2_115_SD_Card_Audio_Player_Copy/Software/Audio_Player_test1_bsp/\libhal_bsp.a(alt_fstat.o)
 .bss           0x0000000003065c30        0x0 c:/Users/Robin/Documents/NHLStenden/FPGA/QuartusPrimeProjects/DE2-115_V.1.0.6_SystemCD/DE2_115_demonstrations/DE2_115_SD_Card_Audio_Player_Copy/Software/Audio_Player_test1_bsp/\libhal_bsp.a(alt_getpid.o)
 .bss           0x0000000003065c30        0x0 c:/Users/Robin/Documents/NHLStenden/FPGA/QuartusPrimeProjects/DE2-115_V.1.0.6_SystemCD/DE2_115_demonstrations/DE2_115_SD_Card_Audio_Player_Copy/Software/Audio_Player_test1_bsp/\libhal_bsp.a(alt_irq_register.o)
 .bss           0x0000000003065c30        0x0 c:/Users/Robin/Documents/NHLStenden/FPGA/QuartusPrimeProjects/DE2-115_V.1.0.6_SystemCD/DE2_115_demonstrations/DE2_115_SD_Card_Audio_Player_Copy/Software/Audio_Player_test1_bsp/\libhal_bsp.a(alt_irq_vars.o)
 .bss           0x0000000003065c30        0x0 c:/Users/Robin/Documents/NHLStenden/FPGA/QuartusPrimeProjects/DE2-115_V.1.0.6_SystemCD/DE2_115_demonstrations/DE2_115_SD_Card_Audio_Player_Copy/Software/Audio_Player_test1_bsp/\libhal_bsp.a(alt_isatty.o)
 .bss           0x0000000003065c30        0x0 c:/Users/Robin/Documents/NHLStenden/FPGA/QuartusPrimeProjects/DE2-115_V.1.0.6_SystemCD/DE2_115_demonstrations/DE2_115_SD_Card_Audio_Player_Copy/Software/Audio_Player_test1_bsp/\libhal_bsp.a(alt_kill.o)
 .bss           0x0000000003065c30        0x0 c:/Users/Robin/Documents/NHLStenden/FPGA/QuartusPrimeProjects/DE2-115_V.1.0.6_SystemCD/DE2_115_demonstrations/DE2_115_SD_Card_Audio_Player_Copy/Software/Audio_Player_test1_bsp/\libhal_bsp.a(alt_load.o)
 .bss           0x0000000003065c30        0x0 c:/Users/Robin/Documents/NHLStenden/FPGA/QuartusPrimeProjects/DE2-115_V.1.0.6_SystemCD/DE2_115_demonstrations/DE2_115_SD_Card_Audio_Player_Copy/Software/Audio_Player_test1_bsp/\libhal_bsp.a(alt_lseek.o)
 .bss           0x0000000003065c30        0x0 c:/Users/Robin/Documents/NHLStenden/FPGA/QuartusPrimeProjects/DE2-115_V.1.0.6_SystemCD/DE2_115_demonstrations/DE2_115_SD_Card_Audio_Player_Copy/Software/Audio_Player_test1_bsp/\libhal_bsp.a(alt_main.o)
 .bss           0x0000000003065c30        0x0 c:/Users/Robin/Documents/NHLStenden/FPGA/QuartusPrimeProjects/DE2-115_V.1.0.6_SystemCD/DE2_115_demonstrations/DE2_115_SD_Card_Audio_Player_Copy/Software/Audio_Player_test1_bsp/\libhal_bsp.a(alt_malloc_lock.o)
 .bss           0x0000000003065c30        0x0 c:/Users/Robin/Documents/NHLStenden/FPGA/QuartusPrimeProjects/DE2-115_V.1.0.6_SystemCD/DE2_115_demonstrations/DE2_115_SD_Card_Audio_Player_Copy/Software/Audio_Player_test1_bsp/\libhal_bsp.a(alt_open.o)
 .bss           0x0000000003065c30        0x0 c:/Users/Robin/Documents/NHLStenden/FPGA/QuartusPrimeProjects/DE2-115_V.1.0.6_SystemCD/DE2_115_demonstrations/DE2_115_SD_Card_Audio_Player_Copy/Software/Audio_Player_test1_bsp/\libhal_bsp.a(alt_read.o)
 .bss           0x0000000003065c30        0x0 c:/Users/Robin/Documents/NHLStenden/FPGA/QuartusPrimeProjects/DE2-115_V.1.0.6_SystemCD/DE2_115_demonstrations/DE2_115_SD_Card_Audio_Player_Copy/Software/Audio_Player_test1_bsp/\libhal_bsp.a(alt_release_fd.o)
 .bss           0x0000000003065c30        0x0 c:/Users/Robin/Documents/NHLStenden/FPGA/QuartusPrimeProjects/DE2-115_V.1.0.6_SystemCD/DE2_115_demonstrations/DE2_115_SD_Card_Audio_Player_Copy/Software/Audio_Player_test1_bsp/\libhal_bsp.a(alt_sbrk.o)
 .bss           0x0000000003065c30        0x0 c:/Users/Robin/Documents/NHLStenden/FPGA/QuartusPrimeProjects/DE2-115_V.1.0.6_SystemCD/DE2_115_demonstrations/DE2_115_SD_Card_Audio_Player_Copy/Software/Audio_Player_test1_bsp/\libhal_bsp.a(alt_tick.o)
 .bss           0x0000000003065c30        0x0 c:/Users/Robin/Documents/NHLStenden/FPGA/QuartusPrimeProjects/DE2-115_V.1.0.6_SystemCD/DE2_115_demonstrations/DE2_115_SD_Card_Audio_Player_Copy/Software/Audio_Player_test1_bsp/\libhal_bsp.a(alt_usleep.o)
 .bss           0x0000000003065c30        0x0 c:/Users/Robin/Documents/NHLStenden/FPGA/QuartusPrimeProjects/DE2-115_V.1.0.6_SystemCD/DE2_115_demonstrations/DE2_115_SD_Card_Audio_Player_Copy/Software/Audio_Player_test1_bsp/\libhal_bsp.a(alt_write.o)
 .bss           0x0000000003065c30        0x0 c:/Users/Robin/Documents/NHLStenden/FPGA/QuartusPrimeProjects/DE2-115_V.1.0.6_SystemCD/DE2_115_demonstrations/DE2_115_SD_Card_Audio_Player_Copy/Software/Audio_Player_test1_bsp/\libhal_bsp.a(alt_sys_init.o)
 .bss           0x0000000003065c30        0x0 c:/Users/Robin/Documents/NHLStenden/FPGA/QuartusPrimeProjects/DE2-115_V.1.0.6_SystemCD/DE2_115_demonstrations/DE2_115_SD_Card_Audio_Player_Copy/Software/Audio_Player_test1_bsp/\libhal_bsp.a(altera_avalon_cfi_flash.o)
 .bss           0x0000000003065c30        0x0 c:/Users/Robin/Documents/NHLStenden/FPGA/QuartusPrimeProjects/DE2-115_V.1.0.6_SystemCD/DE2_115_demonstrations/DE2_115_SD_Card_Audio_Player_Copy/Software/Audio_Player_test1_bsp/\libhal_bsp.a(altera_avalon_cfi_flash_table.o)
 .bss           0x0000000003065c30        0x0 c:/Users/Robin/Documents/NHLStenden/FPGA/QuartusPrimeProjects/DE2-115_V.1.0.6_SystemCD/DE2_115_demonstrations/DE2_115_SD_Card_Audio_Player_Copy/Software/Audio_Player_test1_bsp/\libhal_bsp.a(altera_avalon_jtag_uart_fd.o)
 .bss           0x0000000003065c30        0x0 c:/Users/Robin/Documents/NHLStenden/FPGA/QuartusPrimeProjects/DE2-115_V.1.0.6_SystemCD/DE2_115_demonstrations/DE2_115_SD_Card_Audio_Player_Copy/Software/Audio_Player_test1_bsp/\libhal_bsp.a(altera_avalon_jtag_uart_init.o)
 .bss           0x0000000003065c30        0x0 c:/Users/Robin/Documents/NHLStenden/FPGA/QuartusPrimeProjects/DE2-115_V.1.0.6_SystemCD/DE2_115_demonstrations/DE2_115_SD_Card_Audio_Player_Copy/Software/Audio_Player_test1_bsp/\libhal_bsp.a(altera_avalon_jtag_uart_ioctl.o)
 .bss           0x0000000003065c30        0x0 c:/Users/Robin/Documents/NHLStenden/FPGA/QuartusPrimeProjects/DE2-115_V.1.0.6_SystemCD/DE2_115_demonstrations/DE2_115_SD_Card_Audio_Player_Copy/Software/Audio_Player_test1_bsp/\libhal_bsp.a(altera_avalon_jtag_uart_read.o)
 .bss           0x0000000003065c30        0x0 c:/Users/Robin/Documents/NHLStenden/FPGA/QuartusPrimeProjects/DE2-115_V.1.0.6_SystemCD/DE2_115_demonstrations/DE2_115_SD_Card_Audio_Player_Copy/Software/Audio_Player_test1_bsp/\libhal_bsp.a(altera_avalon_jtag_uart_write.o)
 .bss           0x0000000003065c30        0x0 c:/Users/Robin/Documents/NHLStenden/FPGA/QuartusPrimeProjects/DE2-115_V.1.0.6_SystemCD/DE2_115_demonstrations/DE2_115_SD_Card_Audio_Player_Copy/Software/Audio_Player_test1_bsp/\libhal_bsp.a(altera_avalon_timer_sc.o)
 .bss           0x0000000003065c30        0x0 c:/Users/Robin/Documents/NHLStenden/FPGA/QuartusPrimeProjects/DE2-115_V.1.0.6_SystemCD/DE2_115_demonstrations/DE2_115_SD_Card_Audio_Player_Copy/Software/Audio_Player_test1_bsp/\libhal_bsp.a(altera_avalon_uart_fd.o)
 .bss           0x0000000003065c30        0x0 c:/Users/Robin/Documents/NHLStenden/FPGA/QuartusPrimeProjects/DE2-115_V.1.0.6_SystemCD/DE2_115_demonstrations/DE2_115_SD_Card_Audio_Player_Copy/Software/Audio_Player_test1_bsp/\libhal_bsp.a(altera_avalon_uart_init.o)
 .bss           0x0000000003065c30        0x0 c:/Users/Robin/Documents/NHLStenden/FPGA/QuartusPrimeProjects/DE2-115_V.1.0.6_SystemCD/DE2_115_demonstrations/DE2_115_SD_Card_Audio_Player_Copy/Software/Audio_Player_test1_bsp/\libhal_bsp.a(altera_avalon_uart_read.o)
 .bss           0x0000000003065c30        0x0 c:/Users/Robin/Documents/NHLStenden/FPGA/QuartusPrimeProjects/DE2-115_V.1.0.6_SystemCD/DE2_115_demonstrations/DE2_115_SD_Card_Audio_Player_Copy/Software/Audio_Player_test1_bsp/\libhal_bsp.a(altera_avalon_uart_write.o)
 .bss           0x0000000003065c30        0x0 c:/Users/Robin/Documents/NHLStenden/FPGA/QuartusPrimeProjects/DE2-115_V.1.0.6_SystemCD/DE2_115_demonstrations/DE2_115_SD_Card_Audio_Player_Copy/Software/Audio_Player_test1_bsp/\libhal_bsp.a(alt_alarm_start.o)
 .bss           0x0000000003065c30        0x0 c:/Users/Robin/Documents/NHLStenden/FPGA/QuartusPrimeProjects/DE2-115_V.1.0.6_SystemCD/DE2_115_demonstrations/DE2_115_SD_Card_Audio_Player_Copy/Software/Audio_Player_test1_bsp/\libhal_bsp.a(alt_busy_sleep.o)
 .bss           0x0000000003065c30        0x0 c:/Users/Robin/Documents/NHLStenden/FPGA/QuartusPrimeProjects/DE2-115_V.1.0.6_SystemCD/DE2_115_demonstrations/DE2_115_SD_Card_Audio_Player_Copy/Software/Audio_Player_test1_bsp/\libhal_bsp.a(alt_dcache_flush.o)
 .bss           0x0000000003065c30        0x0 c:/Users/Robin/Documents/NHLStenden/FPGA/QuartusPrimeProjects/DE2-115_V.1.0.6_SystemCD/DE2_115_demonstrations/DE2_115_SD_Card_Audio_Player_Copy/Software/Audio_Player_test1_bsp/\libhal_bsp.a(alt_dcache_flush_all.o)
 .bss           0x0000000003065c30        0x0 c:/Users/Robin/Documents/NHLStenden/FPGA/QuartusPrimeProjects/DE2-115_V.1.0.6_SystemCD/DE2_115_demonstrations/DE2_115_SD_Card_Audio_Player_Copy/Software/Audio_Player_test1_bsp/\libhal_bsp.a(alt_dev_llist_insert.o)
 .bss           0x0000000003065c30        0x0 c:/Users/Robin/Documents/NHLStenden/FPGA/QuartusPrimeProjects/DE2-115_V.1.0.6_SystemCD/DE2_115_demonstrations/DE2_115_SD_Card_Audio_Player_Copy/Software/Audio_Player_test1_bsp/\libhal_bsp.a(alt_do_ctors.o)
 .bss           0x0000000003065c30        0x0 c:/Users/Robin/Documents/NHLStenden/FPGA/QuartusPrimeProjects/DE2-115_V.1.0.6_SystemCD/DE2_115_demonstrations/DE2_115_SD_Card_Audio_Player_Copy/Software/Audio_Player_test1_bsp/\libhal_bsp.a(alt_do_dtors.o)
 .bss           0x0000000003065c30        0x0 c:/Users/Robin/Documents/NHLStenden/FPGA/QuartusPrimeProjects/DE2-115_V.1.0.6_SystemCD/DE2_115_demonstrations/DE2_115_SD_Card_Audio_Player_Copy/Software/Audio_Player_test1_bsp/\libhal_bsp.a(alt_find_dev.o)
 .bss           0x0000000003065c30        0x0 c:/Users/Robin/Documents/NHLStenden/FPGA/QuartusPrimeProjects/DE2-115_V.1.0.6_SystemCD/DE2_115_demonstrations/DE2_115_SD_Card_Audio_Player_Copy/Software/Audio_Player_test1_bsp/\libhal_bsp.a(alt_find_file.o)
 .bss           0x0000000003065c30        0x0 c:/Users/Robin/Documents/NHLStenden/FPGA/QuartusPrimeProjects/DE2-115_V.1.0.6_SystemCD/DE2_115_demonstrations/DE2_115_SD_Card_Audio_Player_Copy/Software/Audio_Player_test1_bsp/\libhal_bsp.a(alt_flash_dev.o)
 .bss           0x0000000003065c30        0x0 c:/Users/Robin/Documents/NHLStenden/FPGA/QuartusPrimeProjects/DE2-115_V.1.0.6_SystemCD/DE2_115_demonstrations/DE2_115_SD_Card_Audio_Player_Copy/Software/Audio_Player_test1_bsp/\libhal_bsp.a(alt_get_fd.o)
 .bss           0x0000000003065c30        0x0 c:/Users/Robin/Documents/NHLStenden/FPGA/QuartusPrimeProjects/DE2-115_V.1.0.6_SystemCD/DE2_115_demonstrations/DE2_115_SD_Card_Audio_Player_Copy/Software/Audio_Player_test1_bsp/\libhal_bsp.a(alt_icache_flush_all.o)
 .bss           0x0000000003065c30        0x0 c:/Users/Robin/Documents/NHLStenden/FPGA/QuartusPrimeProjects/DE2-115_V.1.0.6_SystemCD/DE2_115_demonstrations/DE2_115_SD_Card_Audio_Player_Copy/Software/Audio_Player_test1_bsp/\libhal_bsp.a(alt_iic.o)
 .bss           0x0000000003065c30        0x0 c:/Users/Robin/Documents/NHLStenden/FPGA/QuartusPrimeProjects/DE2-115_V.1.0.6_SystemCD/DE2_115_demonstrations/DE2_115_SD_Card_Audio_Player_Copy/Software/Audio_Player_test1_bsp/\libhal_bsp.a(alt_iic_isr_register.o)
 .bss           0x0000000003065c30        0x0 c:/Users/Robin/Documents/NHLStenden/FPGA/QuartusPrimeProjects/DE2-115_V.1.0.6_SystemCD/DE2_115_demonstrations/DE2_115_SD_Card_Audio_Player_Copy/Software/Audio_Player_test1_bsp/\libhal_bsp.a(alt_io_redirect.o)
 .bss           0x0000000003065c30        0x0 c:/Users/Robin/Documents/NHLStenden/FPGA/QuartusPrimeProjects/DE2-115_V.1.0.6_SystemCD/DE2_115_demonstrations/DE2_115_SD_Card_Audio_Player_Copy/Software/Audio_Player_test1_bsp/\libhal_bsp.a(alt_irq_entry.o)
 .bss           0x0000000003065c30      0x100 c:/Users/Robin/Documents/NHLStenden/FPGA/QuartusPrimeProjects/DE2-115_V.1.0.6_SystemCD/DE2_115_demonstrations/DE2_115_SD_Card_Audio_Player_Copy/Software/Audio_Player_test1_bsp/\libhal_bsp.a(alt_irq_handler.o)
                0x0000000003065c30                alt_irq
 .bss           0x0000000003065d30        0x0 c:/Users/Robin/Documents/NHLStenden/FPGA/QuartusPrimeProjects/DE2-115_V.1.0.6_SystemCD/DE2_115_demonstrations/DE2_115_SD_Card_Audio_Player_Copy/Software/Audio_Player_test1_bsp/\libhal_bsp.a(altera_nios2_irq.o)
 .bss           0x0000000003065d30        0x0 c:/Users/Robin/Documents/NHLStenden/FPGA/QuartusPrimeProjects/DE2-115_V.1.0.6_SystemCD/DE2_115_demonstrations/DE2_115_SD_Card_Audio_Player_Copy/Software/Audio_Player_test1_bsp/\libhal_bsp.a(altera_avalon_cfi_flash_amd.o)
 .bss           0x0000000003065d30        0x0 c:/Users/Robin/Documents/NHLStenden/FPGA/QuartusPrimeProjects/DE2-115_V.1.0.6_SystemCD/DE2_115_demonstrations/DE2_115_SD_Card_Audio_Player_Copy/Software/Audio_Player_test1_bsp/\libhal_bsp.a(altera_avalon_cfi_flash_intel.o)
 .bss           0x0000000003065d30        0x0 c:/Users/Robin/Documents/NHLStenden/FPGA/QuartusPrimeProjects/DE2-115_V.1.0.6_SystemCD/DE2_115_demonstrations/DE2_115_SD_Card_Audio_Player_Copy/Software/Audio_Player_test1_bsp/\libhal_bsp.a(alt_exception_entry.o)
 .bss           0x0000000003065d30        0x0 c:/Users/Robin/Documents/NHLStenden/FPGA/QuartusPrimeProjects/DE2-115_V.1.0.6_SystemCD/DE2_115_demonstrations/DE2_115_SD_Card_Audio_Player_Copy/Software/Audio_Player_test1_bsp/\libhal_bsp.a(alt_icache_flush.o)
 .bss           0x0000000003065d30        0x0 c:/intelfpga_lite/21.1/nios2eds/bin/gnu/h-x86_64-mingw32/bin/../lib/gcc/nios2-elf/10.3.1/../../../../../H-x86_64-mingw32/nios2-elf/lib\libc.a(lib_a-atexit.o)
 .bss           0x0000000003065d30        0x0 c:/intelfpga_lite/21.1/nios2eds/bin/gnu/h-x86_64-mingw32/bin/../lib/gcc/nios2-elf/10.3.1/../../../../../H-x86_64-mingw32/nios2-elf/lib\libc.a(lib_a-exit.o)
 .bss           0x0000000003065d30        0x0 c:/intelfpga_lite/21.1/nios2eds/bin/gnu/h-x86_64-mingw32/bin/../lib/gcc/nios2-elf/10.3.1/../../../../../H-x86_64-mingw32/nios2-elf/lib\libc.a(lib_a-memcmp.o)
 .bss           0x0000000003065d30        0x0 c:/intelfpga_lite/21.1/nios2eds/bin/gnu/h-x86_64-mingw32/bin/../lib/gcc/nios2-elf/10.3.1/../../../../../H-x86_64-mingw32/nios2-elf/lib\libc.a(lib_a-__atexit.o)
 .bss           0x0000000003065d30        0x0 c:/intelfpga_lite/21.1/nios2eds/bin/gnu/h-x86_64-mingw32/bin/../lib/gcc/nios2-elf/10.3.1/../../../../../H-x86_64-mingw32/nios2-elf/lib\libc.a(lib_a-__call_atexit.o)
 *(COMMON)
                0x0000000003065d30                . = ALIGN (0x4)
                0x0000000003065d30                __bss_end = ABSOLUTE (.)

.cfi_flash      0x0000000002800000        0x0 load address 0x0000000003065d30
                [!provide]                        PROVIDE (_alt_partition_cfi_flash_start = ABSOLUTE (.))
 *(.cfi_flash .cfi_flash. cfi_flash.*)
                0x0000000002800000                . = ALIGN (0x4)
                [!provide]                        PROVIDE (_alt_partition_cfi_flash_end = ABSOLUTE (.))
                [!provide]                        PROVIDE (_alt_partition_cfi_flash_load_addr = LOADADDR (.cfi_flash))

.onchip_memory2
                0x0000000003065d30        0x0
                [!provide]                        PROVIDE (_alt_partition_onchip_memory2_start = ABSOLUTE (.))
 *(.onchip_memory2 .onchip_memory2. onchip_memory2.*)
                0x0000000003065d30                . = ALIGN (0x4)
                [!provide]                        PROVIDE (_alt_partition_onchip_memory2_end = ABSOLUTE (.))
                0x0000000003065d30                _end = ABSOLUTE (.)
                0x0000000003065d30                end = ABSOLUTE (.)
                0x0000000003065d30                __alt_stack_base = ABSOLUTE (.)
                [!provide]                        PROVIDE (_alt_partition_onchip_memory2_load_addr = LOADADDR (.onchip_memory2))

.stab
 *(.stab)

.stabstr
 *(.stabstr)

.stab.excl
 *(.stab.excl)

.stab.exclstr
 *(.stab.exclstr)

.stab.index
 *(.stab.index)

.stab.indexstr
 *(.stab.indexstr)

.comment        0x0000000000000000       0x2d
 *(.comment)
 .comment       0x0000000000000000       0x2d obj/default/AUDIO.o
                                         0x2e (size before relaxing)
 .comment       0x000000000000002d       0x2e obj/default/FatFileSystem.o
 .comment       0x000000000000002d       0x2e obj/default/FatInternal.o
 .comment       0x000000000000002d       0x2e obj/default/I2C.o
 .comment       0x000000000000002d       0x2e obj/default/LCD.o
 .comment       0x000000000000002d       0x2e obj/default/LED.o
 .comment       0x000000000000002d       0x2e obj/default/SEG7.o
 .comment       0x000000000000002d       0x2e obj/default/WaveLib.o
 .comment       0x000000000000002d       0x2e obj/default/crc16.o
 .comment       0x000000000000002d       0x2e obj/default/crc7.o
 .comment       0x000000000000002d       0x2e obj/default/debug.o
 .comment       0x000000000000002d       0x2e obj/default/hello_world.o
 .comment       0x000000000000002d       0x2e obj/default/sd_hal.o
 .comment       0x000000000000002d       0x2e obj/default/sd_lib.o
 .comment       0x000000000000002d       0x2e obj/default/sd_protocol.o
 .comment       0x000000000000002d       0x2e c:/intelfpga_lite/21.1/nios2eds/bin/gnu/h-x86_64-mingw32/bin/../lib/gcc/nios2-elf/10.3.1\libgcc.a(lib2-divmod.o)
 .comment       0x000000000000002d       0x2e c:/intelfpga_lite/21.1/nios2eds/bin/gnu/h-x86_64-mingw32/bin/../lib/gcc/nios2-elf/10.3.1\libgcc.a(divsf3.o)
 .comment       0x000000000000002d       0x2e c:/intelfpga_lite/21.1/nios2eds/bin/gnu/h-x86_64-mingw32/bin/../lib/gcc/nios2-elf/10.3.1\libgcc.a(mulsf3.o)
 .comment       0x000000000000002d       0x2e c:/intelfpga_lite/21.1/nios2eds/bin/gnu/h-x86_64-mingw32/bin/../lib/gcc/nios2-elf/10.3.1\libgcc.a(floatunsisf.o)
 .comment       0x000000000000002d       0x2e c:/intelfpga_lite/21.1/nios2eds/bin/gnu/h-x86_64-mingw32/bin/../lib/gcc/nios2-elf/10.3.1\libgcc.a(divdf3.o)
 .comment       0x000000000000002d       0x2e c:/intelfpga_lite/21.1/nios2eds/bin/gnu/h-x86_64-mingw32/bin/../lib/gcc/nios2-elf/10.3.1\libgcc.a(extendsfdf2.o)
 .comment       0x000000000000002d       0x2e c:/intelfpga_lite/21.1/nios2eds/bin/gnu/h-x86_64-mingw32/bin/../lib/gcc/nios2-elf/10.3.1\libgcc.a(truncdfsf2.o)
 .comment       0x000000000000002d       0x2e c:/intelfpga_lite/21.1/nios2eds/bin/gnu/h-x86_64-mingw32/bin/../lib/gcc/nios2-elf/10.3.1\libgcc.a(_clzsi2.o)
 .comment       0x000000000000002d       0x2e c:/intelfpga_lite/21.1/nios2eds/bin/gnu/h-x86_64-mingw32/bin/../lib/gcc/nios2-elf/10.3.1\libgcc.a(_clz.o)
 .comment       0x000000000000002d       0x2e c:/intelfpga_lite/21.1/nios2eds/bin/gnu/h-x86_64-mingw32/bin/../lib/gcc/nios2-elf/10.3.1/../../../../../H-x86_64-mingw32/nios2-elf/lib\libc.a(lib_a-fclose.o)
 .comment       0x000000000000002d       0x2e c:/intelfpga_lite/21.1/nios2eds/bin/gnu/h-x86_64-mingw32/bin/../lib/gcc/nios2-elf/10.3.1/../../../../../H-x86_64-mingw32/nios2-elf/lib\libc.a(lib_a-fflush.o)
 .comment       0x000000000000002d       0x2e c:/intelfpga_lite/21.1/nios2eds/bin/gnu/h-x86_64-mingw32/bin/../lib/gcc/nios2-elf/10.3.1/../../../../../H-x86_64-mingw32/nios2-elf/lib\libc.a(lib_a-findfp.o)
 .comment       0x000000000000002d       0x2e c:/intelfpga_lite/21.1/nios2eds/bin/gnu/h-x86_64-mingw32/bin/../lib/gcc/nios2-elf/10.3.1/../../../../../H-x86_64-mingw32/nios2-elf/lib\libc.a(lib_a-fopen.o)
 .comment       0x000000000000002d       0x2e c:/intelfpga_lite/21.1/nios2eds/bin/gnu/h-x86_64-mingw32/bin/../lib/gcc/nios2-elf/10.3.1/../../../../../H-x86_64-mingw32/nios2-elf/lib\libc.a(lib_a-freer.o)
 .comment       0x000000000000002d       0x2e c:/intelfpga_lite/21.1/nios2eds/bin/gnu/h-x86_64-mingw32/bin/../lib/gcc/nios2-elf/10.3.1/../../../../../H-x86_64-mingw32/nios2-elf/lib\libc.a(lib_a-fseek.o)
 .comment       0x000000000000002d       0x2e c:/intelfpga_lite/21.1/nios2eds/bin/gnu/h-x86_64-mingw32/bin/../lib/gcc/nios2-elf/10.3.1/../../../../../H-x86_64-mingw32/nios2-elf/lib\libc.a(lib_a-fseeko.o)
 .comment       0x000000000000002d       0x2e c:/intelfpga_lite/21.1/nios2eds/bin/gnu/h-x86_64-mingw32/bin/../lib/gcc/nios2-elf/10.3.1/../../../../../H-x86_64-mingw32/nios2-elf/lib\libc.a(lib_a-fstatr.o)
 .comment       0x000000000000002d       0x2e c:/intelfpga_lite/21.1/nios2eds/bin/gnu/h-x86_64-mingw32/bin/../lib/gcc/nios2-elf/10.3.1/../../../../../H-x86_64-mingw32/nios2-elf/lib\libc.a(lib_a-fwalk.o)
 .comment       0x000000000000002d       0x2e c:/intelfpga_lite/21.1/nios2eds/bin/gnu/h-x86_64-mingw32/bin/../lib/gcc/nios2-elf/10.3.1/../../../../../H-x86_64-mingw32/nios2-elf/lib\libc.a(lib_a-fwrite.o)
 .comment       0x000000000000002d       0x2e c:/intelfpga_lite/21.1/nios2eds/bin/gnu/h-x86_64-mingw32/bin/../lib/gcc/nios2-elf/10.3.1/../../../../../H-x86_64-mingw32/nios2-elf/lib\libc.a(lib_a-impure.o)
 .comment       0x000000000000002d       0x2e c:/intelfpga_lite/21.1/nios2eds/bin/gnu/h-x86_64-mingw32/bin/../lib/gcc/nios2-elf/10.3.1/../../../../../H-x86_64-mingw32/nios2-elf/lib\libc.a(lib_a-int_errno.o)
 .comment       0x000000000000002d       0x2e c:/intelfpga_lite/21.1/nios2eds/bin/gnu/h-x86_64-mingw32/bin/../lib/gcc/nios2-elf/10.3.1/../../../../../H-x86_64-mingw32/nios2-elf/lib\libc.a(lib_a-makebuf.o)
 .comment       0x000000000000002d       0x2e c:/intelfpga_lite/21.1/nios2eds/bin/gnu/h-x86_64-mingw32/bin/../lib/gcc/nios2-elf/10.3.1/../../../../../H-x86_64-mingw32/nios2-elf/lib\libc.a(lib_a-malloc.o)
 .comment       0x000000000000002d       0x2e c:/intelfpga_lite/21.1/nios2eds/bin/gnu/h-x86_64-mingw32/bin/../lib/gcc/nios2-elf/10.3.1/../../../../../H-x86_64-mingw32/nios2-elf/lib\libc.a(lib_a-mallocr.o)
 .comment       0x000000000000002d       0x2e c:/intelfpga_lite/21.1/nios2eds/bin/gnu/h-x86_64-mingw32/bin/../lib/gcc/nios2-elf/10.3.1/../../../../../H-x86_64-mingw32/nios2-elf/lib\libc.a(lib_a-memcpy.o)
 .comment       0x000000000000002d       0x2e c:/intelfpga_lite/21.1/nios2eds/bin/gnu/h-x86_64-mingw32/bin/../lib/gcc/nios2-elf/10.3.1/../../../../../H-x86_64-mingw32/nios2-elf/lib\libc.a(lib_a-memset.o)
 .comment       0x000000000000002d       0x2e c:/intelfpga_lite/21.1/nios2eds/bin/gnu/h-x86_64-mingw32/bin/../lib/gcc/nios2-elf/10.3.1/../../../../../H-x86_64-mingw32/nios2-elf/lib\libc.a(lib_a-openr.o)
 .comment       0x000000000000002d       0x2e c:/intelfpga_lite/21.1/nios2eds/bin/gnu/h-x86_64-mingw32/bin/../lib/gcc/nios2-elf/10.3.1/../../../../../H-x86_64-mingw32/nios2-elf/lib\libc.a(lib_a-printf.o)
 .comment       0x000000000000002d       0x2e c:/intelfpga_lite/21.1/nios2eds/bin/gnu/h-x86_64-mingw32/bin/../lib/gcc/nios2-elf/10.3.1/../../../../../H-x86_64-mingw32/nios2-elf/lib\libc.a(lib_a-putchar.o)
 .comment       0x000000000000002d       0x2e c:/intelfpga_lite/21.1/nios2eds/bin/gnu/h-x86_64-mingw32/bin/../lib/gcc/nios2-elf/10.3.1/../../../../../H-x86_64-mingw32/nios2-elf/lib\libc.a(lib_a-puts.o)
 .comment       0x000000000000002d       0x2e c:/intelfpga_lite/21.1/nios2eds/bin/gnu/h-x86_64-mingw32/bin/../lib/gcc/nios2-elf/10.3.1/../../../../../H-x86_64-mingw32/nios2-elf/lib\libc.a(lib_a-refill.o)
 .comment       0x000000000000002d       0x2e c:/intelfpga_lite/21.1/nios2eds/bin/gnu/h-x86_64-mingw32/bin/../lib/gcc/nios2-elf/10.3.1/../../../../../H-x86_64-mingw32/nios2-elf/lib\libc.a(lib_a-sbrkr.o)
 .comment       0x000000000000002d       0x2e c:/intelfpga_lite/21.1/nios2eds/bin/gnu/h-x86_64-mingw32/bin/../lib/gcc/nios2-elf/10.3.1/../../../../../H-x86_64-mingw32/nios2-elf/lib\libc.a(lib_a-sprintf.o)
 .comment       0x000000000000002d       0x2e c:/intelfpga_lite/21.1/nios2eds/bin/gnu/h-x86_64-mingw32/bin/../lib/gcc/nios2-elf/10.3.1/../../../../../H-x86_64-mingw32/nios2-elf/lib\libc.a(lib_a-stdio.o)
 .comment       0x000000000000002d       0x2e c:/intelfpga_lite/21.1/nios2eds/bin/gnu/h-x86_64-mingw32/bin/../lib/gcc/nios2-elf/10.3.1/../../../../../H-x86_64-mingw32/nios2-elf/lib\libc.a(lib_a-strcmp.o)
 .comment       0x000000000000002d       0x2e c:/intelfpga_lite/21.1/nios2eds/bin/gnu/h-x86_64-mingw32/bin/../lib/gcc/nios2-elf/10.3.1/../../../../../H-x86_64-mingw32/nios2-elf/lib\libc.a(lib_a-strcpy.o)
 .comment       0x000000000000002d       0x2e c:/intelfpga_lite/21.1/nios2eds/bin/gnu/h-x86_64-mingw32/bin/../lib/gcc/nios2-elf/10.3.1/../../../../../H-x86_64-mingw32/nios2-elf/lib\libc.a(lib_a-strlen.o)
 .comment       0x000000000000002d       0x2e c:/intelfpga_lite/21.1/nios2eds/bin/gnu/h-x86_64-mingw32/bin/../lib/gcc/nios2-elf/10.3.1/../../../../../H-x86_64-mingw32/nios2-elf/lib\libc.a(lib_a-svfprintf.o)
 .comment       0x000000000000002d       0x2e c:/intelfpga_lite/21.1/nios2eds/bin/gnu/h-x86_64-mingw32/bin/../lib/gcc/nios2-elf/10.3.1/../../../../../H-x86_64-mingw32/nios2-elf/lib\libc.a(lib_a-vfprintf.o)
 .comment       0x000000000000002d       0x2e c:/intelfpga_lite/21.1/nios2eds/bin/gnu/h-x86_64-mingw32/bin/../lib/gcc/nios2-elf/10.3.1/../../../../../H-x86_64-mingw32/nios2-elf/lib\libc.a(lib_a-vsnprintf.o)
 .comment       0x000000000000002d       0x2e c:/intelfpga_lite/21.1/nios2eds/bin/gnu/h-x86_64-mingw32/bin/../lib/gcc/nios2-elf/10.3.1/../../../../../H-x86_64-mingw32/nios2-elf/lib\libc.a(lib_a-writer.o)
 .comment       0x000000000000002d       0x2e c:/intelfpga_lite/21.1/nios2eds/bin/gnu/h-x86_64-mingw32/bin/../lib/gcc/nios2-elf/10.3.1/../../../../../H-x86_64-mingw32/nios2-elf/lib\libc.a(lib_a-wsetup.o)
 .comment       0x000000000000002d       0x2e c:/intelfpga_lite/21.1/nios2eds/bin/gnu/h-x86_64-mingw32/bin/../lib/gcc/nios2-elf/10.3.1/../../../../../H-x86_64-mingw32/nios2-elf/lib\libc.a(closer.o)
 .comment       0x000000000000002d       0x2e c:/intelfpga_lite/21.1/nios2eds/bin/gnu/h-x86_64-mingw32/bin/../lib/gcc/nios2-elf/10.3.1/../../../../../H-x86_64-mingw32/nios2-elf/lib\libc.a(lib_a-dtoa.o)
 .comment       0x000000000000002d       0x2e c:/intelfpga_lite/21.1/nios2eds/bin/gnu/h-x86_64-mingw32/bin/../lib/gcc/nios2-elf/10.3.1/../../../../../H-x86_64-mingw32/nios2-elf/lib\libc.a(lib_a-flags.o)
 .comment       0x000000000000002d       0x2e c:/intelfpga_lite/21.1/nios2eds/bin/gnu/h-x86_64-mingw32/bin/../lib/gcc/nios2-elf/10.3.1/../../../../../H-x86_64-mingw32/nios2-elf/lib\libc.a(lib_a-fvwrite.o)
 .comment       0x000000000000002d       0x2e c:/intelfpga_lite/21.1/nios2eds/bin/gnu/h-x86_64-mingw32/bin/../lib/gcc/nios2-elf/10.3.1/../../../../../H-x86_64-mingw32/nios2-elf/lib\libc.a(lib_a-isattyr.o)
 .comment       0x000000000000002d       0x2e c:/intelfpga_lite/21.1/nios2eds/bin/gnu/h-x86_64-mingw32/bin/../lib/gcc/nios2-elf/10.3.1/../../../../../H-x86_64-mingw32/nios2-elf/lib\libc.a(lib_a-localeconv.o)
 .comment       0x000000000000002d       0x2e c:/intelfpga_lite/21.1/nios2eds/bin/gnu/h-x86_64-mingw32/bin/../lib/gcc/nios2-elf/10.3.1/../../../../../H-x86_64-mingw32/nios2-elf/lib\libc.a(lib_a-lseekr.o)
 .comment       0x000000000000002d       0x2e c:/intelfpga_lite/21.1/nios2eds/bin/gnu/h-x86_64-mingw32/bin/../lib/gcc/nios2-elf/10.3.1/../../../../../H-x86_64-mingw32/nios2-elf/lib\libc.a(lib_a-memchr.o)
 .comment       0x000000000000002d       0x2e c:/intelfpga_lite/21.1/nios2eds/bin/gnu/h-x86_64-mingw32/bin/../lib/gcc/nios2-elf/10.3.1/../../../../../H-x86_64-mingw32/nios2-elf/lib\libc.a(lib_a-memmove.o)
 .comment       0x000000000000002d       0x2e c:/intelfpga_lite/21.1/nios2eds/bin/gnu/h-x86_64-mingw32/bin/../lib/gcc/nios2-elf/10.3.1/../../../../../H-x86_64-mingw32/nios2-elf/lib\libc.a(lib_a-mprec.o)
 .comment       0x000000000000002d       0x2e c:/intelfpga_lite/21.1/nios2eds/bin/gnu/h-x86_64-mingw32/bin/../lib/gcc/nios2-elf/10.3.1/../../../../../H-x86_64-mingw32/nios2-elf/lib\libc.a(lib_a-putc.o)
 .comment       0x000000000000002d       0x2e c:/intelfpga_lite/21.1/nios2eds/bin/gnu/h-x86_64-mingw32/bin/../lib/gcc/nios2-elf/10.3.1/../../../../../H-x86_64-mingw32/nios2-elf/lib\libc.a(lib_a-readr.o)
 .comment       0x000000000000002d       0x2e c:/intelfpga_lite/21.1/nios2eds/bin/gnu/h-x86_64-mingw32/bin/../lib/gcc/nios2-elf/10.3.1/../../../../../H-x86_64-mingw32/nios2-elf/lib\libc.a(lib_a-reallocr.o)
 .comment       0x000000000000002d       0x2e c:/intelfpga_lite/21.1/nios2eds/bin/gnu/h-x86_64-mingw32/bin/../lib/gcc/nios2-elf/10.3.1/../../../../../H-x86_64-mingw32/nios2-elf/lib\libc.a(lib_a-svfiprintf.o)
 .comment       0x000000000000002d       0x2e c:/intelfpga_lite/21.1/nios2eds/bin/gnu/h-x86_64-mingw32/bin/../lib/gcc/nios2-elf/10.3.1/../../../../../H-x86_64-mingw32/nios2-elf/lib\libc.a(lib_a-vfiprintf.o)
 .comment       0x000000000000002d       0x2e c:/intelfpga_lite/21.1/nios2eds/bin/gnu/h-x86_64-mingw32/bin/../lib/gcc/nios2-elf/10.3.1/../../../../../H-x86_64-mingw32/nios2-elf/lib\libc.a(lib_a-wbuf.o)
 .comment       0x000000000000002d       0x2e c:/intelfpga_lite/21.1/nios2eds/bin/gnu/h-x86_64-mingw32/bin/../lib/gcc/nios2-elf/10.3.1/../../../../../H-x86_64-mingw32/nios2-elf/lib\libc.a(lib_a-assert.o)
 .comment       0x000000000000002d       0x2e c:/intelfpga_lite/21.1/nios2eds/bin/gnu/h-x86_64-mingw32/bin/../lib/gcc/nios2-elf/10.3.1/../../../../../H-x86_64-mingw32/nios2-elf/lib\libc.a(lib_a-callocr.o)
 .comment       0x000000000000002d       0x2e c:/intelfpga_lite/21.1/nios2eds/bin/gnu/h-x86_64-mingw32/bin/../lib/gcc/nios2-elf/10.3.1/../../../../../H-x86_64-mingw32/nios2-elf/lib\libc.a(lib_a-errno.o)
 .comment       0x000000000000002d       0x2e c:/intelfpga_lite/21.1/nios2eds/bin/gnu/h-x86_64-mingw32/bin/../lib/gcc/nios2-elf/10.3.1/../../../../../H-x86_64-mingw32/nios2-elf/lib\libc.a(lib_a-fiprintf.o)
 .comment       0x000000000000002d       0x2e c:/intelfpga_lite/21.1/nios2eds/bin/gnu/h-x86_64-mingw32/bin/../lib/gcc/nios2-elf/10.3.1/../../../../../H-x86_64-mingw32/nios2-elf/lib\libc.a(lib_a-fputwc.o)
 .comment       0x000000000000002d       0x2e c:/intelfpga_lite/21.1/nios2eds/bin/gnu/h-x86_64-mingw32/bin/../lib/gcc/nios2-elf/10.3.1/../../../../../H-x86_64-mingw32/nios2-elf/lib\libc.a(lib_a-locale.o)
 .comment       0x000000000000002d       0x2e c:/intelfpga_lite/21.1/nios2eds/bin/gnu/h-x86_64-mingw32/bin/../lib/gcc/nios2-elf/10.3.1/../../../../../H-x86_64-mingw32/nios2-elf/lib\libc.a(lib_a-mbtowc_r.o)
 .comment       0x000000000000002d       0x2e c:/intelfpga_lite/21.1/nios2eds/bin/gnu/h-x86_64-mingw32/bin/../lib/gcc/nios2-elf/10.3.1/../../../../../H-x86_64-mingw32/nios2-elf/lib\libc.a(lib_a-vfiprintfr_1.o)
 .comment       0x000000000000002d       0x2e c:/intelfpga_lite/21.1/nios2eds/bin/gnu/h-x86_64-mingw32/bin/../lib/gcc/nios2-elf/10.3.1/../../../../../H-x86_64-mingw32/nios2-elf/lib\libc.a(lib_a-wcrtomb.o)
 .comment       0x000000000000002d       0x2e c:/intelfpga_lite/21.1/nios2eds/bin/gnu/h-x86_64-mingw32/bin/../lib/gcc/nios2-elf/10.3.1/../../../../../H-x86_64-mingw32/nios2-elf/lib\libc.a(lib_a-wctomb_r.o)
 .comment       0x000000000000002d       0x2e c:/intelfpga_lite/21.1/nios2eds/bin/gnu/h-x86_64-mingw32/bin/../lib/gcc/nios2-elf/10.3.1/../../../../../H-x86_64-mingw32/nios2-elf/lib\libc.a(lib_a-abort.o)
 .comment       0x000000000000002d       0x2e c:/intelfpga_lite/21.1/nios2eds/bin/gnu/h-x86_64-mingw32/bin/../lib/gcc/nios2-elf/10.3.1/../../../../../H-x86_64-mingw32/nios2-elf/lib\libc.a(lib_a-ctype_.o)
 .comment       0x000000000000002d       0x2e c:/intelfpga_lite/21.1/nios2eds/bin/gnu/h-x86_64-mingw32/bin/../lib/gcc/nios2-elf/10.3.1/../../../../../H-x86_64-mingw32/nios2-elf/lib\libc.a(lib_a-signal.o)
 .comment       0x000000000000002d       0x2e c:/intelfpga_lite/21.1/nios2eds/bin/gnu/h-x86_64-mingw32/bin/../lib/gcc/nios2-elf/10.3.1/../../../../../H-x86_64-mingw32/nios2-elf/lib\libc.a(lib_a-signalr.o)
 .comment       0x000000000000002d       0x2e c:/intelfpga_lite/21.1/nios2eds/bin/gnu/h-x86_64-mingw32/bin/../lib/gcc/nios2-elf/10.3.1\libgcc.a(_udivdi3.o)
 .comment       0x000000000000002d       0x2e c:/intelfpga_lite/21.1/nios2eds/bin/gnu/h-x86_64-mingw32/bin/../lib/gcc/nios2-elf/10.3.1\libgcc.a(_umoddi3.o)
 .comment       0x000000000000002d       0x2e c:/intelfpga_lite/21.1/nios2eds/bin/gnu/h-x86_64-mingw32/bin/../lib/gcc/nios2-elf/10.3.1\libgcc.a(adddf3.o)
 .comment       0x000000000000002d       0x2e c:/intelfpga_lite/21.1/nios2eds/bin/gnu/h-x86_64-mingw32/bin/../lib/gcc/nios2-elf/10.3.1\libgcc.a(eqdf2.o)
 .comment       0x000000000000002d       0x2e c:/intelfpga_lite/21.1/nios2eds/bin/gnu/h-x86_64-mingw32/bin/../lib/gcc/nios2-elf/10.3.1\libgcc.a(gedf2.o)
 .comment       0x000000000000002d       0x2e c:/intelfpga_lite/21.1/nios2eds/bin/gnu/h-x86_64-mingw32/bin/../lib/gcc/nios2-elf/10.3.1\libgcc.a(ledf2.o)
 .comment       0x000000000000002d       0x2e c:/intelfpga_lite/21.1/nios2eds/bin/gnu/h-x86_64-mingw32/bin/../lib/gcc/nios2-elf/10.3.1\libgcc.a(muldf3.o)
 .comment       0x000000000000002d       0x2e c:/intelfpga_lite/21.1/nios2eds/bin/gnu/h-x86_64-mingw32/bin/../lib/gcc/nios2-elf/10.3.1\libgcc.a(subdf3.o)
 .comment       0x000000000000002d       0x2e c:/intelfpga_lite/21.1/nios2eds/bin/gnu/h-x86_64-mingw32/bin/../lib/gcc/nios2-elf/10.3.1\libgcc.a(unorddf2.o)
 .comment       0x000000000000002d       0x2e c:/intelfpga_lite/21.1/nios2eds/bin/gnu/h-x86_64-mingw32/bin/../lib/gcc/nios2-elf/10.3.1\libgcc.a(fixdfsi.o)
 .comment       0x000000000000002d       0x2e c:/intelfpga_lite/21.1/nios2eds/bin/gnu/h-x86_64-mingw32/bin/../lib/gcc/nios2-elf/10.3.1\libgcc.a(floatsidf.o)
 .comment       0x000000000000002d       0x2e c:/intelfpga_lite/21.1/nios2eds/bin/gnu/h-x86_64-mingw32/bin/../lib/gcc/nios2-elf/10.3.1\libgcc.a(floatunsidf.o)
 .comment       0x000000000000002d       0x2e c:/Users/Robin/Documents/NHLStenden/FPGA/QuartusPrimeProjects/DE2-115_V.1.0.6_SystemCD/DE2_115_demonstrations/DE2_115_SD_Card_Audio_Player_Copy/Software/Audio_Player_test1_bsp/\libhal_bsp.a(alt_close.o)
 .comment       0x000000000000002d       0x2e c:/Users/Robin/Documents/NHLStenden/FPGA/QuartusPrimeProjects/DE2-115_V.1.0.6_SystemCD/DE2_115_demonstrations/DE2_115_SD_Card_Audio_Player_Copy/Software/Audio_Player_test1_bsp/\libhal_bsp.a(alt_dev.o)
 .comment       0x000000000000002d       0x2e c:/Users/Robin/Documents/NHLStenden/FPGA/QuartusPrimeProjects/DE2-115_V.1.0.6_SystemCD/DE2_115_demonstrations/DE2_115_SD_Card_Audio_Player_Copy/Software/Audio_Player_test1_bsp/\libhal_bsp.a(alt_errno.o)
 .comment       0x000000000000002d       0x2e c:/Users/Robin/Documents/NHLStenden/FPGA/QuartusPrimeProjects/DE2-115_V.1.0.6_SystemCD/DE2_115_demonstrations/DE2_115_SD_Card_Audio_Player_Copy/Software/Audio_Player_test1_bsp/\libhal_bsp.a(alt_exit.o)
 .comment       0x000000000000002d       0x2e c:/Users/Robin/Documents/NHLStenden/FPGA/QuartusPrimeProjects/DE2-115_V.1.0.6_SystemCD/DE2_115_demonstrations/DE2_115_SD_Card_Audio_Player_Copy/Software/Audio_Player_test1_bsp/\libhal_bsp.a(alt_fstat.o)
 .comment       0x000000000000002d       0x2e c:/Users/Robin/Documents/NHLStenden/FPGA/QuartusPrimeProjects/DE2-115_V.1.0.6_SystemCD/DE2_115_demonstrations/DE2_115_SD_Card_Audio_Player_Copy/Software/Audio_Player_test1_bsp/\libhal_bsp.a(alt_getpid.o)
 .comment       0x000000000000002d       0x2e c:/Users/Robin/Documents/NHLStenden/FPGA/QuartusPrimeProjects/DE2-115_V.1.0.6_SystemCD/DE2_115_demonstrations/DE2_115_SD_Card_Audio_Player_Copy/Software/Audio_Player_test1_bsp/\libhal_bsp.a(alt_irq_register.o)
 .comment       0x000000000000002d       0x2e c:/Users/Robin/Documents/NHLStenden/FPGA/QuartusPrimeProjects/DE2-115_V.1.0.6_SystemCD/DE2_115_demonstrations/DE2_115_SD_Card_Audio_Player_Copy/Software/Audio_Player_test1_bsp/\libhal_bsp.a(alt_irq_vars.o)
 .comment       0x000000000000002d       0x2e c:/Users/Robin/Documents/NHLStenden/FPGA/QuartusPrimeProjects/DE2-115_V.1.0.6_SystemCD/DE2_115_demonstrations/DE2_115_SD_Card_Audio_Player_Copy/Software/Audio_Player_test1_bsp/\libhal_bsp.a(alt_isatty.o)
 .comment       0x000000000000002d       0x2e c:/Users/Robin/Documents/NHLStenden/FPGA/QuartusPrimeProjects/DE2-115_V.1.0.6_SystemCD/DE2_115_demonstrations/DE2_115_SD_Card_Audio_Player_Copy/Software/Audio_Player_test1_bsp/\libhal_bsp.a(alt_kill.o)
 .comment       0x000000000000002d       0x2e c:/Users/Robin/Documents/NHLStenden/FPGA/QuartusPrimeProjects/DE2-115_V.1.0.6_SystemCD/DE2_115_demonstrations/DE2_115_SD_Card_Audio_Player_Copy/Software/Audio_Player_test1_bsp/\libhal_bsp.a(alt_load.o)
 .comment       0x000000000000002d       0x2e c:/Users/Robin/Documents/NHLStenden/FPGA/QuartusPrimeProjects/DE2-115_V.1.0.6_SystemCD/DE2_115_demonstrations/DE2_115_SD_Card_Audio_Player_Copy/Software/Audio_Player_test1_bsp/\libhal_bsp.a(alt_lseek.o)
 .comment       0x000000000000002d       0x2e c:/Users/Robin/Documents/NHLStenden/FPGA/QuartusPrimeProjects/DE2-115_V.1.0.6_SystemCD/DE2_115_demonstrations/DE2_115_SD_Card_Audio_Player_Copy/Software/Audio_Player_test1_bsp/\libhal_bsp.a(alt_main.o)
 .comment       0x000000000000002d       0x2e c:/Users/Robin/Documents/NHLStenden/FPGA/QuartusPrimeProjects/DE2-115_V.1.0.6_SystemCD/DE2_115_demonstrations/DE2_115_SD_Card_Audio_Player_Copy/Software/Audio_Player_test1_bsp/\libhal_bsp.a(alt_malloc_lock.o)
 .comment       0x000000000000002d       0x2e c:/Users/Robin/Documents/NHLStenden/FPGA/QuartusPrimeProjects/DE2-115_V.1.0.6_SystemCD/DE2_115_demonstrations/DE2_115_SD_Card_Audio_Player_Copy/Software/Audio_Player_test1_bsp/\libhal_bsp.a(alt_open.o)
 .comment       0x000000000000002d       0x2e c:/Users/Robin/Documents/NHLStenden/FPGA/QuartusPrimeProjects/DE2-115_V.1.0.6_SystemCD/DE2_115_demonstrations/DE2_115_SD_Card_Audio_Player_Copy/Software/Audio_Player_test1_bsp/\libhal_bsp.a(alt_read.o)
 .comment       0x000000000000002d       0x2e c:/Users/Robin/Documents/NHLStenden/FPGA/QuartusPrimeProjects/DE2-115_V.1.0.6_SystemCD/DE2_115_demonstrations/DE2_115_SD_Card_Audio_Player_Copy/Software/Audio_Player_test1_bsp/\libhal_bsp.a(alt_release_fd.o)
 .comment       0x000000000000002d       0x2e c:/Users/Robin/Documents/NHLStenden/FPGA/QuartusPrimeProjects/DE2-115_V.1.0.6_SystemCD/DE2_115_demonstrations/DE2_115_SD_Card_Audio_Player_Copy/Software/Audio_Player_test1_bsp/\libhal_bsp.a(alt_sbrk.o)
 .comment       0x000000000000002d       0x2e c:/Users/Robin/Documents/NHLStenden/FPGA/QuartusPrimeProjects/DE2-115_V.1.0.6_SystemCD/DE2_115_demonstrations/DE2_115_SD_Card_Audio_Player_Copy/Software/Audio_Player_test1_bsp/\libhal_bsp.a(alt_tick.o)
 .comment       0x000000000000002d       0x2e c:/Users/Robin/Documents/NHLStenden/FPGA/QuartusPrimeProjects/DE2-115_V.1.0.6_SystemCD/DE2_115_demonstrations/DE2_115_SD_Card_Audio_Player_Copy/Software/Audio_Player_test1_bsp/\libhal_bsp.a(alt_usleep.o)
 .comment       0x000000000000002d       0x2e c:/Users/Robin/Documents/NHLStenden/FPGA/QuartusPrimeProjects/DE2-115_V.1.0.6_SystemCD/DE2_115_demonstrations/DE2_115_SD_Card_Audio_Player_Copy/Software/Audio_Player_test1_bsp/\libhal_bsp.a(alt_write.o)
 .comment       0x000000000000002d       0x2e c:/Users/Robin/Documents/NHLStenden/FPGA/QuartusPrimeProjects/DE2-115_V.1.0.6_SystemCD/DE2_115_demonstrations/DE2_115_SD_Card_Audio_Player_Copy/Software/Audio_Player_test1_bsp/\libhal_bsp.a(alt_sys_init.o)
 .comment       0x000000000000002d       0x2e c:/Users/Robin/Documents/NHLStenden/FPGA/QuartusPrimeProjects/DE2-115_V.1.0.6_SystemCD/DE2_115_demonstrations/DE2_115_SD_Card_Audio_Player_Copy/Software/Audio_Player_test1_bsp/\libhal_bsp.a(altera_avalon_cfi_flash.o)
 .comment       0x000000000000002d       0x2e c:/Users/Robin/Documents/NHLStenden/FPGA/QuartusPrimeProjects/DE2-115_V.1.0.6_SystemCD/DE2_115_demonstrations/DE2_115_SD_Card_Audio_Player_Copy/Software/Audio_Player_test1_bsp/\libhal_bsp.a(altera_avalon_cfi_flash_table.o)
 .comment       0x000000000000002d       0x2e c:/Users/Robin/Documents/NHLStenden/FPGA/QuartusPrimeProjects/DE2-115_V.1.0.6_SystemCD/DE2_115_demonstrations/DE2_115_SD_Card_Audio_Player_Copy/Software/Audio_Player_test1_bsp/\libhal_bsp.a(altera_avalon_jtag_uart_fd.o)
 .comment       0x000000000000002d       0x2e c:/Users/Robin/Documents/NHLStenden/FPGA/QuartusPrimeProjects/DE2-115_V.1.0.6_SystemCD/DE2_115_demonstrations/DE2_115_SD_Card_Audio_Player_Copy/Software/Audio_Player_test1_bsp/\libhal_bsp.a(altera_avalon_jtag_uart_init.o)
 .comment       0x000000000000002d       0x2e c:/Users/Robin/Documents/NHLStenden/FPGA/QuartusPrimeProjects/DE2-115_V.1.0.6_SystemCD/DE2_115_demonstrations/DE2_115_SD_Card_Audio_Player_Copy/Software/Audio_Player_test1_bsp/\libhal_bsp.a(altera_avalon_jtag_uart_ioctl.o)
 .comment       0x000000000000002d       0x2e c:/Users/Robin/Documents/NHLStenden/FPGA/QuartusPrimeProjects/DE2-115_V.1.0.6_SystemCD/DE2_115_demonstrations/DE2_115_SD_Card_Audio_Player_Copy/Software/Audio_Player_test1_bsp/\libhal_bsp.a(altera_avalon_jtag_uart_read.o)
 .comment       0x000000000000002d       0x2e c:/Users/Robin/Documents/NHLStenden/FPGA/QuartusPrimeProjects/DE2-115_V.1.0.6_SystemCD/DE2_115_demonstrations/DE2_115_SD_Card_Audio_Player_Copy/Software/Audio_Player_test1_bsp/\libhal_bsp.a(altera_avalon_jtag_uart_write.o)
 .comment       0x000000000000002d       0x2e c:/Users/Robin/Documents/NHLStenden/FPGA/QuartusPrimeProjects/DE2-115_V.1.0.6_SystemCD/DE2_115_demonstrations/DE2_115_SD_Card_Audio_Player_Copy/Software/Audio_Player_test1_bsp/\libhal_bsp.a(altera_avalon_timer_sc.o)
 .comment       0x000000000000002d       0x2e c:/Users/Robin/Documents/NHLStenden/FPGA/QuartusPrimeProjects/DE2-115_V.1.0.6_SystemCD/DE2_115_demonstrations/DE2_115_SD_Card_Audio_Player_Copy/Software/Audio_Player_test1_bsp/\libhal_bsp.a(altera_avalon_uart_fd.o)
 .comment       0x000000000000002d       0x2e c:/Users/Robin/Documents/NHLStenden/FPGA/QuartusPrimeProjects/DE2-115_V.1.0.6_SystemCD/DE2_115_demonstrations/DE2_115_SD_Card_Audio_Player_Copy/Software/Audio_Player_test1_bsp/\libhal_bsp.a(altera_avalon_uart_init.o)
 .comment       0x000000000000002d       0x2e c:/Users/Robin/Documents/NHLStenden/FPGA/QuartusPrimeProjects/DE2-115_V.1.0.6_SystemCD/DE2_115_demonstrations/DE2_115_SD_Card_Audio_Player_Copy/Software/Audio_Player_test1_bsp/\libhal_bsp.a(altera_avalon_uart_read.o)
 .comment       0x000000000000002d       0x2e c:/Users/Robin/Documents/NHLStenden/FPGA/QuartusPrimeProjects/DE2-115_V.1.0.6_SystemCD/DE2_115_demonstrations/DE2_115_SD_Card_Audio_Player_Copy/Software/Audio_Player_test1_bsp/\libhal_bsp.a(altera_avalon_uart_write.o)
 .comment       0x000000000000002d       0x2e c:/Users/Robin/Documents/NHLStenden/FPGA/QuartusPrimeProjects/DE2-115_V.1.0.6_SystemCD/DE2_115_demonstrations/DE2_115_SD_Card_Audio_Player_Copy/Software/Audio_Player_test1_bsp/\libhal_bsp.a(alt_alarm_start.o)
 .comment       0x000000000000002d       0x2e c:/Users/Robin/Documents/NHLStenden/FPGA/QuartusPrimeProjects/DE2-115_V.1.0.6_SystemCD/DE2_115_demonstrations/DE2_115_SD_Card_Audio_Player_Copy/Software/Audio_Player_test1_bsp/\libhal_bsp.a(alt_busy_sleep.o)
 .comment       0x000000000000002d       0x2e c:/Users/Robin/Documents/NHLStenden/FPGA/QuartusPrimeProjects/DE2-115_V.1.0.6_SystemCD/DE2_115_demonstrations/DE2_115_SD_Card_Audio_Player_Copy/Software/Audio_Player_test1_bsp/\libhal_bsp.a(alt_dcache_flush.o)
 .comment       0x000000000000002d       0x2e c:/Users/Robin/Documents/NHLStenden/FPGA/QuartusPrimeProjects/DE2-115_V.1.0.6_SystemCD/DE2_115_demonstrations/DE2_115_SD_Card_Audio_Player_Copy/Software/Audio_Player_test1_bsp/\libhal_bsp.a(alt_dcache_flush_all.o)
 .comment       0x000000000000002d       0x2e c:/Users/Robin/Documents/NHLStenden/FPGA/QuartusPrimeProjects/DE2-115_V.1.0.6_SystemCD/DE2_115_demonstrations/DE2_115_SD_Card_Audio_Player_Copy/Software/Audio_Player_test1_bsp/\libhal_bsp.a(alt_dev_llist_insert.o)
 .comment       0x000000000000002d       0x2e c:/Users/Robin/Documents/NHLStenden/FPGA/QuartusPrimeProjects/DE2-115_V.1.0.6_SystemCD/DE2_115_demonstrations/DE2_115_SD_Card_Audio_Player_Copy/Software/Audio_Player_test1_bsp/\libhal_bsp.a(alt_do_ctors.o)
 .comment       0x000000000000002d       0x2e c:/Users/Robin/Documents/NHLStenden/FPGA/QuartusPrimeProjects/DE2-115_V.1.0.6_SystemCD/DE2_115_demonstrations/DE2_115_SD_Card_Audio_Player_Copy/Software/Audio_Player_test1_bsp/\libhal_bsp.a(alt_do_dtors.o)
 .comment       0x000000000000002d       0x2e c:/Users/Robin/Documents/NHLStenden/FPGA/QuartusPrimeProjects/DE2-115_V.1.0.6_SystemCD/DE2_115_demonstrations/DE2_115_SD_Card_Audio_Player_Copy/Software/Audio_Player_test1_bsp/\libhal_bsp.a(alt_find_dev.o)
 .comment       0x000000000000002d       0x2e c:/Users/Robin/Documents/NHLStenden/FPGA/QuartusPrimeProjects/DE2-115_V.1.0.6_SystemCD/DE2_115_demonstrations/DE2_115_SD_Card_Audio_Player_Copy/Software/Audio_Player_test1_bsp/\libhal_bsp.a(alt_find_file.o)
 .comment       0x000000000000002d       0x2e c:/Users/Robin/Documents/NHLStenden/FPGA/QuartusPrimeProjects/DE2-115_V.1.0.6_SystemCD/DE2_115_demonstrations/DE2_115_SD_Card_Audio_Player_Copy/Software/Audio_Player_test1_bsp/\libhal_bsp.a(alt_flash_dev.o)
 .comment       0x000000000000002d       0x2e c:/Users/Robin/Documents/NHLStenden/FPGA/QuartusPrimeProjects/DE2-115_V.1.0.6_SystemCD/DE2_115_demonstrations/DE2_115_SD_Card_Audio_Player_Copy/Software/Audio_Player_test1_bsp/\libhal_bsp.a(alt_get_fd.o)
 .comment       0x000000000000002d       0x2e c:/Users/Robin/Documents/NHLStenden/FPGA/QuartusPrimeProjects/DE2-115_V.1.0.6_SystemCD/DE2_115_demonstrations/DE2_115_SD_Card_Audio_Player_Copy/Software/Audio_Player_test1_bsp/\libhal_bsp.a(alt_icache_flush_all.o)
 .comment       0x000000000000002d       0x2e c:/Users/Robin/Documents/NHLStenden/FPGA/QuartusPrimeProjects/DE2-115_V.1.0.6_SystemCD/DE2_115_demonstrations/DE2_115_SD_Card_Audio_Player_Copy/Software/Audio_Player_test1_bsp/\libhal_bsp.a(alt_iic.o)
 .comment       0x000000000000002d       0x2e c:/Users/Robin/Documents/NHLStenden/FPGA/QuartusPrimeProjects/DE2-115_V.1.0.6_SystemCD/DE2_115_demonstrations/DE2_115_SD_Card_Audio_Player_Copy/Software/Audio_Player_test1_bsp/\libhal_bsp.a(alt_iic_isr_register.o)
 .comment       0x000000000000002d       0x2e c:/Users/Robin/Documents/NHLStenden/FPGA/QuartusPrimeProjects/DE2-115_V.1.0.6_SystemCD/DE2_115_demonstrations/DE2_115_SD_Card_Audio_Player_Copy/Software/Audio_Player_test1_bsp/\libhal_bsp.a(alt_io_redirect.o)
 .comment       0x000000000000002d       0x2e c:/Users/Robin/Documents/NHLStenden/FPGA/QuartusPrimeProjects/DE2-115_V.1.0.6_SystemCD/DE2_115_demonstrations/DE2_115_SD_Card_Audio_Player_Copy/Software/Audio_Player_test1_bsp/\libhal_bsp.a(alt_irq_handler.o)
 .comment       0x000000000000002d       0x2e c:/Users/Robin/Documents/NHLStenden/FPGA/QuartusPrimeProjects/DE2-115_V.1.0.6_SystemCD/DE2_115_demonstrations/DE2_115_SD_Card_Audio_Player_Copy/Software/Audio_Player_test1_bsp/\libhal_bsp.a(altera_nios2_irq.o)
 .comment       0x000000000000002d       0x2e c:/Users/Robin/Documents/NHLStenden/FPGA/QuartusPrimeProjects/DE2-115_V.1.0.6_SystemCD/DE2_115_demonstrations/DE2_115_SD_Card_Audio_Player_Copy/Software/Audio_Player_test1_bsp/\libhal_bsp.a(altera_avalon_cfi_flash_amd.o)
 .comment       0x000000000000002d       0x2e c:/Users/Robin/Documents/NHLStenden/FPGA/QuartusPrimeProjects/DE2-115_V.1.0.6_SystemCD/DE2_115_demonstrations/DE2_115_SD_Card_Audio_Player_Copy/Software/Audio_Player_test1_bsp/\libhal_bsp.a(altera_avalon_cfi_flash_intel.o)
 .comment       0x000000000000002d       0x2e c:/Users/Robin/Documents/NHLStenden/FPGA/QuartusPrimeProjects/DE2-115_V.1.0.6_SystemCD/DE2_115_demonstrations/DE2_115_SD_Card_Audio_Player_Copy/Software/Audio_Player_test1_bsp/\libhal_bsp.a(alt_icache_flush.o)
 .comment       0x000000000000002d       0x2e c:/intelfpga_lite/21.1/nios2eds/bin/gnu/h-x86_64-mingw32/bin/../lib/gcc/nios2-elf/10.3.1/../../../../../H-x86_64-mingw32/nios2-elf/lib\libc.a(lib_a-atexit.o)
 .comment       0x000000000000002d       0x2e c:/intelfpga_lite/21.1/nios2eds/bin/gnu/h-x86_64-mingw32/bin/../lib/gcc/nios2-elf/10.3.1/../../../../../H-x86_64-mingw32/nios2-elf/lib\libc.a(lib_a-exit.o)
 .comment       0x000000000000002d       0x2e c:/intelfpga_lite/21.1/nios2eds/bin/gnu/h-x86_64-mingw32/bin/../lib/gcc/nios2-elf/10.3.1/../../../../../H-x86_64-mingw32/nios2-elf/lib\libc.a(lib_a-memcmp.o)
 .comment       0x000000000000002d       0x2e c:/intelfpga_lite/21.1/nios2eds/bin/gnu/h-x86_64-mingw32/bin/../lib/gcc/nios2-elf/10.3.1/../../../../../H-x86_64-mingw32/nios2-elf/lib\libc.a(lib_a-__atexit.o)
 .comment       0x000000000000002d       0x2e c:/intelfpga_lite/21.1/nios2eds/bin/gnu/h-x86_64-mingw32/bin/../lib/gcc/nios2-elf/10.3.1/../../../../../H-x86_64-mingw32/nios2-elf/lib\libc.a(lib_a-__call_atexit.o)

.debug
 *(.debug)

.line
 *(.line)

.debug_srcinfo
 *(.debug_srcinfo)

.debug_sfnames
 *(.debug_sfnames)

.debug_aranges  0x0000000000000000     0x1690
 *(.debug_aranges)
 .debug_aranges
                0x0000000000000000       0x28 c:/Users/Robin/Documents/NHLStenden/FPGA/QuartusPrimeProjects/DE2-115_V.1.0.6_SystemCD/DE2_115_demonstrations/DE2_115_SD_Card_Audio_Player_Copy/Software/Audio_Player_test1_bsp//obj/HAL/src/crt0.o
 .debug_aranges
                0x0000000000000028       0x20 obj/default/AUDIO.o
 .debug_aranges
                0x0000000000000048       0x20 obj/default/FatFileSystem.o
 .debug_aranges
                0x0000000000000068       0x20 obj/default/FatInternal.o
 .debug_aranges
                0x0000000000000088       0x20 obj/default/I2C.o
 .debug_aranges
                0x00000000000000a8       0x20 obj/default/LCD.o
 .debug_aranges
                0x00000000000000c8       0x20 obj/default/LED.o
 .debug_aranges
                0x00000000000000e8       0x20 obj/default/SEG7.o
 .debug_aranges
                0x0000000000000108       0x20 obj/default/WaveLib.o
 .debug_aranges
                0x0000000000000128       0x20 obj/default/crc16.o
 .debug_aranges
                0x0000000000000148       0x20 obj/default/crc7.o
 .debug_aranges
                0x0000000000000168       0x20 obj/default/debug.o
 .debug_aranges
                0x0000000000000188       0x20 obj/default/hello_world.o
 .debug_aranges
                0x00000000000001a8       0x20 obj/default/sd_hal.o
 .debug_aranges
                0x00000000000001c8       0x20 obj/default/sd_lib.o
 .debug_aranges
                0x00000000000001e8       0x20 obj/default/sd_protocol.o
 .debug_aranges
                0x0000000000000208       0x20 c:/intelfpga_lite/21.1/nios2eds/bin/gnu/h-x86_64-mingw32/bin/../lib/gcc/nios2-elf/10.3.1\libgcc.a(lib2-divmod.o)
 .debug_aranges
                0x0000000000000228       0x20 c:/intelfpga_lite/21.1/nios2eds/bin/gnu/h-x86_64-mingw32/bin/../lib/gcc/nios2-elf/10.3.1\libgcc.a(divsf3.o)
 .debug_aranges
                0x0000000000000248       0x20 c:/intelfpga_lite/21.1/nios2eds/bin/gnu/h-x86_64-mingw32/bin/../lib/gcc/nios2-elf/10.3.1\libgcc.a(mulsf3.o)
 .debug_aranges
                0x0000000000000268       0x20 c:/intelfpga_lite/21.1/nios2eds/bin/gnu/h-x86_64-mingw32/bin/../lib/gcc/nios2-elf/10.3.1\libgcc.a(floatunsisf.o)
 .debug_aranges
                0x0000000000000288       0x20 c:/intelfpga_lite/21.1/nios2eds/bin/gnu/h-x86_64-mingw32/bin/../lib/gcc/nios2-elf/10.3.1\libgcc.a(divdf3.o)
 .debug_aranges
                0x00000000000002a8       0x20 c:/intelfpga_lite/21.1/nios2eds/bin/gnu/h-x86_64-mingw32/bin/../lib/gcc/nios2-elf/10.3.1\libgcc.a(extendsfdf2.o)
 .debug_aranges
                0x00000000000002c8       0x20 c:/intelfpga_lite/21.1/nios2eds/bin/gnu/h-x86_64-mingw32/bin/../lib/gcc/nios2-elf/10.3.1\libgcc.a(truncdfsf2.o)
 .debug_aranges
                0x00000000000002e8       0x20 c:/intelfpga_lite/21.1/nios2eds/bin/gnu/h-x86_64-mingw32/bin/../lib/gcc/nios2-elf/10.3.1\libgcc.a(_clzsi2.o)
 .debug_aranges
                0x0000000000000308       0x18 c:/intelfpga_lite/21.1/nios2eds/bin/gnu/h-x86_64-mingw32/bin/../lib/gcc/nios2-elf/10.3.1\libgcc.a(_clz.o)
 .debug_aranges
                0x0000000000000320       0x30 c:/intelfpga_lite/21.1/nios2eds/bin/gnu/h-x86_64-mingw32/bin/../lib/gcc/nios2-elf/10.3.1/../../../../../H-x86_64-mingw32/nios2-elf/lib\libc.a(lib_a-fclose.o)
 .debug_aranges
                0x0000000000000350       0x30 c:/intelfpga_lite/21.1/nios2eds/bin/gnu/h-x86_64-mingw32/bin/../lib/gcc/nios2-elf/10.3.1/../../../../../H-x86_64-mingw32/nios2-elf/lib\libc.a(lib_a-fflush.o)
 .debug_aranges
                0x0000000000000380       0x68 c:/intelfpga_lite/21.1/nios2eds/bin/gnu/h-x86_64-mingw32/bin/../lib/gcc/nios2-elf/10.3.1/../../../../../H-x86_64-mingw32/nios2-elf/lib\libc.a(lib_a-findfp.o)
 .debug_aranges
                0x00000000000003e8       0x28 c:/intelfpga_lite/21.1/nios2eds/bin/gnu/h-x86_64-mingw32/bin/../lib/gcc/nios2-elf/10.3.1/../../../../../H-x86_64-mingw32/nios2-elf/lib\libc.a(lib_a-fopen.o)
 .debug_aranges
                0x0000000000000410       0x28 c:/intelfpga_lite/21.1/nios2eds/bin/gnu/h-x86_64-mingw32/bin/../lib/gcc/nios2-elf/10.3.1/../../../../../H-x86_64-mingw32/nios2-elf/lib\libc.a(lib_a-freer.o)
 .debug_aranges
                0x0000000000000438       0x28 c:/intelfpga_lite/21.1/nios2eds/bin/gnu/h-x86_64-mingw32/bin/../lib/gcc/nios2-elf/10.3.1/../../../../../H-x86_64-mingw32/nios2-elf/lib\libc.a(lib_a-fseek.o)
 .debug_aranges
                0x0000000000000460       0x28 c:/intelfpga_lite/21.1/nios2eds/bin/gnu/h-x86_64-mingw32/bin/../lib/gcc/nios2-elf/10.3.1/../../../../../H-x86_64-mingw32/nios2-elf/lib\libc.a(lib_a-fseeko.o)
 .debug_aranges
                0x0000000000000488       0x20 c:/intelfpga_lite/21.1/nios2eds/bin/gnu/h-x86_64-mingw32/bin/../lib/gcc/nios2-elf/10.3.1/../../../../../H-x86_64-mingw32/nios2-elf/lib\libc.a(lib_a-fstatr.o)
 .debug_aranges
                0x00000000000004a8       0x28 c:/intelfpga_lite/21.1/nios2eds/bin/gnu/h-x86_64-mingw32/bin/../lib/gcc/nios2-elf/10.3.1/../../../../../H-x86_64-mingw32/nios2-elf/lib\libc.a(lib_a-fwalk.o)
 .debug_aranges
                0x00000000000004d0       0x28 c:/intelfpga_lite/21.1/nios2eds/bin/gnu/h-x86_64-mingw32/bin/../lib/gcc/nios2-elf/10.3.1/../../../../../H-x86_64-mingw32/nios2-elf/lib\libc.a(lib_a-fwrite.o)
 .debug_aranges
                0x00000000000004f8       0x18 c:/intelfpga_lite/21.1/nios2eds/bin/gnu/h-x86_64-mingw32/bin/../lib/gcc/nios2-elf/10.3.1/../../../../../H-x86_64-mingw32/nios2-elf/lib\libc.a(lib_a-impure.o)
 .debug_aranges
                0x0000000000000510       0x18 c:/intelfpga_lite/21.1/nios2eds/bin/gnu/h-x86_64-mingw32/bin/../lib/gcc/nios2-elf/10.3.1/../../../../../H-x86_64-mingw32/nios2-elf/lib\libc.a(lib_a-int_errno.o)
 .debug_aranges
                0x0000000000000528       0x28 c:/intelfpga_lite/21.1/nios2eds/bin/gnu/h-x86_64-mingw32/bin/../lib/gcc/nios2-elf/10.3.1/../../../../../H-x86_64-mingw32/nios2-elf/lib\libc.a(lib_a-makebuf.o)
 .debug_aranges
                0x0000000000000550       0x28 c:/intelfpga_lite/21.1/nios2eds/bin/gnu/h-x86_64-mingw32/bin/../lib/gcc/nios2-elf/10.3.1/../../../../../H-x86_64-mingw32/nios2-elf/lib\libc.a(lib_a-malloc.o)
 .debug_aranges
                0x0000000000000578       0x20 c:/intelfpga_lite/21.1/nios2eds/bin/gnu/h-x86_64-mingw32/bin/../lib/gcc/nios2-elf/10.3.1/../../../../../H-x86_64-mingw32/nios2-elf/lib\libc.a(lib_a-mallocr.o)
 .debug_aranges
                0x0000000000000598       0x20 c:/intelfpga_lite/21.1/nios2eds/bin/gnu/h-x86_64-mingw32/bin/../lib/gcc/nios2-elf/10.3.1/../../../../../H-x86_64-mingw32/nios2-elf/lib\libc.a(lib_a-memcpy.o)
 .debug_aranges
                0x00000000000005b8       0x20 c:/intelfpga_lite/21.1/nios2eds/bin/gnu/h-x86_64-mingw32/bin/../lib/gcc/nios2-elf/10.3.1/../../../../../H-x86_64-mingw32/nios2-elf/lib\libc.a(lib_a-memset.o)
 .debug_aranges
                0x00000000000005d8       0x20 c:/intelfpga_lite/21.1/nios2eds/bin/gnu/h-x86_64-mingw32/bin/../lib/gcc/nios2-elf/10.3.1/../../../../../H-x86_64-mingw32/nios2-elf/lib\libc.a(lib_a-openr.o)
 .debug_aranges
                0x00000000000005f8       0x28 c:/intelfpga_lite/21.1/nios2eds/bin/gnu/h-x86_64-mingw32/bin/../lib/gcc/nios2-elf/10.3.1/../../../../../H-x86_64-mingw32/nios2-elf/lib\libc.a(lib_a-printf.o)
 .debug_aranges
                0x0000000000000620       0x28 c:/intelfpga_lite/21.1/nios2eds/bin/gnu/h-x86_64-mingw32/bin/../lib/gcc/nios2-elf/10.3.1/../../../../../H-x86_64-mingw32/nios2-elf/lib\libc.a(lib_a-putchar.o)
 .debug_aranges
                0x0000000000000648       0x28 c:/intelfpga_lite/21.1/nios2eds/bin/gnu/h-x86_64-mingw32/bin/../lib/gcc/nios2-elf/10.3.1/../../../../../H-x86_64-mingw32/nios2-elf/lib\libc.a(lib_a-puts.o)
 .debug_aranges
                0x0000000000000670       0x28 c:/intelfpga_lite/21.1/nios2eds/bin/gnu/h-x86_64-mingw32/bin/../lib/gcc/nios2-elf/10.3.1/../../../../../H-x86_64-mingw32/nios2-elf/lib\libc.a(lib_a-refill.o)
 .debug_aranges
                0x0000000000000698       0x20 c:/intelfpga_lite/21.1/nios2eds/bin/gnu/h-x86_64-mingw32/bin/../lib/gcc/nios2-elf/10.3.1/../../../../../H-x86_64-mingw32/nios2-elf/lib\libc.a(lib_a-sbrkr.o)
 .debug_aranges
                0x00000000000006b8       0x28 c:/intelfpga_lite/21.1/nios2eds/bin/gnu/h-x86_64-mingw32/bin/../lib/gcc/nios2-elf/10.3.1/../../../../../H-x86_64-mingw32/nios2-elf/lib\libc.a(lib_a-sprintf.o)
 .debug_aranges
                0x00000000000006e0       0x40 c:/intelfpga_lite/21.1/nios2eds/bin/gnu/h-x86_64-mingw32/bin/../lib/gcc/nios2-elf/10.3.1/../../../../../H-x86_64-mingw32/nios2-elf/lib\libc.a(lib_a-stdio.o)
 .debug_aranges
                0x0000000000000720       0x20 c:/intelfpga_lite/21.1/nios2eds/bin/gnu/h-x86_64-mingw32/bin/../lib/gcc/nios2-elf/10.3.1/../../../../../H-x86_64-mingw32/nios2-elf/lib\libc.a(lib_a-strcmp.o)
 .debug_aranges
                0x0000000000000740       0x20 c:/intelfpga_lite/21.1/nios2eds/bin/gnu/h-x86_64-mingw32/bin/../lib/gcc/nios2-elf/10.3.1/../../../../../H-x86_64-mingw32/nios2-elf/lib\libc.a(lib_a-strcpy.o)
 .debug_aranges
                0x0000000000000760       0x20 c:/intelfpga_lite/21.1/nios2eds/bin/gnu/h-x86_64-mingw32/bin/../lib/gcc/nios2-elf/10.3.1/../../../../../H-x86_64-mingw32/nios2-elf/lib\libc.a(lib_a-strlen.o)
 .debug_aranges
                0x0000000000000780       0x20 c:/intelfpga_lite/21.1/nios2eds/bin/gnu/h-x86_64-mingw32/bin/../lib/gcc/nios2-elf/10.3.1/../../../../../H-x86_64-mingw32/nios2-elf/lib\libc.a(lib_a-svfprintf.o)
 .debug_aranges
                0x00000000000007a0       0x30 c:/intelfpga_lite/21.1/nios2eds/bin/gnu/h-x86_64-mingw32/bin/../lib/gcc/nios2-elf/10.3.1/../../../../../H-x86_64-mingw32/nios2-elf/lib\libc.a(lib_a-vfprintf.o)
 .debug_aranges
                0x00000000000007d0       0x28 c:/intelfpga_lite/21.1/nios2eds/bin/gnu/h-x86_64-mingw32/bin/../lib/gcc/nios2-elf/10.3.1/../../../../../H-x86_64-mingw32/nios2-elf/lib\libc.a(lib_a-vsnprintf.o)
 .debug_aranges
                0x00000000000007f8       0x20 c:/intelfpga_lite/21.1/nios2eds/bin/gnu/h-x86_64-mingw32/bin/../lib/gcc/nios2-elf/10.3.1/../../../../../H-x86_64-mingw32/nios2-elf/lib\libc.a(lib_a-writer.o)
 .debug_aranges
                0x0000000000000818       0x20 c:/intelfpga_lite/21.1/nios2eds/bin/gnu/h-x86_64-mingw32/bin/../lib/gcc/nios2-elf/10.3.1/../../../../../H-x86_64-mingw32/nios2-elf/lib\libc.a(lib_a-wsetup.o)
 .debug_aranges
                0x0000000000000838       0x20 c:/intelfpga_lite/21.1/nios2eds/bin/gnu/h-x86_64-mingw32/bin/../lib/gcc/nios2-elf/10.3.1/../../../../../H-x86_64-mingw32/nios2-elf/lib\libc.a(closer.o)
 .debug_aranges
                0x0000000000000858       0x28 c:/intelfpga_lite/21.1/nios2eds/bin/gnu/h-x86_64-mingw32/bin/../lib/gcc/nios2-elf/10.3.1/../../../../../H-x86_64-mingw32/nios2-elf/lib\libc.a(lib_a-dtoa.o)
 .debug_aranges
                0x0000000000000880       0x20 c:/intelfpga_lite/21.1/nios2eds/bin/gnu/h-x86_64-mingw32/bin/../lib/gcc/nios2-elf/10.3.1/../../../../../H-x86_64-mingw32/nios2-elf/lib\libc.a(lib_a-flags.o)
 .debug_aranges
                0x00000000000008a0       0x20 c:/intelfpga_lite/21.1/nios2eds/bin/gnu/h-x86_64-mingw32/bin/../lib/gcc/nios2-elf/10.3.1/../../../../../H-x86_64-mingw32/nios2-elf/lib\libc.a(lib_a-fvwrite.o)
 .debug_aranges
                0x00000000000008c0       0x20 c:/intelfpga_lite/21.1/nios2eds/bin/gnu/h-x86_64-mingw32/bin/../lib/gcc/nios2-elf/10.3.1/../../../../../H-x86_64-mingw32/nios2-elf/lib\libc.a(lib_a-isattyr.o)
 .debug_aranges
                0x00000000000008e0       0x30 c:/intelfpga_lite/21.1/nios2eds/bin/gnu/h-x86_64-mingw32/bin/../lib/gcc/nios2-elf/10.3.1/../../../../../H-x86_64-mingw32/nios2-elf/lib\libc.a(lib_a-localeconv.o)
 .debug_aranges
                0x0000000000000910       0x20 c:/intelfpga_lite/21.1/nios2eds/bin/gnu/h-x86_64-mingw32/bin/../lib/gcc/nios2-elf/10.3.1/../../../../../H-x86_64-mingw32/nios2-elf/lib\libc.a(lib_a-lseekr.o)
 .debug_aranges
                0x0000000000000930       0x20 c:/intelfpga_lite/21.1/nios2eds/bin/gnu/h-x86_64-mingw32/bin/../lib/gcc/nios2-elf/10.3.1/../../../../../H-x86_64-mingw32/nios2-elf/lib\libc.a(lib_a-memchr.o)
 .debug_aranges
                0x0000000000000950       0x20 c:/intelfpga_lite/21.1/nios2eds/bin/gnu/h-x86_64-mingw32/bin/../lib/gcc/nios2-elf/10.3.1/../../../../../H-x86_64-mingw32/nios2-elf/lib\libc.a(lib_a-memmove.o)
 .debug_aranges
                0x0000000000000970       0xb0 c:/intelfpga_lite/21.1/nios2eds/bin/gnu/h-x86_64-mingw32/bin/../lib/gcc/nios2-elf/10.3.1/../../../../../H-x86_64-mingw32/nios2-elf/lib\libc.a(lib_a-mprec.o)
 .debug_aranges
                0x0000000000000a20       0x28 c:/intelfpga_lite/21.1/nios2eds/bin/gnu/h-x86_64-mingw32/bin/../lib/gcc/nios2-elf/10.3.1/../../../../../H-x86_64-mingw32/nios2-elf/lib\libc.a(lib_a-putc.o)
 .debug_aranges
                0x0000000000000a48       0x20 c:/intelfpga_lite/21.1/nios2eds/bin/gnu/h-x86_64-mingw32/bin/../lib/gcc/nios2-elf/10.3.1/../../../../../H-x86_64-mingw32/nios2-elf/lib\libc.a(lib_a-readr.o)
 .debug_aranges
                0x0000000000000a68       0x20 c:/intelfpga_lite/21.1/nios2eds/bin/gnu/h-x86_64-mingw32/bin/../lib/gcc/nios2-elf/10.3.1/../../../../../H-x86_64-mingw32/nios2-elf/lib\libc.a(lib_a-reallocr.o)
 .debug_aranges
                0x0000000000000a88       0x28 c:/intelfpga_lite/21.1/nios2eds/bin/gnu/h-x86_64-mingw32/bin/../lib/gcc/nios2-elf/10.3.1/../../../../../H-x86_64-mingw32/nios2-elf/lib\libc.a(lib_a-svfiprintf.o)
 .debug_aranges
                0x0000000000000ab0       0x40 c:/intelfpga_lite/21.1/nios2eds/bin/gnu/h-x86_64-mingw32/bin/../lib/gcc/nios2-elf/10.3.1/../../../../../H-x86_64-mingw32/nios2-elf/lib\libc.a(lib_a-vfiprintf.o)
 .debug_aranges
                0x0000000000000af0       0x28 c:/intelfpga_lite/21.1/nios2eds/bin/gnu/h-x86_64-mingw32/bin/../lib/gcc/nios2-elf/10.3.1/../../../../../H-x86_64-mingw32/nios2-elf/lib\libc.a(lib_a-wbuf.o)
 .debug_aranges
                0x0000000000000b18       0x28 c:/intelfpga_lite/21.1/nios2eds/bin/gnu/h-x86_64-mingw32/bin/../lib/gcc/nios2-elf/10.3.1/../../../../../H-x86_64-mingw32/nios2-elf/lib\libc.a(lib_a-assert.o)
 .debug_aranges
                0x0000000000000b40       0x20 c:/intelfpga_lite/21.1/nios2eds/bin/gnu/h-x86_64-mingw32/bin/../lib/gcc/nios2-elf/10.3.1/../../../../../H-x86_64-mingw32/nios2-elf/lib\libc.a(lib_a-callocr.o)
 .debug_aranges
                0x0000000000000b60       0x20 c:/intelfpga_lite/21.1/nios2eds/bin/gnu/h-x86_64-mingw32/bin/../lib/gcc/nios2-elf/10.3.1/../../../../../H-x86_64-mingw32/nios2-elf/lib\libc.a(lib_a-errno.o)
 .debug_aranges
                0x0000000000000b80       0x28 c:/intelfpga_lite/21.1/nios2eds/bin/gnu/h-x86_64-mingw32/bin/../lib/gcc/nios2-elf/10.3.1/../../../../../H-x86_64-mingw32/nios2-elf/lib\libc.a(lib_a-fiprintf.o)
 .debug_aranges
                0x0000000000000ba8       0x30 c:/intelfpga_lite/21.1/nios2eds/bin/gnu/h-x86_64-mingw32/bin/../lib/gcc/nios2-elf/10.3.1/../../../../../H-x86_64-mingw32/nios2-elf/lib\libc.a(lib_a-fputwc.o)
 .debug_aranges
                0x0000000000000bd8       0x30 c:/intelfpga_lite/21.1/nios2eds/bin/gnu/h-x86_64-mingw32/bin/../lib/gcc/nios2-elf/10.3.1/../../../../../H-x86_64-mingw32/nios2-elf/lib\libc.a(lib_a-locale.o)
 .debug_aranges
                0x0000000000000c08       0x28 c:/intelfpga_lite/21.1/nios2eds/bin/gnu/h-x86_64-mingw32/bin/../lib/gcc/nios2-elf/10.3.1/../../../../../H-x86_64-mingw32/nios2-elf/lib\libc.a(lib_a-mbtowc_r.o)
 .debug_aranges
                0x0000000000000c30       0x20 c:/intelfpga_lite/21.1/nios2eds/bin/gnu/h-x86_64-mingw32/bin/../lib/gcc/nios2-elf/10.3.1/../../../../../H-x86_64-mingw32/nios2-elf/lib\libc.a(lib_a-vfiprintfr_1.o)
 .debug_aranges
                0x0000000000000c50       0x28 c:/intelfpga_lite/21.1/nios2eds/bin/gnu/h-x86_64-mingw32/bin/../lib/gcc/nios2-elf/10.3.1/../../../../../H-x86_64-mingw32/nios2-elf/lib\libc.a(lib_a-wcrtomb.o)
 .debug_aranges
                0x0000000000000c78       0x28 c:/intelfpga_lite/21.1/nios2eds/bin/gnu/h-x86_64-mingw32/bin/../lib/gcc/nios2-elf/10.3.1/../../../../../H-x86_64-mingw32/nios2-elf/lib\libc.a(lib_a-wctomb_r.o)
 .debug_aranges
                0x0000000000000ca0       0x20 c:/intelfpga_lite/21.1/nios2eds/bin/gnu/h-x86_64-mingw32/bin/../lib/gcc/nios2-elf/10.3.1/../../../../../H-x86_64-mingw32/nios2-elf/lib\libc.a(lib_a-abort.o)
 .debug_aranges
                0x0000000000000cc0       0x18 c:/intelfpga_lite/21.1/nios2eds/bin/gnu/h-x86_64-mingw32/bin/../lib/gcc/nios2-elf/10.3.1/../../../../../H-x86_64-mingw32/nios2-elf/lib\libc.a(lib_a-ctype_.o)
 .debug_aranges
                0x0000000000000cd8       0x58 c:/intelfpga_lite/21.1/nios2eds/bin/gnu/h-x86_64-mingw32/bin/../lib/gcc/nios2-elf/10.3.1/../../../../../H-x86_64-mingw32/nios2-elf/lib\libc.a(lib_a-signal.o)
 .debug_aranges
                0x0000000000000d30       0x28 c:/intelfpga_lite/21.1/nios2eds/bin/gnu/h-x86_64-mingw32/bin/../lib/gcc/nios2-elf/10.3.1/../../../../../H-x86_64-mingw32/nios2-elf/lib\libc.a(lib_a-signalr.o)
 .debug_aranges
                0x0000000000000d58       0x20 c:/intelfpga_lite/21.1/nios2eds/bin/gnu/h-x86_64-mingw32/bin/../lib/gcc/nios2-elf/10.3.1\libgcc.a(_udivdi3.o)
 .debug_aranges
                0x0000000000000d78       0x20 c:/intelfpga_lite/21.1/nios2eds/bin/gnu/h-x86_64-mingw32/bin/../lib/gcc/nios2-elf/10.3.1\libgcc.a(_umoddi3.o)
 .debug_aranges
                0x0000000000000d98       0x20 c:/intelfpga_lite/21.1/nios2eds/bin/gnu/h-x86_64-mingw32/bin/../lib/gcc/nios2-elf/10.3.1\libgcc.a(adddf3.o)
 .debug_aranges
                0x0000000000000db8       0x20 c:/intelfpga_lite/21.1/nios2eds/bin/gnu/h-x86_64-mingw32/bin/../lib/gcc/nios2-elf/10.3.1\libgcc.a(eqdf2.o)
 .debug_aranges
                0x0000000000000dd8       0x20 c:/intelfpga_lite/21.1/nios2eds/bin/gnu/h-x86_64-mingw32/bin/../lib/gcc/nios2-elf/10.3.1\libgcc.a(gedf2.o)
 .debug_aranges
                0x0000000000000df8       0x20 c:/intelfpga_lite/21.1/nios2eds/bin/gnu/h-x86_64-mingw32/bin/../lib/gcc/nios2-elf/10.3.1\libgcc.a(ledf2.o)
 .debug_aranges
                0x0000000000000e18       0x20 c:/intelfpga_lite/21.1/nios2eds/bin/gnu/h-x86_64-mingw32/bin/../lib/gcc/nios2-elf/10.3.1\libgcc.a(muldf3.o)
 .debug_aranges
                0x0000000000000e38       0x20 c:/intelfpga_lite/21.1/nios2eds/bin/gnu/h-x86_64-mingw32/bin/../lib/gcc/nios2-elf/10.3.1\libgcc.a(subdf3.o)
 .debug_aranges
                0x0000000000000e58       0x20 c:/intelfpga_lite/21.1/nios2eds/bin/gnu/h-x86_64-mingw32/bin/../lib/gcc/nios2-elf/10.3.1\libgcc.a(unorddf2.o)
 .debug_aranges
                0x0000000000000e78       0x20 c:/intelfpga_lite/21.1/nios2eds/bin/gnu/h-x86_64-mingw32/bin/../lib/gcc/nios2-elf/10.3.1\libgcc.a(fixdfsi.o)
 .debug_aranges
                0x0000000000000e98       0x20 c:/intelfpga_lite/21.1/nios2eds/bin/gnu/h-x86_64-mingw32/bin/../lib/gcc/nios2-elf/10.3.1\libgcc.a(floatsidf.o)
 .debug_aranges
                0x0000000000000eb8       0x20 c:/intelfpga_lite/21.1/nios2eds/bin/gnu/h-x86_64-mingw32/bin/../lib/gcc/nios2-elf/10.3.1\libgcc.a(floatunsidf.o)
 .debug_aranges
                0x0000000000000ed8       0x20 c:/Users/Robin/Documents/NHLStenden/FPGA/QuartusPrimeProjects/DE2-115_V.1.0.6_SystemCD/DE2_115_demonstrations/DE2_115_SD_Card_Audio_Player_Copy/Software/Audio_Player_test1_bsp/\libhal_bsp.a(alt_close.o)
 .debug_aranges
                0x0000000000000ef8       0x20 c:/Users/Robin/Documents/NHLStenden/FPGA/QuartusPrimeProjects/DE2-115_V.1.0.6_SystemCD/DE2_115_demonstrations/DE2_115_SD_Card_Audio_Player_Copy/Software/Audio_Player_test1_bsp/\libhal_bsp.a(alt_dev.o)
 .debug_aranges
                0x0000000000000f18       0x18 c:/Users/Robin/Documents/NHLStenden/FPGA/QuartusPrimeProjects/DE2-115_V.1.0.6_SystemCD/DE2_115_demonstrations/DE2_115_SD_Card_Audio_Player_Copy/Software/Audio_Player_test1_bsp/\libhal_bsp.a(alt_errno.o)
 .debug_aranges
                0x0000000000000f30       0x20 c:/Users/Robin/Documents/NHLStenden/FPGA/QuartusPrimeProjects/DE2-115_V.1.0.6_SystemCD/DE2_115_demonstrations/DE2_115_SD_Card_Audio_Player_Copy/Software/Audio_Player_test1_bsp/\libhal_bsp.a(alt_exit.o)
 .debug_aranges
                0x0000000000000f50       0x20 c:/Users/Robin/Documents/NHLStenden/FPGA/QuartusPrimeProjects/DE2-115_V.1.0.6_SystemCD/DE2_115_demonstrations/DE2_115_SD_Card_Audio_Player_Copy/Software/Audio_Player_test1_bsp/\libhal_bsp.a(alt_fstat.o)
 .debug_aranges
                0x0000000000000f70       0x20 c:/Users/Robin/Documents/NHLStenden/FPGA/QuartusPrimeProjects/DE2-115_V.1.0.6_SystemCD/DE2_115_demonstrations/DE2_115_SD_Card_Audio_Player_Copy/Software/Audio_Player_test1_bsp/\libhal_bsp.a(alt_getpid.o)
 .debug_aranges
                0x0000000000000f90       0x20 c:/Users/Robin/Documents/NHLStenden/FPGA/QuartusPrimeProjects/DE2-115_V.1.0.6_SystemCD/DE2_115_demonstrations/DE2_115_SD_Card_Audio_Player_Copy/Software/Audio_Player_test1_bsp/\libhal_bsp.a(alt_irq_register.o)
 .debug_aranges
                0x0000000000000fb0       0x18 c:/Users/Robin/Documents/NHLStenden/FPGA/QuartusPrimeProjects/DE2-115_V.1.0.6_SystemCD/DE2_115_demonstrations/DE2_115_SD_Card_Audio_Player_Copy/Software/Audio_Player_test1_bsp/\libhal_bsp.a(alt_irq_vars.o)
 .debug_aranges
                0x0000000000000fc8       0x20 c:/Users/Robin/Documents/NHLStenden/FPGA/QuartusPrimeProjects/DE2-115_V.1.0.6_SystemCD/DE2_115_demonstrations/DE2_115_SD_Card_Audio_Player_Copy/Software/Audio_Player_test1_bsp/\libhal_bsp.a(alt_isatty.o)
 .debug_aranges
                0x0000000000000fe8       0x20 c:/Users/Robin/Documents/NHLStenden/FPGA/QuartusPrimeProjects/DE2-115_V.1.0.6_SystemCD/DE2_115_demonstrations/DE2_115_SD_Card_Audio_Player_Copy/Software/Audio_Player_test1_bsp/\libhal_bsp.a(alt_kill.o)
 .debug_aranges
                0x0000000000001008       0x20 c:/Users/Robin/Documents/NHLStenden/FPGA/QuartusPrimeProjects/DE2-115_V.1.0.6_SystemCD/DE2_115_demonstrations/DE2_115_SD_Card_Audio_Player_Copy/Software/Audio_Player_test1_bsp/\libhal_bsp.a(alt_load.o)
 .debug_aranges
                0x0000000000001028       0x20 c:/Users/Robin/Documents/NHLStenden/FPGA/QuartusPrimeProjects/DE2-115_V.1.0.6_SystemCD/DE2_115_demonstrations/DE2_115_SD_Card_Audio_Player_Copy/Software/Audio_Player_test1_bsp/\libhal_bsp.a(alt_lseek.o)
 .debug_aranges
                0x0000000000001048       0x20 c:/Users/Robin/Documents/NHLStenden/FPGA/QuartusPrimeProjects/DE2-115_V.1.0.6_SystemCD/DE2_115_demonstrations/DE2_115_SD_Card_Audio_Player_Copy/Software/Audio_Player_test1_bsp/\libhal_bsp.a(alt_main.o)
 .debug_aranges
                0x0000000000001068       0x20 c:/Users/Robin/Documents/NHLStenden/FPGA/QuartusPrimeProjects/DE2-115_V.1.0.6_SystemCD/DE2_115_demonstrations/DE2_115_SD_Card_Audio_Player_Copy/Software/Audio_Player_test1_bsp/\libhal_bsp.a(alt_malloc_lock.o)
 .debug_aranges
                0x0000000000001088       0x20 c:/Users/Robin/Documents/NHLStenden/FPGA/QuartusPrimeProjects/DE2-115_V.1.0.6_SystemCD/DE2_115_demonstrations/DE2_115_SD_Card_Audio_Player_Copy/Software/Audio_Player_test1_bsp/\libhal_bsp.a(alt_open.o)
 .debug_aranges
                0x00000000000010a8       0x20 c:/Users/Robin/Documents/NHLStenden/FPGA/QuartusPrimeProjects/DE2-115_V.1.0.6_SystemCD/DE2_115_demonstrations/DE2_115_SD_Card_Audio_Player_Copy/Software/Audio_Player_test1_bsp/\libhal_bsp.a(alt_read.o)
 .debug_aranges
                0x00000000000010c8       0x20 c:/Users/Robin/Documents/NHLStenden/FPGA/QuartusPrimeProjects/DE2-115_V.1.0.6_SystemCD/DE2_115_demonstrations/DE2_115_SD_Card_Audio_Player_Copy/Software/Audio_Player_test1_bsp/\libhal_bsp.a(alt_release_fd.o)
 .debug_aranges
                0x00000000000010e8       0x20 c:/Users/Robin/Documents/NHLStenden/FPGA/QuartusPrimeProjects/DE2-115_V.1.0.6_SystemCD/DE2_115_demonstrations/DE2_115_SD_Card_Audio_Player_Copy/Software/Audio_Player_test1_bsp/\libhal_bsp.a(alt_sbrk.o)
 .debug_aranges
                0x0000000000001108       0x20 c:/Users/Robin/Documents/NHLStenden/FPGA/QuartusPrimeProjects/DE2-115_V.1.0.6_SystemCD/DE2_115_demonstrations/DE2_115_SD_Card_Audio_Player_Copy/Software/Audio_Player_test1_bsp/\libhal_bsp.a(alt_tick.o)
 .debug_aranges
                0x0000000000001128       0x20 c:/Users/Robin/Documents/NHLStenden/FPGA/QuartusPrimeProjects/DE2-115_V.1.0.6_SystemCD/DE2_115_demonstrations/DE2_115_SD_Card_Audio_Player_Copy/Software/Audio_Player_test1_bsp/\libhal_bsp.a(alt_usleep.o)
 .debug_aranges
                0x0000000000001148       0x20 c:/Users/Robin/Documents/NHLStenden/FPGA/QuartusPrimeProjects/DE2-115_V.1.0.6_SystemCD/DE2_115_demonstrations/DE2_115_SD_Card_Audio_Player_Copy/Software/Audio_Player_test1_bsp/\libhal_bsp.a(alt_write.o)
 .debug_aranges
                0x0000000000001168       0x20 c:/Users/Robin/Documents/NHLStenden/FPGA/QuartusPrimeProjects/DE2-115_V.1.0.6_SystemCD/DE2_115_demonstrations/DE2_115_SD_Card_Audio_Player_Copy/Software/Audio_Player_test1_bsp/\libhal_bsp.a(alt_sys_init.o)
 .debug_aranges
                0x0000000000001188       0x20 c:/Users/Robin/Documents/NHLStenden/FPGA/QuartusPrimeProjects/DE2-115_V.1.0.6_SystemCD/DE2_115_demonstrations/DE2_115_SD_Card_Audio_Player_Copy/Software/Audio_Player_test1_bsp/\libhal_bsp.a(altera_avalon_cfi_flash.o)
 .debug_aranges
                0x00000000000011a8       0x20 c:/Users/Robin/Documents/NHLStenden/FPGA/QuartusPrimeProjects/DE2-115_V.1.0.6_SystemCD/DE2_115_demonstrations/DE2_115_SD_Card_Audio_Player_Copy/Software/Audio_Player_test1_bsp/\libhal_bsp.a(altera_avalon_cfi_flash_table.o)
 .debug_aranges
                0x00000000000011c8       0x20 c:/Users/Robin/Documents/NHLStenden/FPGA/QuartusPrimeProjects/DE2-115_V.1.0.6_SystemCD/DE2_115_demonstrations/DE2_115_SD_Card_Audio_Player_Copy/Software/Audio_Player_test1_bsp/\libhal_bsp.a(altera_avalon_jtag_uart_fd.o)
 .debug_aranges
                0x00000000000011e8       0x20 c:/Users/Robin/Documents/NHLStenden/FPGA/QuartusPrimeProjects/DE2-115_V.1.0.6_SystemCD/DE2_115_demonstrations/DE2_115_SD_Card_Audio_Player_Copy/Software/Audio_Player_test1_bsp/\libhal_bsp.a(altera_avalon_jtag_uart_init.o)
 .debug_aranges
                0x0000000000001208       0x20 c:/Users/Robin/Documents/NHLStenden/FPGA/QuartusPrimeProjects/DE2-115_V.1.0.6_SystemCD/DE2_115_demonstrations/DE2_115_SD_Card_Audio_Player_Copy/Software/Audio_Player_test1_bsp/\libhal_bsp.a(altera_avalon_jtag_uart_ioctl.o)
 .debug_aranges
                0x0000000000001228       0x20 c:/Users/Robin/Documents/NHLStenden/FPGA/QuartusPrimeProjects/DE2-115_V.1.0.6_SystemCD/DE2_115_demonstrations/DE2_115_SD_Card_Audio_Player_Copy/Software/Audio_Player_test1_bsp/\libhal_bsp.a(altera_avalon_jtag_uart_read.o)
 .debug_aranges
                0x0000000000001248       0x20 c:/Users/Robin/Documents/NHLStenden/FPGA/QuartusPrimeProjects/DE2-115_V.1.0.6_SystemCD/DE2_115_demonstrations/DE2_115_SD_Card_Audio_Player_Copy/Software/Audio_Player_test1_bsp/\libhal_bsp.a(altera_avalon_jtag_uart_write.o)
 .debug_aranges
                0x0000000000001268       0x20 c:/Users/Robin/Documents/NHLStenden/FPGA/QuartusPrimeProjects/DE2-115_V.1.0.6_SystemCD/DE2_115_demonstrations/DE2_115_SD_Card_Audio_Player_Copy/Software/Audio_Player_test1_bsp/\libhal_bsp.a(altera_avalon_timer_sc.o)
 .debug_aranges
                0x0000000000001288       0x20 c:/Users/Robin/Documents/NHLStenden/FPGA/QuartusPrimeProjects/DE2-115_V.1.0.6_SystemCD/DE2_115_demonstrations/DE2_115_SD_Card_Audio_Player_Copy/Software/Audio_Player_test1_bsp/\libhal_bsp.a(altera_avalon_uart_fd.o)
 .debug_aranges
                0x00000000000012a8       0x20 c:/Users/Robin/Documents/NHLStenden/FPGA/QuartusPrimeProjects/DE2-115_V.1.0.6_SystemCD/DE2_115_demonstrations/DE2_115_SD_Card_Audio_Player_Copy/Software/Audio_Player_test1_bsp/\libhal_bsp.a(altera_avalon_uart_init.o)
 .debug_aranges
                0x00000000000012c8       0x20 c:/Users/Robin/Documents/NHLStenden/FPGA/QuartusPrimeProjects/DE2-115_V.1.0.6_SystemCD/DE2_115_demonstrations/DE2_115_SD_Card_Audio_Player_Copy/Software/Audio_Player_test1_bsp/\libhal_bsp.a(altera_avalon_uart_read.o)
 .debug_aranges
                0x00000000000012e8       0x20 c:/Users/Robin/Documents/NHLStenden/FPGA/QuartusPrimeProjects/DE2-115_V.1.0.6_SystemCD/DE2_115_demonstrations/DE2_115_SD_Card_Audio_Player_Copy/Software/Audio_Player_test1_bsp/\libhal_bsp.a(altera_avalon_uart_write.o)
 .debug_aranges
                0x0000000000001308       0x20 c:/Users/Robin/Documents/NHLStenden/FPGA/QuartusPrimeProjects/DE2-115_V.1.0.6_SystemCD/DE2_115_demonstrations/DE2_115_SD_Card_Audio_Player_Copy/Software/Audio_Player_test1_bsp/\libhal_bsp.a(alt_alarm_start.o)
 .debug_aranges
                0x0000000000001328       0x20 c:/Users/Robin/Documents/NHLStenden/FPGA/QuartusPrimeProjects/DE2-115_V.1.0.6_SystemCD/DE2_115_demonstrations/DE2_115_SD_Card_Audio_Player_Copy/Software/Audio_Player_test1_bsp/\libhal_bsp.a(alt_busy_sleep.o)
 .debug_aranges
                0x0000000000001348       0x20 c:/Users/Robin/Documents/NHLStenden/FPGA/QuartusPrimeProjects/DE2-115_V.1.0.6_SystemCD/DE2_115_demonstrations/DE2_115_SD_Card_Audio_Player_Copy/Software/Audio_Player_test1_bsp/\libhal_bsp.a(alt_dcache_flush.o)
 .debug_aranges
                0x0000000000001368       0x20 c:/Users/Robin/Documents/NHLStenden/FPGA/QuartusPrimeProjects/DE2-115_V.1.0.6_SystemCD/DE2_115_demonstrations/DE2_115_SD_Card_Audio_Player_Copy/Software/Audio_Player_test1_bsp/\libhal_bsp.a(alt_dcache_flush_all.o)
 .debug_aranges
                0x0000000000001388       0x20 c:/Users/Robin/Documents/NHLStenden/FPGA/QuartusPrimeProjects/DE2-115_V.1.0.6_SystemCD/DE2_115_demonstrations/DE2_115_SD_Card_Audio_Player_Copy/Software/Audio_Player_test1_bsp/\libhal_bsp.a(alt_dev_llist_insert.o)
 .debug_aranges
                0x00000000000013a8       0x20 c:/Users/Robin/Documents/NHLStenden/FPGA/QuartusPrimeProjects/DE2-115_V.1.0.6_SystemCD/DE2_115_demonstrations/DE2_115_SD_Card_Audio_Player_Copy/Software/Audio_Player_test1_bsp/\libhal_bsp.a(alt_do_ctors.o)
 .debug_aranges
                0x00000000000013c8       0x20 c:/Users/Robin/Documents/NHLStenden/FPGA/QuartusPrimeProjects/DE2-115_V.1.0.6_SystemCD/DE2_115_demonstrations/DE2_115_SD_Card_Audio_Player_Copy/Software/Audio_Player_test1_bsp/\libhal_bsp.a(alt_do_dtors.o)
 .debug_aranges
                0x00000000000013e8       0x20 c:/Users/Robin/Documents/NHLStenden/FPGA/QuartusPrimeProjects/DE2-115_V.1.0.6_SystemCD/DE2_115_demonstrations/DE2_115_SD_Card_Audio_Player_Copy/Software/Audio_Player_test1_bsp/\libhal_bsp.a(alt_find_dev.o)
 .debug_aranges
                0x0000000000001408       0x20 c:/Users/Robin/Documents/NHLStenden/FPGA/QuartusPrimeProjects/DE2-115_V.1.0.6_SystemCD/DE2_115_demonstrations/DE2_115_SD_Card_Audio_Player_Copy/Software/Audio_Player_test1_bsp/\libhal_bsp.a(alt_find_file.o)
 .debug_aranges
                0x0000000000001428       0x20 c:/Users/Robin/Documents/NHLStenden/FPGA/QuartusPrimeProjects/DE2-115_V.1.0.6_SystemCD/DE2_115_demonstrations/DE2_115_SD_Card_Audio_Player_Copy/Software/Audio_Player_test1_bsp/\libhal_bsp.a(alt_flash_dev.o)
 .debug_aranges
                0x0000000000001448       0x20 c:/Users/Robin/Documents/NHLStenden/FPGA/QuartusPrimeProjects/DE2-115_V.1.0.6_SystemCD/DE2_115_demonstrations/DE2_115_SD_Card_Audio_Player_Copy/Software/Audio_Player_test1_bsp/\libhal_bsp.a(alt_get_fd.o)
 .debug_aranges
                0x0000000000001468       0x20 c:/Users/Robin/Documents/NHLStenden/FPGA/QuartusPrimeProjects/DE2-115_V.1.0.6_SystemCD/DE2_115_demonstrations/DE2_115_SD_Card_Audio_Player_Copy/Software/Audio_Player_test1_bsp/\libhal_bsp.a(alt_icache_flush_all.o)
 .debug_aranges
                0x0000000000001488       0x20 c:/Users/Robin/Documents/NHLStenden/FPGA/QuartusPrimeProjects/DE2-115_V.1.0.6_SystemCD/DE2_115_demonstrations/DE2_115_SD_Card_Audio_Player_Copy/Software/Audio_Player_test1_bsp/\libhal_bsp.a(alt_iic.o)
 .debug_aranges
                0x00000000000014a8       0x20 c:/Users/Robin/Documents/NHLStenden/FPGA/QuartusPrimeProjects/DE2-115_V.1.0.6_SystemCD/DE2_115_demonstrations/DE2_115_SD_Card_Audio_Player_Copy/Software/Audio_Player_test1_bsp/\libhal_bsp.a(alt_iic_isr_register.o)
 .debug_aranges
                0x00000000000014c8       0x20 c:/Users/Robin/Documents/NHLStenden/FPGA/QuartusPrimeProjects/DE2-115_V.1.0.6_SystemCD/DE2_115_demonstrations/DE2_115_SD_Card_Audio_Player_Copy/Software/Audio_Player_test1_bsp/\libhal_bsp.a(alt_io_redirect.o)
 .debug_aranges
                0x00000000000014e8       0x30 c:/Users/Robin/Documents/NHLStenden/FPGA/QuartusPrimeProjects/DE2-115_V.1.0.6_SystemCD/DE2_115_demonstrations/DE2_115_SD_Card_Audio_Player_Copy/Software/Audio_Player_test1_bsp/\libhal_bsp.a(alt_irq_entry.o)
 .debug_aranges
                0x0000000000001518       0x20 c:/Users/Robin/Documents/NHLStenden/FPGA/QuartusPrimeProjects/DE2-115_V.1.0.6_SystemCD/DE2_115_demonstrations/DE2_115_SD_Card_Audio_Player_Copy/Software/Audio_Player_test1_bsp/\libhal_bsp.a(alt_irq_handler.o)
 .debug_aranges
                0x0000000000001538       0x20 c:/Users/Robin/Documents/NHLStenden/FPGA/QuartusPrimeProjects/DE2-115_V.1.0.6_SystemCD/DE2_115_demonstrations/DE2_115_SD_Card_Audio_Player_Copy/Software/Audio_Player_test1_bsp/\libhal_bsp.a(altera_nios2_irq.o)
 .debug_aranges
                0x0000000000001558       0x20 c:/Users/Robin/Documents/NHLStenden/FPGA/QuartusPrimeProjects/DE2-115_V.1.0.6_SystemCD/DE2_115_demonstrations/DE2_115_SD_Card_Audio_Player_Copy/Software/Audio_Player_test1_bsp/\libhal_bsp.a(altera_avalon_cfi_flash_amd.o)
 .debug_aranges
                0x0000000000001578       0x20 c:/Users/Robin/Documents/NHLStenden/FPGA/QuartusPrimeProjects/DE2-115_V.1.0.6_SystemCD/DE2_115_demonstrations/DE2_115_SD_Card_Audio_Player_Copy/Software/Audio_Player_test1_bsp/\libhal_bsp.a(altera_avalon_cfi_flash_intel.o)
 .debug_aranges
                0x0000000000001598       0x38 c:/Users/Robin/Documents/NHLStenden/FPGA/QuartusPrimeProjects/DE2-115_V.1.0.6_SystemCD/DE2_115_demonstrations/DE2_115_SD_Card_Audio_Player_Copy/Software/Audio_Player_test1_bsp/\libhal_bsp.a(alt_exception_entry.o)
 .debug_aranges
                0x00000000000015d0       0x20 c:/Users/Robin/Documents/NHLStenden/FPGA/QuartusPrimeProjects/DE2-115_V.1.0.6_SystemCD/DE2_115_demonstrations/DE2_115_SD_Card_Audio_Player_Copy/Software/Audio_Player_test1_bsp/\libhal_bsp.a(alt_icache_flush.o)
 .debug_aranges
                0x00000000000015f0       0x20 c:/intelfpga_lite/21.1/nios2eds/bin/gnu/h-x86_64-mingw32/bin/../lib/gcc/nios2-elf/10.3.1/../../../../../H-x86_64-mingw32/nios2-elf/lib\libc.a(lib_a-atexit.o)
 .debug_aranges
                0x0000000000001610       0x20 c:/intelfpga_lite/21.1/nios2eds/bin/gnu/h-x86_64-mingw32/bin/../lib/gcc/nios2-elf/10.3.1/../../../../../H-x86_64-mingw32/nios2-elf/lib\libc.a(lib_a-exit.o)
 .debug_aranges
                0x0000000000001630       0x20 c:/intelfpga_lite/21.1/nios2eds/bin/gnu/h-x86_64-mingw32/bin/../lib/gcc/nios2-elf/10.3.1/../../../../../H-x86_64-mingw32/nios2-elf/lib\libc.a(lib_a-memcmp.o)
 .debug_aranges
                0x0000000000001650       0x20 c:/intelfpga_lite/21.1/nios2eds/bin/gnu/h-x86_64-mingw32/bin/../lib/gcc/nios2-elf/10.3.1/../../../../../H-x86_64-mingw32/nios2-elf/lib\libc.a(lib_a-__atexit.o)
 .debug_aranges
                0x0000000000001670       0x20 c:/intelfpga_lite/21.1/nios2eds/bin/gnu/h-x86_64-mingw32/bin/../lib/gcc/nios2-elf/10.3.1/../../../../../H-x86_64-mingw32/nios2-elf/lib\libc.a(lib_a-__call_atexit.o)

.debug_pubnames
 *(.debug_pubnames)

.debug_info     0x0000000000000000    0x431c7
 *(.debug_info .gnu.linkonce.wi.*)
 .debug_info    0x0000000000000000       0x22 c:/Users/Robin/Documents/NHLStenden/FPGA/QuartusPrimeProjects/DE2-115_V.1.0.6_SystemCD/DE2_115_demonstrations/DE2_115_SD_Card_Audio_Player_Copy/Software/Audio_Player_test1_bsp//obj/HAL/src/crt0.o
 .debug_info    0x0000000000000022      0x748 obj/default/AUDIO.o
 .debug_info    0x000000000000076a      0xde0 obj/default/FatFileSystem.o
 .debug_info    0x000000000000154a      0xb00 obj/default/FatInternal.o
 .debug_info    0x000000000000204a      0x37f obj/default/I2C.o
 .debug_info    0x00000000000023c9      0xa55 obj/default/LCD.o
 .debug_info    0x0000000000002e1e      0x12d obj/default/LED.o
 .debug_info    0x0000000000002f4b      0x1dc obj/default/SEG7.o
 .debug_info    0x0000000000003127      0x4f3 obj/default/WaveLib.o
 .debug_info    0x000000000000361a      0x120 obj/default/crc16.o
 .debug_info    0x000000000000373a      0x135 obj/default/crc7.o
 .debug_info    0x000000000000386f      0x201 obj/default/debug.o
 .debug_info    0x0000000000003a70      0xb8f obj/default/hello_world.o
 .debug_info    0x00000000000045ff      0x345 obj/default/sd_hal.o
 .debug_info    0x0000000000004944      0x323 obj/default/sd_lib.o
 .debug_info    0x0000000000004c67      0xc7f obj/default/sd_protocol.o
 .debug_info    0x00000000000058e6      0x368 c:/intelfpga_lite/21.1/nios2eds/bin/gnu/h-x86_64-mingw32/bin/../lib/gcc/nios2-elf/10.3.1\libgcc.a(lib2-divmod.o)
 .debug_info    0x0000000000005c4e      0x376 c:/intelfpga_lite/21.1/nios2eds/bin/gnu/h-x86_64-mingw32/bin/../lib/gcc/nios2-elf/10.3.1\libgcc.a(divsf3.o)
 .debug_info    0x0000000000005fc4      0x3f7 c:/intelfpga_lite/21.1/nios2eds/bin/gnu/h-x86_64-mingw32/bin/../lib/gcc/nios2-elf/10.3.1\libgcc.a(mulsf3.o)
 .debug_info    0x00000000000063bb      0x242 c:/intelfpga_lite/21.1/nios2eds/bin/gnu/h-x86_64-mingw32/bin/../lib/gcc/nios2-elf/10.3.1\libgcc.a(floatunsisf.o)
 .debug_info    0x00000000000065fd      0x87b c:/intelfpga_lite/21.1/nios2eds/bin/gnu/h-x86_64-mingw32/bin/../lib/gcc/nios2-elf/10.3.1\libgcc.a(divdf3.o)
 .debug_info    0x0000000000006e78      0x2aa c:/intelfpga_lite/21.1/nios2eds/bin/gnu/h-x86_64-mingw32/bin/../lib/gcc/nios2-elf/10.3.1\libgcc.a(extendsfdf2.o)
 .debug_info    0x0000000000007122      0x2c2 c:/intelfpga_lite/21.1/nios2eds/bin/gnu/h-x86_64-mingw32/bin/../lib/gcc/nios2-elf/10.3.1\libgcc.a(truncdfsf2.o)
 .debug_info    0x00000000000073e4      0x133 c:/intelfpga_lite/21.1/nios2eds/bin/gnu/h-x86_64-mingw32/bin/../lib/gcc/nios2-elf/10.3.1\libgcc.a(_clzsi2.o)
 .debug_info    0x0000000000007517       0xc2 c:/intelfpga_lite/21.1/nios2eds/bin/gnu/h-x86_64-mingw32/bin/../lib/gcc/nios2-elf/10.3.1\libgcc.a(_clz.o)
 .debug_info    0x00000000000075d9      0xb4b c:/intelfpga_lite/21.1/nios2eds/bin/gnu/h-x86_64-mingw32/bin/../lib/gcc/nios2-elf/10.3.1/../../../../../H-x86_64-mingw32/nios2-elf/lib\libc.a(lib_a-fclose.o)
 .debug_info    0x0000000000008124      0xbf6 c:/intelfpga_lite/21.1/nios2eds/bin/gnu/h-x86_64-mingw32/bin/../lib/gcc/nios2-elf/10.3.1/../../../../../H-x86_64-mingw32/nios2-elf/lib\libc.a(lib_a-fflush.o)
 .debug_info    0x0000000000008d1a      0xee9 c:/intelfpga_lite/21.1/nios2eds/bin/gnu/h-x86_64-mingw32/bin/../lib/gcc/nios2-elf/10.3.1/../../../../../H-x86_64-mingw32/nios2-elf/lib\libc.a(lib_a-findfp.o)
 .debug_info    0x0000000000009c03      0xae4 c:/intelfpga_lite/21.1/nios2eds/bin/gnu/h-x86_64-mingw32/bin/../lib/gcc/nios2-elf/10.3.1/../../../../../H-x86_64-mingw32/nios2-elf/lib\libc.a(lib_a-fopen.o)
 .debug_info    0x000000000000a6e7      0xced c:/intelfpga_lite/21.1/nios2eds/bin/gnu/h-x86_64-mingw32/bin/../lib/gcc/nios2-elf/10.3.1/../../../../../H-x86_64-mingw32/nios2-elf/lib\libc.a(lib_a-freer.o)
 .debug_info    0x000000000000b3d4      0xa81 c:/intelfpga_lite/21.1/nios2eds/bin/gnu/h-x86_64-mingw32/bin/../lib/gcc/nios2-elf/10.3.1/../../../../../H-x86_64-mingw32/nios2-elf/lib\libc.a(lib_a-fseek.o)
 .debug_info    0x000000000000be55      0xe5e c:/intelfpga_lite/21.1/nios2eds/bin/gnu/h-x86_64-mingw32/bin/../lib/gcc/nios2-elf/10.3.1/../../../../../H-x86_64-mingw32/nios2-elf/lib\libc.a(lib_a-fseeko.o)
 .debug_info    0x000000000000ccb3      0xb8a c:/intelfpga_lite/21.1/nios2eds/bin/gnu/h-x86_64-mingw32/bin/../lib/gcc/nios2-elf/10.3.1/../../../../../H-x86_64-mingw32/nios2-elf/lib\libc.a(lib_a-fstatr.o)
 .debug_info    0x000000000000d83d      0xa6d c:/intelfpga_lite/21.1/nios2eds/bin/gnu/h-x86_64-mingw32/bin/../lib/gcc/nios2-elf/10.3.1/../../../../../H-x86_64-mingw32/nios2-elf/lib\libc.a(lib_a-fwalk.o)
 .debug_info    0x000000000000e2aa      0xc17 c:/intelfpga_lite/21.1/nios2eds/bin/gnu/h-x86_64-mingw32/bin/../lib/gcc/nios2-elf/10.3.1/../../../../../H-x86_64-mingw32/nios2-elf/lib\libc.a(lib_a-fwrite.o)
 .debug_info    0x000000000000eec1      0x931 c:/intelfpga_lite/21.1/nios2eds/bin/gnu/h-x86_64-mingw32/bin/../lib/gcc/nios2-elf/10.3.1/../../../../../H-x86_64-mingw32/nios2-elf/lib\libc.a(lib_a-impure.o)
 .debug_info    0x000000000000f7f2       0x84 c:/intelfpga_lite/21.1/nios2eds/bin/gnu/h-x86_64-mingw32/bin/../lib/gcc/nios2-elf/10.3.1/../../../../../H-x86_64-mingw32/nios2-elf/lib\libc.a(lib_a-int_errno.o)
 .debug_info    0x000000000000f876      0xe0b c:/intelfpga_lite/21.1/nios2eds/bin/gnu/h-x86_64-mingw32/bin/../lib/gcc/nios2-elf/10.3.1/../../../../../H-x86_64-mingw32/nios2-elf/lib\libc.a(lib_a-makebuf.o)
 .debug_info    0x0000000000010681      0x99f c:/intelfpga_lite/21.1/nios2eds/bin/gnu/h-x86_64-mingw32/bin/../lib/gcc/nios2-elf/10.3.1/../../../../../H-x86_64-mingw32/nios2-elf/lib\libc.a(lib_a-malloc.o)
 .debug_info    0x0000000000011020      0xe9a c:/intelfpga_lite/21.1/nios2eds/bin/gnu/h-x86_64-mingw32/bin/../lib/gcc/nios2-elf/10.3.1/../../../../../H-x86_64-mingw32/nios2-elf/lib\libc.a(lib_a-mallocr.o)
 .debug_info    0x0000000000011eba      0x162 c:/intelfpga_lite/21.1/nios2eds/bin/gnu/h-x86_64-mingw32/bin/../lib/gcc/nios2-elf/10.3.1/../../../../../H-x86_64-mingw32/nios2-elf/lib\libc.a(lib_a-memcpy.o)
 .debug_info    0x000000000001201c      0x13d c:/intelfpga_lite/21.1/nios2eds/bin/gnu/h-x86_64-mingw32/bin/../lib/gcc/nios2-elf/10.3.1/../../../../../H-x86_64-mingw32/nios2-elf/lib\libc.a(lib_a-memset.o)
 .debug_info    0x0000000000012159      0x9a8 c:/intelfpga_lite/21.1/nios2eds/bin/gnu/h-x86_64-mingw32/bin/../lib/gcc/nios2-elf/10.3.1/../../../../../H-x86_64-mingw32/nios2-elf/lib\libc.a(lib_a-openr.o)
 .debug_info    0x0000000000012b01      0xa3e c:/intelfpga_lite/21.1/nios2eds/bin/gnu/h-x86_64-mingw32/bin/../lib/gcc/nios2-elf/10.3.1/../../../../../H-x86_64-mingw32/nios2-elf/lib\libc.a(lib_a-printf.o)
 .debug_info    0x000000000001353f      0x9b8 c:/intelfpga_lite/21.1/nios2eds/bin/gnu/h-x86_64-mingw32/bin/../lib/gcc/nios2-elf/10.3.1/../../../../../H-x86_64-mingw32/nios2-elf/lib\libc.a(lib_a-putchar.o)
 .debug_info    0x0000000000013ef7      0xae3 c:/intelfpga_lite/21.1/nios2eds/bin/gnu/h-x86_64-mingw32/bin/../lib/gcc/nios2-elf/10.3.1/../../../../../H-x86_64-mingw32/nios2-elf/lib\libc.a(lib_a-puts.o)
 .debug_info    0x00000000000149da      0xaaf c:/intelfpga_lite/21.1/nios2eds/bin/gnu/h-x86_64-mingw32/bin/../lib/gcc/nios2-elf/10.3.1/../../../../../H-x86_64-mingw32/nios2-elf/lib\libc.a(lib_a-refill.o)
 .debug_info    0x0000000000015489      0x994 c:/intelfpga_lite/21.1/nios2eds/bin/gnu/h-x86_64-mingw32/bin/../lib/gcc/nios2-elf/10.3.1/../../../../../H-x86_64-mingw32/nios2-elf/lib\libc.a(lib_a-sbrkr.o)
 .debug_info    0x0000000000015e1d      0xabb c:/intelfpga_lite/21.1/nios2eds/bin/gnu/h-x86_64-mingw32/bin/../lib/gcc/nios2-elf/10.3.1/../../../../../H-x86_64-mingw32/nios2-elf/lib\libc.a(lib_a-sprintf.o)
 .debug_info    0x00000000000168d8      0xc23 c:/intelfpga_lite/21.1/nios2eds/bin/gnu/h-x86_64-mingw32/bin/../lib/gcc/nios2-elf/10.3.1/../../../../../H-x86_64-mingw32/nios2-elf/lib\libc.a(lib_a-stdio.o)
 .debug_info    0x00000000000174fb       0xf2 c:/intelfpga_lite/21.1/nios2eds/bin/gnu/h-x86_64-mingw32/bin/../lib/gcc/nios2-elf/10.3.1/../../../../../H-x86_64-mingw32/nios2-elf/lib\libc.a(lib_a-strcmp.o)
 .debug_info    0x00000000000175ed      0x12f c:/intelfpga_lite/21.1/nios2eds/bin/gnu/h-x86_64-mingw32/bin/../lib/gcc/nios2-elf/10.3.1/../../../../../H-x86_64-mingw32/nios2-elf/lib\libc.a(lib_a-strcpy.o)
 .debug_info    0x000000000001771c       0xee c:/intelfpga_lite/21.1/nios2eds/bin/gnu/h-x86_64-mingw32/bin/../lib/gcc/nios2-elf/10.3.1/../../../../../H-x86_64-mingw32/nios2-elf/lib\libc.a(lib_a-strlen.o)
 .debug_info    0x000000000001780a     0x1966 c:/intelfpga_lite/21.1/nios2eds/bin/gnu/h-x86_64-mingw32/bin/../lib/gcc/nios2-elf/10.3.1/../../../../../H-x86_64-mingw32/nios2-elf/lib\libc.a(lib_a-svfprintf.o)
 .debug_info    0x0000000000019170     0x1b5a c:/intelfpga_lite/21.1/nios2eds/bin/gnu/h-x86_64-mingw32/bin/../lib/gcc/nios2-elf/10.3.1/../../../../../H-x86_64-mingw32/nios2-elf/lib\libc.a(lib_a-vfprintf.o)
 .debug_info    0x000000000001acca      0xb79 c:/intelfpga_lite/21.1/nios2eds/bin/gnu/h-x86_64-mingw32/bin/../lib/gcc/nios2-elf/10.3.1/../../../../../H-x86_64-mingw32/nios2-elf/lib\libc.a(lib_a-vsnprintf.o)
 .debug_info    0x000000000001b843      0x9c6 c:/intelfpga_lite/21.1/nios2eds/bin/gnu/h-x86_64-mingw32/bin/../lib/gcc/nios2-elf/10.3.1/../../../../../H-x86_64-mingw32/nios2-elf/lib\libc.a(lib_a-writer.o)
 .debug_info    0x000000000001c209      0x9c9 c:/intelfpga_lite/21.1/nios2eds/bin/gnu/h-x86_64-mingw32/bin/../lib/gcc/nios2-elf/10.3.1/../../../../../H-x86_64-mingw32/nios2-elf/lib\libc.a(lib_a-wsetup.o)
 .debug_info    0x000000000001cbd2      0x971 c:/intelfpga_lite/21.1/nios2eds/bin/gnu/h-x86_64-mingw32/bin/../lib/gcc/nios2-elf/10.3.1/../../../../../H-x86_64-mingw32/nios2-elf/lib\libc.a(closer.o)
 .debug_info    0x000000000001d543     0x1a40 c:/intelfpga_lite/21.1/nios2eds/bin/gnu/h-x86_64-mingw32/bin/../lib/gcc/nios2-elf/10.3.1/../../../../../H-x86_64-mingw32/nios2-elf/lib\libc.a(lib_a-dtoa.o)
 .debug_info    0x000000000001ef83      0x981 c:/intelfpga_lite/21.1/nios2eds/bin/gnu/h-x86_64-mingw32/bin/../lib/gcc/nios2-elf/10.3.1/../../../../../H-x86_64-mingw32/nios2-elf/lib\libc.a(lib_a-flags.o)
 .debug_info    0x000000000001f904      0xca0 c:/intelfpga_lite/21.1/nios2eds/bin/gnu/h-x86_64-mingw32/bin/../lib/gcc/nios2-elf/10.3.1/../../../../../H-x86_64-mingw32/nios2-elf/lib\libc.a(lib_a-fvwrite.o)
 .debug_info    0x00000000000205a4      0x971 c:/intelfpga_lite/21.1/nios2eds/bin/gnu/h-x86_64-mingw32/bin/../lib/gcc/nios2-elf/10.3.1/../../../../../H-x86_64-mingw32/nios2-elf/lib\libc.a(lib_a-isattyr.o)
 .debug_info    0x0000000000020f15      0xc39 c:/intelfpga_lite/21.1/nios2eds/bin/gnu/h-x86_64-mingw32/bin/../lib/gcc/nios2-elf/10.3.1/../../../../../H-x86_64-mingw32/nios2-elf/lib\libc.a(lib_a-localeconv.o)
 .debug_info    0x0000000000021b4e      0x9a7 c:/intelfpga_lite/21.1/nios2eds/bin/gnu/h-x86_64-mingw32/bin/../lib/gcc/nios2-elf/10.3.1/../../../../../H-x86_64-mingw32/nios2-elf/lib\libc.a(lib_a-lseekr.o)
 .debug_info    0x00000000000224f5      0x155 c:/intelfpga_lite/21.1/nios2eds/bin/gnu/h-x86_64-mingw32/bin/../lib/gcc/nios2-elf/10.3.1/../../../../../H-x86_64-mingw32/nios2-elf/lib\libc.a(lib_a-memchr.o)
 .debug_info    0x000000000002264a      0x158 c:/intelfpga_lite/21.1/nios2eds/bin/gnu/h-x86_64-mingw32/bin/../lib/gcc/nios2-elf/10.3.1/../../../../../H-x86_64-mingw32/nios2-elf/lib\libc.a(lib_a-memmove.o)
 .debug_info    0x00000000000227a2     0x2139 c:/intelfpga_lite/21.1/nios2eds/bin/gnu/h-x86_64-mingw32/bin/../lib/gcc/nios2-elf/10.3.1/../../../../../H-x86_64-mingw32/nios2-elf/lib\libc.a(lib_a-mprec.o)
 .debug_info    0x00000000000248db      0xa6a c:/intelfpga_lite/21.1/nios2eds/bin/gnu/h-x86_64-mingw32/bin/../lib/gcc/nios2-elf/10.3.1/../../../../../H-x86_64-mingw32/nios2-elf/lib\libc.a(lib_a-putc.o)
 .debug_info    0x0000000000025345      0x9bf c:/intelfpga_lite/21.1/nios2eds/bin/gnu/h-x86_64-mingw32/bin/../lib/gcc/nios2-elf/10.3.1/../../../../../H-x86_64-mingw32/nios2-elf/lib\libc.a(lib_a-readr.o)
 .debug_info    0x0000000000025d04      0xd8d c:/intelfpga_lite/21.1/nios2eds/bin/gnu/h-x86_64-mingw32/bin/../lib/gcc/nios2-elf/10.3.1/../../../../../H-x86_64-mingw32/nios2-elf/lib\libc.a(lib_a-reallocr.o)
 .debug_info    0x0000000000026a91     0x1366 c:/intelfpga_lite/21.1/nios2eds/bin/gnu/h-x86_64-mingw32/bin/../lib/gcc/nios2-elf/10.3.1/../../../../../H-x86_64-mingw32/nios2-elf/lib\libc.a(lib_a-svfiprintf.o)
 .debug_info    0x0000000000027df7     0x1a05 c:/intelfpga_lite/21.1/nios2eds/bin/gnu/h-x86_64-mingw32/bin/../lib/gcc/nios2-elf/10.3.1/../../../../../H-x86_64-mingw32/nios2-elf/lib\libc.a(lib_a-vfiprintf.o)
 .debug_info    0x00000000000297fc      0xa66 c:/intelfpga_lite/21.1/nios2eds/bin/gnu/h-x86_64-mingw32/bin/../lib/gcc/nios2-elf/10.3.1/../../../../../H-x86_64-mingw32/nios2-elf/lib\libc.a(lib_a-wbuf.o)
 .debug_info    0x000000000002a262      0xa1e c:/intelfpga_lite/21.1/nios2eds/bin/gnu/h-x86_64-mingw32/bin/../lib/gcc/nios2-elf/10.3.1/../../../../../H-x86_64-mingw32/nios2-elf/lib\libc.a(lib_a-assert.o)
 .debug_info    0x000000000002ac80      0xa80 c:/intelfpga_lite/21.1/nios2eds/bin/gnu/h-x86_64-mingw32/bin/../lib/gcc/nios2-elf/10.3.1/../../../../../H-x86_64-mingw32/nios2-elf/lib\libc.a(lib_a-callocr.o)
 .debug_info    0x000000000002b700      0x91b c:/intelfpga_lite/21.1/nios2eds/bin/gnu/h-x86_64-mingw32/bin/../lib/gcc/nios2-elf/10.3.1/../../../../../H-x86_64-mingw32/nios2-elf/lib\libc.a(lib_a-errno.o)
 .debug_info    0x000000000002c01b      0xa69 c:/intelfpga_lite/21.1/nios2eds/bin/gnu/h-x86_64-mingw32/bin/../lib/gcc/nios2-elf/10.3.1/../../../../../H-x86_64-mingw32/nios2-elf/lib\libc.a(lib_a-fiprintf.o)
 .debug_info    0x000000000002ca84      0xbb1 c:/intelfpga_lite/21.1/nios2eds/bin/gnu/h-x86_64-mingw32/bin/../lib/gcc/nios2-elf/10.3.1/../../../../../H-x86_64-mingw32/nios2-elf/lib\libc.a(lib_a-fputwc.o)
 .debug_info    0x000000000002d635      0xd9f c:/intelfpga_lite/21.1/nios2eds/bin/gnu/h-x86_64-mingw32/bin/../lib/gcc/nios2-elf/10.3.1/../../../../../H-x86_64-mingw32/nios2-elf/lib\libc.a(lib_a-locale.o)
 .debug_info    0x000000000002e3d4      0xcc5 c:/intelfpga_lite/21.1/nios2eds/bin/gnu/h-x86_64-mingw32/bin/../lib/gcc/nios2-elf/10.3.1/../../../../../H-x86_64-mingw32/nios2-elf/lib\libc.a(lib_a-mbtowc_r.o)
 .debug_info    0x000000000002f099      0x9dc c:/intelfpga_lite/21.1/nios2eds/bin/gnu/h-x86_64-mingw32/bin/../lib/gcc/nios2-elf/10.3.1/../../../../../H-x86_64-mingw32/nios2-elf/lib\libc.a(lib_a-vfiprintfr_1.o)
 .debug_info    0x000000000002fa75      0xd46 c:/intelfpga_lite/21.1/nios2eds/bin/gnu/h-x86_64-mingw32/bin/../lib/gcc/nios2-elf/10.3.1/../../../../../H-x86_64-mingw32/nios2-elf/lib\libc.a(lib_a-wcrtomb.o)
 .debug_info    0x00000000000307bb      0xc81 c:/intelfpga_lite/21.1/nios2eds/bin/gnu/h-x86_64-mingw32/bin/../lib/gcc/nios2-elf/10.3.1/../../../../../H-x86_64-mingw32/nios2-elf/lib\libc.a(lib_a-wctomb_r.o)
 .debug_info    0x000000000003143c       0xcb c:/intelfpga_lite/21.1/nios2eds/bin/gnu/h-x86_64-mingw32/bin/../lib/gcc/nios2-elf/10.3.1/../../../../../H-x86_64-mingw32/nios2-elf/lib\libc.a(lib_a-abort.o)
 .debug_info    0x0000000000031507       0xec c:/intelfpga_lite/21.1/nios2eds/bin/gnu/h-x86_64-mingw32/bin/../lib/gcc/nios2-elf/10.3.1/../../../../../H-x86_64-mingw32/nios2-elf/lib\libc.a(lib_a-ctype_.o)
 .debug_info    0x00000000000315f3      0xfd7 c:/intelfpga_lite/21.1/nios2eds/bin/gnu/h-x86_64-mingw32/bin/../lib/gcc/nios2-elf/10.3.1/../../../../../H-x86_64-mingw32/nios2-elf/lib\libc.a(lib_a-signal.o)
 .debug_info    0x00000000000325ca      0x9dd c:/intelfpga_lite/21.1/nios2eds/bin/gnu/h-x86_64-mingw32/bin/../lib/gcc/nios2-elf/10.3.1/../../../../../H-x86_64-mingw32/nios2-elf/lib\libc.a(lib_a-signalr.o)
 .debug_info    0x0000000000032fa7      0x916 c:/intelfpga_lite/21.1/nios2eds/bin/gnu/h-x86_64-mingw32/bin/../lib/gcc/nios2-elf/10.3.1\libgcc.a(_udivdi3.o)
 .debug_info    0x00000000000338bd      0x98e c:/intelfpga_lite/21.1/nios2eds/bin/gnu/h-x86_64-mingw32/bin/../lib/gcc/nios2-elf/10.3.1\libgcc.a(_umoddi3.o)
 .debug_info    0x000000000003424b      0x614 c:/intelfpga_lite/21.1/nios2eds/bin/gnu/h-x86_64-mingw32/bin/../lib/gcc/nios2-elf/10.3.1\libgcc.a(adddf3.o)
 .debug_info    0x000000000003485f      0x273 c:/intelfpga_lite/21.1/nios2eds/bin/gnu/h-x86_64-mingw32/bin/../lib/gcc/nios2-elf/10.3.1\libgcc.a(eqdf2.o)
 .debug_info    0x0000000000034ad2      0x274 c:/intelfpga_lite/21.1/nios2eds/bin/gnu/h-x86_64-mingw32/bin/../lib/gcc/nios2-elf/10.3.1\libgcc.a(gedf2.o)
 .debug_info    0x0000000000034d46      0x274 c:/intelfpga_lite/21.1/nios2eds/bin/gnu/h-x86_64-mingw32/bin/../lib/gcc/nios2-elf/10.3.1\libgcc.a(ledf2.o)
 .debug_info    0x0000000000034fba      0x841 c:/intelfpga_lite/21.1/nios2eds/bin/gnu/h-x86_64-mingw32/bin/../lib/gcc/nios2-elf/10.3.1\libgcc.a(muldf3.o)
 .debug_info    0x00000000000357fb      0x614 c:/intelfpga_lite/21.1/nios2eds/bin/gnu/h-x86_64-mingw32/bin/../lib/gcc/nios2-elf/10.3.1\libgcc.a(subdf3.o)
 .debug_info    0x0000000000035e0f      0x24b c:/intelfpga_lite/21.1/nios2eds/bin/gnu/h-x86_64-mingw32/bin/../lib/gcc/nios2-elf/10.3.1\libgcc.a(unorddf2.o)
 .debug_info    0x000000000003605a      0x1f7 c:/intelfpga_lite/21.1/nios2eds/bin/gnu/h-x86_64-mingw32/bin/../lib/gcc/nios2-elf/10.3.1\libgcc.a(fixdfsi.o)
 .debug_info    0x0000000000036251      0x2bf c:/intelfpga_lite/21.1/nios2eds/bin/gnu/h-x86_64-mingw32/bin/../lib/gcc/nios2-elf/10.3.1\libgcc.a(floatsidf.o)
 .debug_info    0x0000000000036510      0x2b2 c:/intelfpga_lite/21.1/nios2eds/bin/gnu/h-x86_64-mingw32/bin/../lib/gcc/nios2-elf/10.3.1\libgcc.a(floatunsidf.o)
 .debug_info    0x00000000000367c2      0x32c c:/Users/Robin/Documents/NHLStenden/FPGA/QuartusPrimeProjects/DE2-115_V.1.0.6_SystemCD/DE2_115_demonstrations/DE2_115_SD_Card_Audio_Player_Copy/Software/Audio_Player_test1_bsp/\libhal_bsp.a(alt_close.o)
 .debug_info    0x0000000000036aee      0x57d c:/Users/Robin/Documents/NHLStenden/FPGA/QuartusPrimeProjects/DE2-115_V.1.0.6_SystemCD/DE2_115_demonstrations/DE2_115_SD_Card_Audio_Player_Copy/Software/Audio_Player_test1_bsp/\libhal_bsp.a(alt_dev.o)
 .debug_info    0x000000000003706b       0x9d c:/Users/Robin/Documents/NHLStenden/FPGA/QuartusPrimeProjects/DE2-115_V.1.0.6_SystemCD/DE2_115_demonstrations/DE2_115_SD_Card_Audio_Player_Copy/Software/Audio_Player_test1_bsp/\libhal_bsp.a(alt_errno.o)
 .debug_info    0x0000000000037108       0xe1 c:/Users/Robin/Documents/NHLStenden/FPGA/QuartusPrimeProjects/DE2-115_V.1.0.6_SystemCD/DE2_115_demonstrations/DE2_115_SD_Card_Audio_Player_Copy/Software/Audio_Player_test1_bsp/\libhal_bsp.a(alt_exit.o)
 .debug_info    0x00000000000371e9      0x52a c:/Users/Robin/Documents/NHLStenden/FPGA/QuartusPrimeProjects/DE2-115_V.1.0.6_SystemCD/DE2_115_demonstrations/DE2_115_SD_Card_Audio_Player_Copy/Software/Audio_Player_test1_bsp/\libhal_bsp.a(alt_fstat.o)
 .debug_info    0x0000000000037713       0x43 c:/Users/Robin/Documents/NHLStenden/FPGA/QuartusPrimeProjects/DE2-115_V.1.0.6_SystemCD/DE2_115_demonstrations/DE2_115_SD_Card_Audio_Player_Copy/Software/Audio_Player_test1_bsp/\libhal_bsp.a(alt_getpid.o)
 .debug_info    0x0000000000037756      0x2f2 c:/Users/Robin/Documents/NHLStenden/FPGA/QuartusPrimeProjects/DE2-115_V.1.0.6_SystemCD/DE2_115_demonstrations/DE2_115_SD_Card_Audio_Player_Copy/Software/Audio_Player_test1_bsp/\libhal_bsp.a(alt_irq_register.o)
 .debug_info    0x0000000000037a48       0x8b c:/Users/Robin/Documents/NHLStenden/FPGA/QuartusPrimeProjects/DE2-115_V.1.0.6_SystemCD/DE2_115_demonstrations/DE2_115_SD_Card_Audio_Player_Copy/Software/Audio_Player_test1_bsp/\libhal_bsp.a(alt_irq_vars.o)
 .debug_info    0x0000000000037ad3      0x52d c:/Users/Robin/Documents/NHLStenden/FPGA/QuartusPrimeProjects/DE2-115_V.1.0.6_SystemCD/DE2_115_demonstrations/DE2_115_SD_Card_Audio_Player_Copy/Software/Audio_Player_test1_bsp/\libhal_bsp.a(alt_isatty.o)
 .debug_info    0x0000000000038000      0x101 c:/Users/Robin/Documents/NHLStenden/FPGA/QuartusPrimeProjects/DE2-115_V.1.0.6_SystemCD/DE2_115_demonstrations/DE2_115_SD_Card_Audio_Player_Copy/Software/Audio_Player_test1_bsp/\libhal_bsp.a(alt_kill.o)
 .debug_info    0x0000000000038101      0x14d c:/Users/Robin/Documents/NHLStenden/FPGA/QuartusPrimeProjects/DE2-115_V.1.0.6_SystemCD/DE2_115_demonstrations/DE2_115_SD_Card_Audio_Player_Copy/Software/Audio_Player_test1_bsp/\libhal_bsp.a(alt_load.o)
 .debug_info    0x000000000003824e      0x36d c:/Users/Robin/Documents/NHLStenden/FPGA/QuartusPrimeProjects/DE2-115_V.1.0.6_SystemCD/DE2_115_demonstrations/DE2_115_SD_Card_Audio_Player_Copy/Software/Audio_Player_test1_bsp/\libhal_bsp.a(alt_lseek.o)
 .debug_info    0x00000000000385bb       0xef c:/Users/Robin/Documents/NHLStenden/FPGA/QuartusPrimeProjects/DE2-115_V.1.0.6_SystemCD/DE2_115_demonstrations/DE2_115_SD_Card_Audio_Player_Copy/Software/Audio_Player_test1_bsp/\libhal_bsp.a(alt_main.o)
 .debug_info    0x00000000000386aa      0x938 c:/Users/Robin/Documents/NHLStenden/FPGA/QuartusPrimeProjects/DE2-115_V.1.0.6_SystemCD/DE2_115_demonstrations/DE2_115_SD_Card_Audio_Player_Copy/Software/Audio_Player_test1_bsp/\libhal_bsp.a(alt_malloc_lock.o)
 .debug_info    0x0000000000038fe2      0x3dd c:/Users/Robin/Documents/NHLStenden/FPGA/QuartusPrimeProjects/DE2-115_V.1.0.6_SystemCD/DE2_115_demonstrations/DE2_115_SD_Card_Audio_Player_Copy/Software/Audio_Player_test1_bsp/\libhal_bsp.a(alt_open.o)
 .debug_info    0x00000000000393bf      0x555 c:/Users/Robin/Documents/NHLStenden/FPGA/QuartusPrimeProjects/DE2-115_V.1.0.6_SystemCD/DE2_115_demonstrations/DE2_115_SD_Card_Audio_Player_Copy/Software/Audio_Player_test1_bsp/\libhal_bsp.a(alt_read.o)
 .debug_info    0x0000000000039914      0x2b9 c:/Users/Robin/Documents/NHLStenden/FPGA/QuartusPrimeProjects/DE2-115_V.1.0.6_SystemCD/DE2_115_demonstrations/DE2_115_SD_Card_Audio_Player_Copy/Software/Audio_Player_test1_bsp/\libhal_bsp.a(alt_release_fd.o)
 .debug_info    0x0000000000039bcd      0x19c c:/Users/Robin/Documents/NHLStenden/FPGA/QuartusPrimeProjects/DE2-115_V.1.0.6_SystemCD/DE2_115_demonstrations/DE2_115_SD_Card_Audio_Player_Copy/Software/Audio_Player_test1_bsp/\libhal_bsp.a(alt_sbrk.o)
 .debug_info    0x0000000000039d69      0x2b0 c:/Users/Robin/Documents/NHLStenden/FPGA/QuartusPrimeProjects/DE2-115_V.1.0.6_SystemCD/DE2_115_demonstrations/DE2_115_SD_Card_Audio_Player_Copy/Software/Audio_Player_test1_bsp/\libhal_bsp.a(alt_tick.o)
 .debug_info    0x000000000003a019       0xb7 c:/Users/Robin/Documents/NHLStenden/FPGA/QuartusPrimeProjects/DE2-115_V.1.0.6_SystemCD/DE2_115_demonstrations/DE2_115_SD_Card_Audio_Player_Copy/Software/Audio_Player_test1_bsp/\libhal_bsp.a(alt_usleep.o)
 .debug_info    0x000000000003a0d0      0x55c c:/Users/Robin/Documents/NHLStenden/FPGA/QuartusPrimeProjects/DE2-115_V.1.0.6_SystemCD/DE2_115_demonstrations/DE2_115_SD_Card_Audio_Player_Copy/Software/Audio_Player_test1_bsp/\libhal_bsp.a(alt_write.o)
 .debug_info    0x000000000003a62c      0x980 c:/Users/Robin/Documents/NHLStenden/FPGA/QuartusPrimeProjects/DE2-115_V.1.0.6_SystemCD/DE2_115_demonstrations/DE2_115_SD_Card_Audio_Player_Copy/Software/Audio_Player_test1_bsp/\libhal_bsp.a(alt_sys_init.o)
 .debug_info    0x000000000003afac      0x869 c:/Users/Robin/Documents/NHLStenden/FPGA/QuartusPrimeProjects/DE2-115_V.1.0.6_SystemCD/DE2_115_demonstrations/DE2_115_SD_Card_Audio_Player_Copy/Software/Audio_Player_test1_bsp/\libhal_bsp.a(altera_avalon_cfi_flash.o)
 .debug_info    0x000000000003b815      0x9de c:/Users/Robin/Documents/NHLStenden/FPGA/QuartusPrimeProjects/DE2-115_V.1.0.6_SystemCD/DE2_115_demonstrations/DE2_115_SD_Card_Audio_Player_Copy/Software/Audio_Player_test1_bsp/\libhal_bsp.a(altera_avalon_cfi_flash_table.o)
 .debug_info    0x000000000003c1f3      0x53c c:/Users/Robin/Documents/NHLStenden/FPGA/QuartusPrimeProjects/DE2-115_V.1.0.6_SystemCD/DE2_115_demonstrations/DE2_115_SD_Card_Audio_Player_Copy/Software/Audio_Player_test1_bsp/\libhal_bsp.a(altera_avalon_jtag_uart_fd.o)
 .debug_info    0x000000000003c72f      0x3cf c:/Users/Robin/Documents/NHLStenden/FPGA/QuartusPrimeProjects/DE2-115_V.1.0.6_SystemCD/DE2_115_demonstrations/DE2_115_SD_Card_Audio_Player_Copy/Software/Audio_Player_test1_bsp/\libhal_bsp.a(altera_avalon_jtag_uart_init.o)
 .debug_info    0x000000000003cafe      0x266 c:/Users/Robin/Documents/NHLStenden/FPGA/QuartusPrimeProjects/DE2-115_V.1.0.6_SystemCD/DE2_115_demonstrations/DE2_115_SD_Card_Audio_Player_Copy/Software/Audio_Player_test1_bsp/\libhal_bsp.a(altera_avalon_jtag_uart_ioctl.o)
 .debug_info    0x000000000003cd64      0x335 c:/Users/Robin/Documents/NHLStenden/FPGA/QuartusPrimeProjects/DE2-115_V.1.0.6_SystemCD/DE2_115_demonstrations/DE2_115_SD_Card_Audio_Player_Copy/Software/Audio_Player_test1_bsp/\libhal_bsp.a(altera_avalon_jtag_uart_read.o)
 .debug_info    0x000000000003d099      0x330 c:/Users/Robin/Documents/NHLStenden/FPGA/QuartusPrimeProjects/DE2-115_V.1.0.6_SystemCD/DE2_115_demonstrations/DE2_115_SD_Card_Audio_Player_Copy/Software/Audio_Player_test1_bsp/\libhal_bsp.a(altera_avalon_jtag_uart_write.o)
 .debug_info    0x000000000003d3c9      0x1d5 c:/Users/Robin/Documents/NHLStenden/FPGA/QuartusPrimeProjects/DE2-115_V.1.0.6_SystemCD/DE2_115_demonstrations/DE2_115_SD_Card_Audio_Player_Copy/Software/Audio_Player_test1_bsp/\libhal_bsp.a(altera_avalon_timer_sc.o)
 .debug_info    0x000000000003d59e      0x463 c:/Users/Robin/Documents/NHLStenden/FPGA/QuartusPrimeProjects/DE2-115_V.1.0.6_SystemCD/DE2_115_demonstrations/DE2_115_SD_Card_Audio_Player_Copy/Software/Audio_Player_test1_bsp/\libhal_bsp.a(altera_avalon_uart_fd.o)
 .debug_info    0x000000000003da01      0x2ea c:/Users/Robin/Documents/NHLStenden/FPGA/QuartusPrimeProjects/DE2-115_V.1.0.6_SystemCD/DE2_115_demonstrations/DE2_115_SD_Card_Audio_Player_Copy/Software/Audio_Player_test1_bsp/\libhal_bsp.a(altera_avalon_uart_init.o)
 .debug_info    0x000000000003dceb      0x2ec c:/Users/Robin/Documents/NHLStenden/FPGA/QuartusPrimeProjects/DE2-115_V.1.0.6_SystemCD/DE2_115_demonstrations/DE2_115_SD_Card_Audio_Player_Copy/Software/Audio_Player_test1_bsp/\libhal_bsp.a(altera_avalon_uart_read.o)
 .debug_info    0x000000000003dfd7      0x2f1 c:/Users/Robin/Documents/NHLStenden/FPGA/QuartusPrimeProjects/DE2-115_V.1.0.6_SystemCD/DE2_115_demonstrations/DE2_115_SD_Card_Audio_Player_Copy/Software/Audio_Player_test1_bsp/\libhal_bsp.a(altera_avalon_uart_write.o)
 .debug_info    0x000000000003e2c8      0x2d0 c:/Users/Robin/Documents/NHLStenden/FPGA/QuartusPrimeProjects/DE2-115_V.1.0.6_SystemCD/DE2_115_demonstrations/DE2_115_SD_Card_Audio_Player_Copy/Software/Audio_Player_test1_bsp/\libhal_bsp.a(alt_alarm_start.o)
 .debug_info    0x000000000003e598       0xd6 c:/Users/Robin/Documents/NHLStenden/FPGA/QuartusPrimeProjects/DE2-115_V.1.0.6_SystemCD/DE2_115_demonstrations/DE2_115_SD_Card_Audio_Player_Copy/Software/Audio_Player_test1_bsp/\libhal_bsp.a(alt_busy_sleep.o)
 .debug_info    0x000000000003e66e       0xdb c:/Users/Robin/Documents/NHLStenden/FPGA/QuartusPrimeProjects/DE2-115_V.1.0.6_SystemCD/DE2_115_demonstrations/DE2_115_SD_Card_Audio_Player_Copy/Software/Audio_Player_test1_bsp/\libhal_bsp.a(alt_dcache_flush.o)
 .debug_info    0x000000000003e749       0xa0 c:/Users/Robin/Documents/NHLStenden/FPGA/QuartusPrimeProjects/DE2-115_V.1.0.6_SystemCD/DE2_115_demonstrations/DE2_115_SD_Card_Audio_Player_Copy/Software/Audio_Player_test1_bsp/\libhal_bsp.a(alt_dcache_flush_all.o)
 .debug_info    0x000000000003e7e9      0x1b0 c:/Users/Robin/Documents/NHLStenden/FPGA/QuartusPrimeProjects/DE2-115_V.1.0.6_SystemCD/DE2_115_demonstrations/DE2_115_SD_Card_Audio_Player_Copy/Software/Audio_Player_test1_bsp/\libhal_bsp.a(alt_dev_llist_insert.o)
 .debug_info    0x000000000003e999       0x88 c:/Users/Robin/Documents/NHLStenden/FPGA/QuartusPrimeProjects/DE2-115_V.1.0.6_SystemCD/DE2_115_demonstrations/DE2_115_SD_Card_Audio_Player_Copy/Software/Audio_Player_test1_bsp/\libhal_bsp.a(alt_do_ctors.o)
 .debug_info    0x000000000003ea21       0x88 c:/Users/Robin/Documents/NHLStenden/FPGA/QuartusPrimeProjects/DE2-115_V.1.0.6_SystemCD/DE2_115_demonstrations/DE2_115_SD_Card_Audio_Player_Copy/Software/Audio_Player_test1_bsp/\libhal_bsp.a(alt_do_dtors.o)
 .debug_info    0x000000000003eaa9      0x2ee c:/Users/Robin/Documents/NHLStenden/FPGA/QuartusPrimeProjects/DE2-115_V.1.0.6_SystemCD/DE2_115_demonstrations/DE2_115_SD_Card_Audio_Player_Copy/Software/Audio_Player_test1_bsp/\libhal_bsp.a(alt_find_dev.o)
 .debug_info    0x000000000003ed97      0x2eb c:/Users/Robin/Documents/NHLStenden/FPGA/QuartusPrimeProjects/DE2-115_V.1.0.6_SystemCD/DE2_115_demonstrations/DE2_115_SD_Card_Audio_Player_Copy/Software/Audio_Player_test1_bsp/\libhal_bsp.a(alt_find_file.o)
 .debug_info    0x000000000003f082      0x3eb c:/Users/Robin/Documents/NHLStenden/FPGA/QuartusPrimeProjects/DE2-115_V.1.0.6_SystemCD/DE2_115_demonstrations/DE2_115_SD_Card_Audio_Player_Copy/Software/Audio_Player_test1_bsp/\libhal_bsp.a(alt_flash_dev.o)
 .debug_info    0x000000000003f46d      0x31c c:/Users/Robin/Documents/NHLStenden/FPGA/QuartusPrimeProjects/DE2-115_V.1.0.6_SystemCD/DE2_115_demonstrations/DE2_115_SD_Card_Audio_Player_Copy/Software/Audio_Player_test1_bsp/\libhal_bsp.a(alt_get_fd.o)
 .debug_info    0x000000000003f789       0x8c c:/Users/Robin/Documents/NHLStenden/FPGA/QuartusPrimeProjects/DE2-115_V.1.0.6_SystemCD/DE2_115_demonstrations/DE2_115_SD_Card_Audio_Player_Copy/Software/Audio_Player_test1_bsp/\libhal_bsp.a(alt_icache_flush_all.o)
 .debug_info    0x000000000003f815      0x32c c:/Users/Robin/Documents/NHLStenden/FPGA/QuartusPrimeProjects/DE2-115_V.1.0.6_SystemCD/DE2_115_demonstrations/DE2_115_SD_Card_Audio_Player_Copy/Software/Audio_Player_test1_bsp/\libhal_bsp.a(alt_iic.o)
 .debug_info    0x000000000003fb41      0x1f0 c:/Users/Robin/Documents/NHLStenden/FPGA/QuartusPrimeProjects/DE2-115_V.1.0.6_SystemCD/DE2_115_demonstrations/DE2_115_SD_Card_Audio_Player_Copy/Software/Audio_Player_test1_bsp/\libhal_bsp.a(alt_iic_isr_register.o)
 .debug_info    0x000000000003fd31      0x546 c:/Users/Robin/Documents/NHLStenden/FPGA/QuartusPrimeProjects/DE2-115_V.1.0.6_SystemCD/DE2_115_demonstrations/DE2_115_SD_Card_Audio_Player_Copy/Software/Audio_Player_test1_bsp/\libhal_bsp.a(alt_io_redirect.o)
 .debug_info    0x0000000000040277       0x22 c:/Users/Robin/Documents/NHLStenden/FPGA/QuartusPrimeProjects/DE2-115_V.1.0.6_SystemCD/DE2_115_demonstrations/DE2_115_SD_Card_Audio_Player_Copy/Software/Audio_Player_test1_bsp/\libhal_bsp.a(alt_irq_entry.o)
 .debug_info    0x0000000000040299      0x175 c:/Users/Robin/Documents/NHLStenden/FPGA/QuartusPrimeProjects/DE2-115_V.1.0.6_SystemCD/DE2_115_demonstrations/DE2_115_SD_Card_Audio_Player_Copy/Software/Audio_Player_test1_bsp/\libhal_bsp.a(alt_irq_handler.o)
 .debug_info    0x000000000004040e       0x8c c:/Users/Robin/Documents/NHLStenden/FPGA/QuartusPrimeProjects/DE2-115_V.1.0.6_SystemCD/DE2_115_demonstrations/DE2_115_SD_Card_Audio_Player_Copy/Software/Audio_Player_test1_bsp/\libhal_bsp.a(altera_nios2_irq.o)
 .debug_info    0x000000000004049a      0x66f c:/Users/Robin/Documents/NHLStenden/FPGA/QuartusPrimeProjects/DE2-115_V.1.0.6_SystemCD/DE2_115_demonstrations/DE2_115_SD_Card_Audio_Player_Copy/Software/Audio_Player_test1_bsp/\libhal_bsp.a(altera_avalon_cfi_flash_amd.o)
 .debug_info    0x0000000000040b09      0x66f c:/Users/Robin/Documents/NHLStenden/FPGA/QuartusPrimeProjects/DE2-115_V.1.0.6_SystemCD/DE2_115_demonstrations/DE2_115_SD_Card_Audio_Player_Copy/Software/Audio_Player_test1_bsp/\libhal_bsp.a(altera_avalon_cfi_flash_intel.o)
 .debug_info    0x0000000000041178       0x22 c:/Users/Robin/Documents/NHLStenden/FPGA/QuartusPrimeProjects/DE2-115_V.1.0.6_SystemCD/DE2_115_demonstrations/DE2_115_SD_Card_Audio_Player_Copy/Software/Audio_Player_test1_bsp/\libhal_bsp.a(alt_exception_entry.o)
 .debug_info    0x000000000004119a       0xdb c:/Users/Robin/Documents/NHLStenden/FPGA/QuartusPrimeProjects/DE2-115_V.1.0.6_SystemCD/DE2_115_demonstrations/DE2_115_SD_Card_Audio_Player_Copy/Software/Audio_Player_test1_bsp/\libhal_bsp.a(alt_icache_flush.o)
 .debug_info    0x0000000000041275      0x100 c:/intelfpga_lite/21.1/nios2eds/bin/gnu/h-x86_64-mingw32/bin/../lib/gcc/nios2-elf/10.3.1/../../../../../H-x86_64-mingw32/nios2-elf/lib\libc.a(lib_a-atexit.o)
 .debug_info    0x0000000000041375      0x970 c:/intelfpga_lite/21.1/nios2eds/bin/gnu/h-x86_64-mingw32/bin/../lib/gcc/nios2-elf/10.3.1/../../../../../H-x86_64-mingw32/nios2-elf/lib\libc.a(lib_a-exit.o)
 .debug_info    0x0000000000041ce5      0x138 c:/intelfpga_lite/21.1/nios2eds/bin/gnu/h-x86_64-mingw32/bin/../lib/gcc/nios2-elf/10.3.1/../../../../../H-x86_64-mingw32/nios2-elf/lib\libc.a(lib_a-memcmp.o)
 .debug_info    0x0000000000041e1d      0x9b1 c:/intelfpga_lite/21.1/nios2eds/bin/gnu/h-x86_64-mingw32/bin/../lib/gcc/nios2-elf/10.3.1/../../../../../H-x86_64-mingw32/nios2-elf/lib\libc.a(lib_a-__atexit.o)
 .debug_info    0x00000000000427ce      0x9f9 c:/intelfpga_lite/21.1/nios2eds/bin/gnu/h-x86_64-mingw32/bin/../lib/gcc/nios2-elf/10.3.1/../../../../../H-x86_64-mingw32/nios2-elf/lib\libc.a(lib_a-__call_atexit.o)

.debug_abbrev   0x0000000000000000    0x107e0
 *(.debug_abbrev)
 .debug_abbrev  0x0000000000000000       0x12 c:/Users/Robin/Documents/NHLStenden/FPGA/QuartusPrimeProjects/DE2-115_V.1.0.6_SystemCD/DE2_115_demonstrations/DE2_115_SD_Card_Audio_Player_Copy/Software/Audio_Player_test1_bsp//obj/HAL/src/crt0.o
 .debug_abbrev  0x0000000000000012      0x160 obj/default/AUDIO.o
 .debug_abbrev  0x0000000000000172      0x2a9 obj/default/FatFileSystem.o
 .debug_abbrev  0x000000000000041b      0x231 obj/default/FatInternal.o
 .debug_abbrev  0x000000000000064c       0xdc obj/default/I2C.o
 .debug_abbrev  0x0000000000000728      0x275 obj/default/LCD.o
 .debug_abbrev  0x000000000000099d       0xa2 obj/default/LED.o
 .debug_abbrev  0x0000000000000a3f       0xd0 obj/default/SEG7.o
 .debug_abbrev  0x0000000000000b0f       0xdf obj/default/WaveLib.o
 .debug_abbrev  0x0000000000000bee       0xbd obj/default/crc16.o
 .debug_abbrev  0x0000000000000cab       0xc8 obj/default/crc7.o
 .debug_abbrev  0x0000000000000d73       0xe7 obj/default/debug.o
 .debug_abbrev  0x0000000000000e5a      0x33b obj/default/hello_world.o
 .debug_abbrev  0x0000000000001195      0x159 obj/default/sd_hal.o
 .debug_abbrev  0x00000000000012ee      0x144 obj/default/sd_lib.o
 .debug_abbrev  0x0000000000001432      0x19d obj/default/sd_protocol.o
 .debug_abbrev  0x00000000000015cf      0x103 c:/intelfpga_lite/21.1/nios2eds/bin/gnu/h-x86_64-mingw32/bin/../lib/gcc/nios2-elf/10.3.1\libgcc.a(lib2-divmod.o)
 .debug_abbrev  0x00000000000016d2      0x146 c:/intelfpga_lite/21.1/nios2eds/bin/gnu/h-x86_64-mingw32/bin/../lib/gcc/nios2-elf/10.3.1\libgcc.a(divsf3.o)
 .debug_abbrev  0x0000000000001818      0x14a c:/intelfpga_lite/21.1/nios2eds/bin/gnu/h-x86_64-mingw32/bin/../lib/gcc/nios2-elf/10.3.1\libgcc.a(mulsf3.o)
 .debug_abbrev  0x0000000000001962      0x173 c:/intelfpga_lite/21.1/nios2eds/bin/gnu/h-x86_64-mingw32/bin/../lib/gcc/nios2-elf/10.3.1\libgcc.a(floatunsisf.o)
 .debug_abbrev  0x0000000000001ad5      0x16b c:/intelfpga_lite/21.1/nios2eds/bin/gnu/h-x86_64-mingw32/bin/../lib/gcc/nios2-elf/10.3.1\libgcc.a(divdf3.o)
 .debug_abbrev  0x0000000000001c40      0x145 c:/intelfpga_lite/21.1/nios2eds/bin/gnu/h-x86_64-mingw32/bin/../lib/gcc/nios2-elf/10.3.1\libgcc.a(extendsfdf2.o)
 .debug_abbrev  0x0000000000001d85      0x132 c:/intelfpga_lite/21.1/nios2eds/bin/gnu/h-x86_64-mingw32/bin/../lib/gcc/nios2-elf/10.3.1\libgcc.a(truncdfsf2.o)
 .debug_abbrev  0x0000000000001eb7       0xbf c:/intelfpga_lite/21.1/nios2eds/bin/gnu/h-x86_64-mingw32/bin/../lib/gcc/nios2-elf/10.3.1\libgcc.a(_clzsi2.o)
 .debug_abbrev  0x0000000000001f76       0x70 c:/intelfpga_lite/21.1/nios2eds/bin/gnu/h-x86_64-mingw32/bin/../lib/gcc/nios2-elf/10.3.1\libgcc.a(_clz.o)
 .debug_abbrev  0x0000000000001fe6      0x317 c:/intelfpga_lite/21.1/nios2eds/bin/gnu/h-x86_64-mingw32/bin/../lib/gcc/nios2-elf/10.3.1/../../../../../H-x86_64-mingw32/nios2-elf/lib\libc.a(lib_a-fclose.o)
 .debug_abbrev  0x00000000000022fd      0x344 c:/intelfpga_lite/21.1/nios2eds/bin/gnu/h-x86_64-mingw32/bin/../lib/gcc/nios2-elf/10.3.1/../../../../../H-x86_64-mingw32/nios2-elf/lib\libc.a(lib_a-fflush.o)
 .debug_abbrev  0x0000000000002641      0x44c c:/intelfpga_lite/21.1/nios2eds/bin/gnu/h-x86_64-mingw32/bin/../lib/gcc/nios2-elf/10.3.1/../../../../../H-x86_64-mingw32/nios2-elf/lib\libc.a(lib_a-findfp.o)
 .debug_abbrev  0x0000000000002a8d      0x2ba c:/intelfpga_lite/21.1/nios2eds/bin/gnu/h-x86_64-mingw32/bin/../lib/gcc/nios2-elf/10.3.1/../../../../../H-x86_64-mingw32/nios2-elf/lib\libc.a(lib_a-fopen.o)
 .debug_abbrev  0x0000000000002d47      0x2b1 c:/intelfpga_lite/21.1/nios2eds/bin/gnu/h-x86_64-mingw32/bin/../lib/gcc/nios2-elf/10.3.1/../../../../../H-x86_64-mingw32/nios2-elf/lib\libc.a(lib_a-freer.o)
 .debug_abbrev  0x0000000000002ff8      0x294 c:/intelfpga_lite/21.1/nios2eds/bin/gnu/h-x86_64-mingw32/bin/../lib/gcc/nios2-elf/10.3.1/../../../../../H-x86_64-mingw32/nios2-elf/lib\libc.a(lib_a-fseek.o)
 .debug_abbrev  0x000000000000328c      0x308 c:/intelfpga_lite/21.1/nios2eds/bin/gnu/h-x86_64-mingw32/bin/../lib/gcc/nios2-elf/10.3.1/../../../../../H-x86_64-mingw32/nios2-elf/lib\libc.a(lib_a-fseeko.o)
 .debug_abbrev  0x0000000000003594      0x237 c:/intelfpga_lite/21.1/nios2eds/bin/gnu/h-x86_64-mingw32/bin/../lib/gcc/nios2-elf/10.3.1/../../../../../H-x86_64-mingw32/nios2-elf/lib\libc.a(lib_a-fstatr.o)
 .debug_abbrev  0x00000000000037cb      0x20f c:/intelfpga_lite/21.1/nios2eds/bin/gnu/h-x86_64-mingw32/bin/../lib/gcc/nios2-elf/10.3.1/../../../../../H-x86_64-mingw32/nios2-elf/lib\libc.a(lib_a-fwalk.o)
 .debug_abbrev  0x00000000000039da      0x305 c:/intelfpga_lite/21.1/nios2eds/bin/gnu/h-x86_64-mingw32/bin/../lib/gcc/nios2-elf/10.3.1/../../../../../H-x86_64-mingw32/nios2-elf/lib\libc.a(lib_a-fwrite.o)
 .debug_abbrev  0x0000000000003cdf      0x1c9 c:/intelfpga_lite/21.1/nios2eds/bin/gnu/h-x86_64-mingw32/bin/../lib/gcc/nios2-elf/10.3.1/../../../../../H-x86_64-mingw32/nios2-elf/lib\libc.a(lib_a-impure.o)
 .debug_abbrev  0x0000000000003ea8       0x39 c:/intelfpga_lite/21.1/nios2eds/bin/gnu/h-x86_64-mingw32/bin/../lib/gcc/nios2-elf/10.3.1/../../../../../H-x86_64-mingw32/nios2-elf/lib\libc.a(lib_a-int_errno.o)
 .debug_abbrev  0x0000000000003ee1      0x308 c:/intelfpga_lite/21.1/nios2eds/bin/gnu/h-x86_64-mingw32/bin/../lib/gcc/nios2-elf/10.3.1/../../../../../H-x86_64-mingw32/nios2-elf/lib\libc.a(lib_a-makebuf.o)
 .debug_abbrev  0x00000000000041e9      0x22e c:/intelfpga_lite/21.1/nios2eds/bin/gnu/h-x86_64-mingw32/bin/../lib/gcc/nios2-elf/10.3.1/../../../../../H-x86_64-mingw32/nios2-elf/lib\libc.a(lib_a-malloc.o)
 .debug_abbrev  0x0000000000004417      0x2f6 c:/intelfpga_lite/21.1/nios2eds/bin/gnu/h-x86_64-mingw32/bin/../lib/gcc/nios2-elf/10.3.1/../../../../../H-x86_64-mingw32/nios2-elf/lib\libc.a(lib_a-mallocr.o)
 .debug_abbrev  0x000000000000470d       0xb6 c:/intelfpga_lite/21.1/nios2eds/bin/gnu/h-x86_64-mingw32/bin/../lib/gcc/nios2-elf/10.3.1/../../../../../H-x86_64-mingw32/nios2-elf/lib\libc.a(lib_a-memcpy.o)
 .debug_abbrev  0x00000000000047c3       0xb4 c:/intelfpga_lite/21.1/nios2eds/bin/gnu/h-x86_64-mingw32/bin/../lib/gcc/nios2-elf/10.3.1/../../../../../H-x86_64-mingw32/nios2-elf/lib\libc.a(lib_a-memset.o)
 .debug_abbrev  0x0000000000004877      0x237 c:/intelfpga_lite/21.1/nios2eds/bin/gnu/h-x86_64-mingw32/bin/../lib/gcc/nios2-elf/10.3.1/../../../../../H-x86_64-mingw32/nios2-elf/lib\libc.a(lib_a-openr.o)
 .debug_abbrev  0x0000000000004aae      0x265 c:/intelfpga_lite/21.1/nios2eds/bin/gnu/h-x86_64-mingw32/bin/../lib/gcc/nios2-elf/10.3.1/../../../../../H-x86_64-mingw32/nios2-elf/lib\libc.a(lib_a-printf.o)
 .debug_abbrev  0x0000000000004d13      0x244 c:/intelfpga_lite/21.1/nios2eds/bin/gnu/h-x86_64-mingw32/bin/../lib/gcc/nios2-elf/10.3.1/../../../../../H-x86_64-mingw32/nios2-elf/lib\libc.a(lib_a-putchar.o)
 .debug_abbrev  0x0000000000004f57      0x2a0 c:/intelfpga_lite/21.1/nios2eds/bin/gnu/h-x86_64-mingw32/bin/../lib/gcc/nios2-elf/10.3.1/../../../../../H-x86_64-mingw32/nios2-elf/lib\libc.a(lib_a-puts.o)
 .debug_abbrev  0x00000000000051f7      0x297 c:/intelfpga_lite/21.1/nios2eds/bin/gnu/h-x86_64-mingw32/bin/../lib/gcc/nios2-elf/10.3.1/../../../../../H-x86_64-mingw32/nios2-elf/lib\libc.a(lib_a-refill.o)
 .debug_abbrev  0x000000000000548e      0x24e c:/intelfpga_lite/21.1/nios2eds/bin/gnu/h-x86_64-mingw32/bin/../lib/gcc/nios2-elf/10.3.1/../../../../../H-x86_64-mingw32/nios2-elf/lib\libc.a(lib_a-sbrkr.o)
 .debug_abbrev  0x00000000000056dc      0x27c c:/intelfpga_lite/21.1/nios2eds/bin/gnu/h-x86_64-mingw32/bin/../lib/gcc/nios2-elf/10.3.1/../../../../../H-x86_64-mingw32/nios2-elf/lib\libc.a(lib_a-sprintf.o)
 .debug_abbrev  0x0000000000005958      0x273 c:/intelfpga_lite/21.1/nios2eds/bin/gnu/h-x86_64-mingw32/bin/../lib/gcc/nios2-elf/10.3.1/../../../../../H-x86_64-mingw32/nios2-elf/lib\libc.a(lib_a-stdio.o)
 .debug_abbrev  0x0000000000005bcb       0x80 c:/intelfpga_lite/21.1/nios2eds/bin/gnu/h-x86_64-mingw32/bin/../lib/gcc/nios2-elf/10.3.1/../../../../../H-x86_64-mingw32/nios2-elf/lib\libc.a(lib_a-strcmp.o)
 .debug_abbrev  0x0000000000005c4b       0x94 c:/intelfpga_lite/21.1/nios2eds/bin/gnu/h-x86_64-mingw32/bin/../lib/gcc/nios2-elf/10.3.1/../../../../../H-x86_64-mingw32/nios2-elf/lib\libc.a(lib_a-strcpy.o)
 .debug_abbrev  0x0000000000005cdf       0x8f c:/intelfpga_lite/21.1/nios2eds/bin/gnu/h-x86_64-mingw32/bin/../lib/gcc/nios2-elf/10.3.1/../../../../../H-x86_64-mingw32/nios2-elf/lib\libc.a(lib_a-strlen.o)
 .debug_abbrev  0x0000000000005d6e      0x3d9 c:/intelfpga_lite/21.1/nios2eds/bin/gnu/h-x86_64-mingw32/bin/../lib/gcc/nios2-elf/10.3.1/../../../../../H-x86_64-mingw32/nios2-elf/lib\libc.a(lib_a-svfprintf.o)
 .debug_abbrev  0x0000000000006147      0x42f c:/intelfpga_lite/21.1/nios2eds/bin/gnu/h-x86_64-mingw32/bin/../lib/gcc/nios2-elf/10.3.1/../../../../../H-x86_64-mingw32/nios2-elf/lib\libc.a(lib_a-vfprintf.o)
 .debug_abbrev  0x0000000000006576      0x2ea c:/intelfpga_lite/21.1/nios2eds/bin/gnu/h-x86_64-mingw32/bin/../lib/gcc/nios2-elf/10.3.1/../../../../../H-x86_64-mingw32/nios2-elf/lib\libc.a(lib_a-vsnprintf.o)
 .debug_abbrev  0x0000000000006860      0x228 c:/intelfpga_lite/21.1/nios2eds/bin/gnu/h-x86_64-mingw32/bin/../lib/gcc/nios2-elf/10.3.1/../../../../../H-x86_64-mingw32/nios2-elf/lib\libc.a(lib_a-writer.o)
 .debug_abbrev  0x0000000000006a88      0x257 c:/intelfpga_lite/21.1/nios2eds/bin/gnu/h-x86_64-mingw32/bin/../lib/gcc/nios2-elf/10.3.1/../../../../../H-x86_64-mingw32/nios2-elf/lib\libc.a(lib_a-wsetup.o)
 .debug_abbrev  0x0000000000006cdf      0x223 c:/intelfpga_lite/21.1/nios2eds/bin/gnu/h-x86_64-mingw32/bin/../lib/gcc/nios2-elf/10.3.1/../../../../../H-x86_64-mingw32/nios2-elf/lib\libc.a(closer.o)
 .debug_abbrev  0x0000000000006f02      0x345 c:/intelfpga_lite/21.1/nios2eds/bin/gnu/h-x86_64-mingw32/bin/../lib/gcc/nios2-elf/10.3.1/../../../../../H-x86_64-mingw32/nios2-elf/lib\libc.a(lib_a-dtoa.o)
 .debug_abbrev  0x0000000000007247      0x20b c:/intelfpga_lite/21.1/nios2eds/bin/gnu/h-x86_64-mingw32/bin/../lib/gcc/nios2-elf/10.3.1/../../../../../H-x86_64-mingw32/nios2-elf/lib\libc.a(lib_a-flags.o)
 .debug_abbrev  0x0000000000007452      0x295 c:/intelfpga_lite/21.1/nios2eds/bin/gnu/h-x86_64-mingw32/bin/../lib/gcc/nios2-elf/10.3.1/../../../../../H-x86_64-mingw32/nios2-elf/lib\libc.a(lib_a-fvwrite.o)
 .debug_abbrev  0x00000000000076e7      0x223 c:/intelfpga_lite/21.1/nios2eds/bin/gnu/h-x86_64-mingw32/bin/../lib/gcc/nios2-elf/10.3.1/../../../../../H-x86_64-mingw32/nios2-elf/lib\libc.a(lib_a-isattyr.o)
 .debug_abbrev  0x000000000000790a      0x275 c:/intelfpga_lite/21.1/nios2eds/bin/gnu/h-x86_64-mingw32/bin/../lib/gcc/nios2-elf/10.3.1/../../../../../H-x86_64-mingw32/nios2-elf/lib\libc.a(lib_a-localeconv.o)
 .debug_abbrev  0x0000000000007b7f      0x237 c:/intelfpga_lite/21.1/nios2eds/bin/gnu/h-x86_64-mingw32/bin/../lib/gcc/nios2-elf/10.3.1/../../../../../H-x86_64-mingw32/nios2-elf/lib\libc.a(lib_a-lseekr.o)
 .debug_abbrev  0x0000000000007db6       0xc3 c:/intelfpga_lite/21.1/nios2eds/bin/gnu/h-x86_64-mingw32/bin/../lib/gcc/nios2-elf/10.3.1/../../../../../H-x86_64-mingw32/nios2-elf/lib\libc.a(lib_a-memchr.o)
 .debug_abbrev  0x0000000000007e79       0xaf c:/intelfpga_lite/21.1/nios2eds/bin/gnu/h-x86_64-mingw32/bin/../lib/gcc/nios2-elf/10.3.1/../../../../../H-x86_64-mingw32/nios2-elf/lib\libc.a(lib_a-memmove.o)
 .debug_abbrev  0x0000000000007f28      0x4f8 c:/intelfpga_lite/21.1/nios2eds/bin/gnu/h-x86_64-mingw32/bin/../lib/gcc/nios2-elf/10.3.1/../../../../../H-x86_64-mingw32/nios2-elf/lib\libc.a(lib_a-mprec.o)
 .debug_abbrev  0x0000000000008420      0x284 c:/intelfpga_lite/21.1/nios2eds/bin/gnu/h-x86_64-mingw32/bin/../lib/gcc/nios2-elf/10.3.1/../../../../../H-x86_64-mingw32/nios2-elf/lib\libc.a(lib_a-putc.o)
 .debug_abbrev  0x00000000000086a4      0x223 c:/intelfpga_lite/21.1/nios2eds/bin/gnu/h-x86_64-mingw32/bin/../lib/gcc/nios2-elf/10.3.1/../../../../../H-x86_64-mingw32/nios2-elf/lib\libc.a(lib_a-readr.o)
 .debug_abbrev  0x00000000000088c7      0x289 c:/intelfpga_lite/21.1/nios2eds/bin/gnu/h-x86_64-mingw32/bin/../lib/gcc/nios2-elf/10.3.1/../../../../../H-x86_64-mingw32/nios2-elf/lib\libc.a(lib_a-reallocr.o)
 .debug_abbrev  0x0000000000008b50      0x309 c:/intelfpga_lite/21.1/nios2eds/bin/gnu/h-x86_64-mingw32/bin/../lib/gcc/nios2-elf/10.3.1/../../../../../H-x86_64-mingw32/nios2-elf/lib\libc.a(lib_a-svfiprintf.o)
 .debug_abbrev  0x0000000000008e59      0x441 c:/intelfpga_lite/21.1/nios2eds/bin/gnu/h-x86_64-mingw32/bin/../lib/gcc/nios2-elf/10.3.1/../../../../../H-x86_64-mingw32/nios2-elf/lib\libc.a(lib_a-vfiprintf.o)
 .debug_abbrev  0x000000000000929a      0x297 c:/intelfpga_lite/21.1/nios2eds/bin/gnu/h-x86_64-mingw32/bin/../lib/gcc/nios2-elf/10.3.1/../../../../../H-x86_64-mingw32/nios2-elf/lib\libc.a(lib_a-wbuf.o)
 .debug_abbrev  0x0000000000009531      0x23b c:/intelfpga_lite/21.1/nios2eds/bin/gnu/h-x86_64-mingw32/bin/../lib/gcc/nios2-elf/10.3.1/../../../../../H-x86_64-mingw32/nios2-elf/lib\libc.a(lib_a-assert.o)
 .debug_abbrev  0x000000000000976c      0x27f c:/intelfpga_lite/21.1/nios2eds/bin/gnu/h-x86_64-mingw32/bin/../lib/gcc/nios2-elf/10.3.1/../../../../../H-x86_64-mingw32/nios2-elf/lib\libc.a(lib_a-callocr.o)
 .debug_abbrev  0x00000000000099eb      0x1cf c:/intelfpga_lite/21.1/nios2eds/bin/gnu/h-x86_64-mingw32/bin/../lib/gcc/nios2-elf/10.3.1/../../../../../H-x86_64-mingw32/nios2-elf/lib\libc.a(lib_a-errno.o)
 .debug_abbrev  0x0000000000009bba      0x231 c:/intelfpga_lite/21.1/nios2eds/bin/gnu/h-x86_64-mingw32/bin/../lib/gcc/nios2-elf/10.3.1/../../../../../H-x86_64-mingw32/nios2-elf/lib\libc.a(lib_a-fiprintf.o)
 .debug_abbrev  0x0000000000009deb      0x2ff c:/intelfpga_lite/21.1/nios2eds/bin/gnu/h-x86_64-mingw32/bin/../lib/gcc/nios2-elf/10.3.1/../../../../../H-x86_64-mingw32/nios2-elf/lib\libc.a(lib_a-fputwc.o)
 .debug_abbrev  0x000000000000a0ea      0x2f7 c:/intelfpga_lite/21.1/nios2eds/bin/gnu/h-x86_64-mingw32/bin/../lib/gcc/nios2-elf/10.3.1/../../../../../H-x86_64-mingw32/nios2-elf/lib\libc.a(lib_a-locale.o)
 .debug_abbrev  0x000000000000a3e1      0x27a c:/intelfpga_lite/21.1/nios2eds/bin/gnu/h-x86_64-mingw32/bin/../lib/gcc/nios2-elf/10.3.1/../../../../../H-x86_64-mingw32/nios2-elf/lib\libc.a(lib_a-mbtowc_r.o)
 .debug_abbrev  0x000000000000a65b      0x245 c:/intelfpga_lite/21.1/nios2eds/bin/gnu/h-x86_64-mingw32/bin/../lib/gcc/nios2-elf/10.3.1/../../../../../H-x86_64-mingw32/nios2-elf/lib\libc.a(lib_a-vfiprintfr_1.o)
 .debug_abbrev  0x000000000000a8a0      0x25f c:/intelfpga_lite/21.1/nios2eds/bin/gnu/h-x86_64-mingw32/bin/../lib/gcc/nios2-elf/10.3.1/../../../../../H-x86_64-mingw32/nios2-elf/lib\libc.a(lib_a-wcrtomb.o)
 .debug_abbrev  0x000000000000aaff      0x262 c:/intelfpga_lite/21.1/nios2eds/bin/gnu/h-x86_64-mingw32/bin/../lib/gcc/nios2-elf/10.3.1/../../../../../H-x86_64-mingw32/nios2-elf/lib\libc.a(lib_a-wctomb_r.o)
 .debug_abbrev  0x000000000000ad61       0x80 c:/intelfpga_lite/21.1/nios2eds/bin/gnu/h-x86_64-mingw32/bin/../lib/gcc/nios2-elf/10.3.1/../../../../../H-x86_64-mingw32/nios2-elf/lib\libc.a(lib_a-abort.o)
 .debug_abbrev  0x000000000000ade1       0x73 c:/intelfpga_lite/21.1/nios2eds/bin/gnu/h-x86_64-mingw32/bin/../lib/gcc/nios2-elf/10.3.1/../../../../../H-x86_64-mingw32/nios2-elf/lib\libc.a(lib_a-ctype_.o)
 .debug_abbrev  0x000000000000ae54      0x343 c:/intelfpga_lite/21.1/nios2eds/bin/gnu/h-x86_64-mingw32/bin/../lib/gcc/nios2-elf/10.3.1/../../../../../H-x86_64-mingw32/nios2-elf/lib\libc.a(lib_a-signal.o)
 .debug_abbrev  0x000000000000b197      0x240 c:/intelfpga_lite/21.1/nios2eds/bin/gnu/h-x86_64-mingw32/bin/../lib/gcc/nios2-elf/10.3.1/../../../../../H-x86_64-mingw32/nios2-elf/lib\libc.a(lib_a-signalr.o)
 .debug_abbrev  0x000000000000b3d7      0x1b4 c:/intelfpga_lite/21.1/nios2eds/bin/gnu/h-x86_64-mingw32/bin/../lib/gcc/nios2-elf/10.3.1\libgcc.a(_udivdi3.o)
 .debug_abbrev  0x000000000000b58b      0x1d7 c:/intelfpga_lite/21.1/nios2eds/bin/gnu/h-x86_64-mingw32/bin/../lib/gcc/nios2-elf/10.3.1\libgcc.a(_umoddi3.o)
 .debug_abbrev  0x000000000000b762      0x16b c:/intelfpga_lite/21.1/nios2eds/bin/gnu/h-x86_64-mingw32/bin/../lib/gcc/nios2-elf/10.3.1\libgcc.a(adddf3.o)
 .debug_abbrev  0x000000000000b8cd      0x12f c:/intelfpga_lite/21.1/nios2eds/bin/gnu/h-x86_64-mingw32/bin/../lib/gcc/nios2-elf/10.3.1\libgcc.a(eqdf2.o)
 .debug_abbrev  0x000000000000b9fc      0x153 c:/intelfpga_lite/21.1/nios2eds/bin/gnu/h-x86_64-mingw32/bin/../lib/gcc/nios2-elf/10.3.1\libgcc.a(gedf2.o)
 .debug_abbrev  0x000000000000bb4f      0x153 c:/intelfpga_lite/21.1/nios2eds/bin/gnu/h-x86_64-mingw32/bin/../lib/gcc/nios2-elf/10.3.1\libgcc.a(ledf2.o)
 .debug_abbrev  0x000000000000bca2      0x17d c:/intelfpga_lite/21.1/nios2eds/bin/gnu/h-x86_64-mingw32/bin/../lib/gcc/nios2-elf/10.3.1\libgcc.a(muldf3.o)
 .debug_abbrev  0x000000000000be1f      0x16b c:/intelfpga_lite/21.1/nios2eds/bin/gnu/h-x86_64-mingw32/bin/../lib/gcc/nios2-elf/10.3.1\libgcc.a(subdf3.o)
 .debug_abbrev  0x000000000000bf8a      0x12f c:/intelfpga_lite/21.1/nios2eds/bin/gnu/h-x86_64-mingw32/bin/../lib/gcc/nios2-elf/10.3.1\libgcc.a(unorddf2.o)
 .debug_abbrev  0x000000000000c0b9      0x145 c:/intelfpga_lite/21.1/nios2eds/bin/gnu/h-x86_64-mingw32/bin/../lib/gcc/nios2-elf/10.3.1\libgcc.a(fixdfsi.o)
 .debug_abbrev  0x000000000000c1fe      0x16d c:/intelfpga_lite/21.1/nios2eds/bin/gnu/h-x86_64-mingw32/bin/../lib/gcc/nios2-elf/10.3.1\libgcc.a(floatsidf.o)
 .debug_abbrev  0x000000000000c36b      0x16d c:/intelfpga_lite/21.1/nios2eds/bin/gnu/h-x86_64-mingw32/bin/../lib/gcc/nios2-elf/10.3.1\libgcc.a(floatunsidf.o)
 .debug_abbrev  0x000000000000c4d8      0x133 c:/Users/Robin/Documents/NHLStenden/FPGA/QuartusPrimeProjects/DE2-115_V.1.0.6_SystemCD/DE2_115_demonstrations/DE2_115_SD_Card_Audio_Player_Copy/Software/Audio_Player_test1_bsp/\libhal_bsp.a(alt_close.o)
 .debug_abbrev  0x000000000000c60b      0x117 c:/Users/Robin/Documents/NHLStenden/FPGA/QuartusPrimeProjects/DE2-115_V.1.0.6_SystemCD/DE2_115_demonstrations/DE2_115_SD_Card_Audio_Player_Copy/Software/Audio_Player_test1_bsp/\libhal_bsp.a(alt_dev.o)
 .debug_abbrev  0x000000000000c722       0x5a c:/Users/Robin/Documents/NHLStenden/FPGA/QuartusPrimeProjects/DE2-115_V.1.0.6_SystemCD/DE2_115_demonstrations/DE2_115_SD_Card_Audio_Player_Copy/Software/Audio_Player_test1_bsp/\libhal_bsp.a(alt_errno.o)
 .debug_abbrev  0x000000000000c77c       0xac c:/Users/Robin/Documents/NHLStenden/FPGA/QuartusPrimeProjects/DE2-115_V.1.0.6_SystemCD/DE2_115_demonstrations/DE2_115_SD_Card_Audio_Player_Copy/Software/Audio_Player_test1_bsp/\libhal_bsp.a(alt_exit.o)
 .debug_abbrev  0x000000000000c828      0x133 c:/Users/Robin/Documents/NHLStenden/FPGA/QuartusPrimeProjects/DE2-115_V.1.0.6_SystemCD/DE2_115_demonstrations/DE2_115_SD_Card_Audio_Player_Copy/Software/Audio_Player_test1_bsp/\libhal_bsp.a(alt_fstat.o)
 .debug_abbrev  0x000000000000c95b       0x3b c:/Users/Robin/Documents/NHLStenden/FPGA/QuartusPrimeProjects/DE2-115_V.1.0.6_SystemCD/DE2_115_demonstrations/DE2_115_SD_Card_Audio_Player_Copy/Software/Audio_Player_test1_bsp/\libhal_bsp.a(alt_getpid.o)
 .debug_abbrev  0x000000000000c996      0x1b0 c:/Users/Robin/Documents/NHLStenden/FPGA/QuartusPrimeProjects/DE2-115_V.1.0.6_SystemCD/DE2_115_demonstrations/DE2_115_SD_Card_Audio_Player_Copy/Software/Audio_Player_test1_bsp/\libhal_bsp.a(alt_irq_register.o)
 .debug_abbrev  0x000000000000cb46       0x44 c:/Users/Robin/Documents/NHLStenden/FPGA/QuartusPrimeProjects/DE2-115_V.1.0.6_SystemCD/DE2_115_demonstrations/DE2_115_SD_Card_Audio_Player_Copy/Software/Audio_Player_test1_bsp/\libhal_bsp.a(alt_irq_vars.o)
 .debug_abbrev  0x000000000000cb8a      0x133 c:/Users/Robin/Documents/NHLStenden/FPGA/QuartusPrimeProjects/DE2-115_V.1.0.6_SystemCD/DE2_115_demonstrations/DE2_115_SD_Card_Audio_Player_Copy/Software/Audio_Player_test1_bsp/\libhal_bsp.a(alt_isatty.o)
 .debug_abbrev  0x000000000000ccbd       0xa9 c:/Users/Robin/Documents/NHLStenden/FPGA/QuartusPrimeProjects/DE2-115_V.1.0.6_SystemCD/DE2_115_demonstrations/DE2_115_SD_Card_Audio_Player_Copy/Software/Audio_Player_test1_bsp/\libhal_bsp.a(alt_kill.o)
 .debug_abbrev  0x000000000000cd66       0xab c:/Users/Robin/Documents/NHLStenden/FPGA/QuartusPrimeProjects/DE2-115_V.1.0.6_SystemCD/DE2_115_demonstrations/DE2_115_SD_Card_Audio_Player_Copy/Software/Audio_Player_test1_bsp/\libhal_bsp.a(alt_load.o)
 .debug_abbrev  0x000000000000ce11      0x133 c:/Users/Robin/Documents/NHLStenden/FPGA/QuartusPrimeProjects/DE2-115_V.1.0.6_SystemCD/DE2_115_demonstrations/DE2_115_SD_Card_Audio_Player_Copy/Software/Audio_Player_test1_bsp/\libhal_bsp.a(alt_lseek.o)
 .debug_abbrev  0x000000000000cf44       0x86 c:/Users/Robin/Documents/NHLStenden/FPGA/QuartusPrimeProjects/DE2-115_V.1.0.6_SystemCD/DE2_115_demonstrations/DE2_115_SD_Card_Audio_Player_Copy/Software/Audio_Player_test1_bsp/\libhal_bsp.a(alt_main.o)
 .debug_abbrev  0x000000000000cfca      0x1e7 c:/Users/Robin/Documents/NHLStenden/FPGA/QuartusPrimeProjects/DE2-115_V.1.0.6_SystemCD/DE2_115_demonstrations/DE2_115_SD_Card_Audio_Player_Copy/Software/Audio_Player_test1_bsp/\libhal_bsp.a(alt_malloc_lock.o)
 .debug_abbrev  0x000000000000d1b1      0x160 c:/Users/Robin/Documents/NHLStenden/FPGA/QuartusPrimeProjects/DE2-115_V.1.0.6_SystemCD/DE2_115_demonstrations/DE2_115_SD_Card_Audio_Player_Copy/Software/Audio_Player_test1_bsp/\libhal_bsp.a(alt_open.o)
 .debug_abbrev  0x000000000000d311      0x144 c:/Users/Robin/Documents/NHLStenden/FPGA/QuartusPrimeProjects/DE2-115_V.1.0.6_SystemCD/DE2_115_demonstrations/DE2_115_SD_Card_Audio_Player_Copy/Software/Audio_Player_test1_bsp/\libhal_bsp.a(alt_read.o)
 .debug_abbrev  0x000000000000d455       0xea c:/Users/Robin/Documents/NHLStenden/FPGA/QuartusPrimeProjects/DE2-115_V.1.0.6_SystemCD/DE2_115_demonstrations/DE2_115_SD_Card_Audio_Player_Copy/Software/Audio_Player_test1_bsp/\libhal_bsp.a(alt_release_fd.o)
 .debug_abbrev  0x000000000000d53f      0x11d c:/Users/Robin/Documents/NHLStenden/FPGA/QuartusPrimeProjects/DE2-115_V.1.0.6_SystemCD/DE2_115_demonstrations/DE2_115_SD_Card_Audio_Player_Copy/Software/Audio_Player_test1_bsp/\libhal_bsp.a(alt_sbrk.o)
 .debug_abbrev  0x000000000000d65c      0x17a c:/Users/Robin/Documents/NHLStenden/FPGA/QuartusPrimeProjects/DE2-115_V.1.0.6_SystemCD/DE2_115_demonstrations/DE2_115_SD_Card_Audio_Player_Copy/Software/Audio_Player_test1_bsp/\libhal_bsp.a(alt_tick.o)
 .debug_abbrev  0x000000000000d7d6       0x66 c:/Users/Robin/Documents/NHLStenden/FPGA/QuartusPrimeProjects/DE2-115_V.1.0.6_SystemCD/DE2_115_demonstrations/DE2_115_SD_Card_Audio_Player_Copy/Software/Audio_Player_test1_bsp/\libhal_bsp.a(alt_usleep.o)
 .debug_abbrev  0x000000000000d83c      0x149 c:/Users/Robin/Documents/NHLStenden/FPGA/QuartusPrimeProjects/DE2-115_V.1.0.6_SystemCD/DE2_115_demonstrations/DE2_115_SD_Card_Audio_Player_Copy/Software/Audio_Player_test1_bsp/\libhal_bsp.a(alt_write.o)
 .debug_abbrev  0x000000000000d985      0x1b9 c:/Users/Robin/Documents/NHLStenden/FPGA/QuartusPrimeProjects/DE2-115_V.1.0.6_SystemCD/DE2_115_demonstrations/DE2_115_SD_Card_Audio_Player_Copy/Software/Audio_Player_test1_bsp/\libhal_bsp.a(alt_sys_init.o)
 .debug_abbrev  0x000000000000db3e      0x1ed c:/Users/Robin/Documents/NHLStenden/FPGA/QuartusPrimeProjects/DE2-115_V.1.0.6_SystemCD/DE2_115_demonstrations/DE2_115_SD_Card_Audio_Player_Copy/Software/Audio_Player_test1_bsp/\libhal_bsp.a(altera_avalon_cfi_flash.o)
 .debug_abbrev  0x000000000000dd2b      0x19a c:/Users/Robin/Documents/NHLStenden/FPGA/QuartusPrimeProjects/DE2-115_V.1.0.6_SystemCD/DE2_115_demonstrations/DE2_115_SD_Card_Audio_Player_Copy/Software/Audio_Player_test1_bsp/\libhal_bsp.a(altera_avalon_cfi_flash_table.o)
 .debug_abbrev  0x000000000000dec5      0x146 c:/Users/Robin/Documents/NHLStenden/FPGA/QuartusPrimeProjects/DE2-115_V.1.0.6_SystemCD/DE2_115_demonstrations/DE2_115_SD_Card_Audio_Player_Copy/Software/Audio_Player_test1_bsp/\libhal_bsp.a(altera_avalon_jtag_uart_fd.o)
 .debug_abbrev  0x000000000000e00b      0x1be c:/Users/Robin/Documents/NHLStenden/FPGA/QuartusPrimeProjects/DE2-115_V.1.0.6_SystemCD/DE2_115_demonstrations/DE2_115_SD_Card_Audio_Player_Copy/Software/Audio_Player_test1_bsp/\libhal_bsp.a(altera_avalon_jtag_uart_init.o)
 .debug_abbrev  0x000000000000e1c9      0x112 c:/Users/Robin/Documents/NHLStenden/FPGA/QuartusPrimeProjects/DE2-115_V.1.0.6_SystemCD/DE2_115_demonstrations/DE2_115_SD_Card_Audio_Player_Copy/Software/Audio_Player_test1_bsp/\libhal_bsp.a(altera_avalon_jtag_uart_ioctl.o)
 .debug_abbrev  0x000000000000e2db      0x1b0 c:/Users/Robin/Documents/NHLStenden/FPGA/QuartusPrimeProjects/DE2-115_V.1.0.6_SystemCD/DE2_115_demonstrations/DE2_115_SD_Card_Audio_Player_Copy/Software/Audio_Player_test1_bsp/\libhal_bsp.a(altera_avalon_jtag_uart_read.o)
 .debug_abbrev  0x000000000000e48b      0x1ae c:/Users/Robin/Documents/NHLStenden/FPGA/QuartusPrimeProjects/DE2-115_V.1.0.6_SystemCD/DE2_115_demonstrations/DE2_115_SD_Card_Audio_Player_Copy/Software/Audio_Player_test1_bsp/\libhal_bsp.a(altera_avalon_jtag_uart_write.o)
 .debug_abbrev  0x000000000000e639      0x14b c:/Users/Robin/Documents/NHLStenden/FPGA/QuartusPrimeProjects/DE2-115_V.1.0.6_SystemCD/DE2_115_demonstrations/DE2_115_SD_Card_Audio_Player_Copy/Software/Audio_Player_test1_bsp/\libhal_bsp.a(altera_avalon_timer_sc.o)
 .debug_abbrev  0x000000000000e784      0x124 c:/Users/Robin/Documents/NHLStenden/FPGA/QuartusPrimeProjects/DE2-115_V.1.0.6_SystemCD/DE2_115_demonstrations/DE2_115_SD_Card_Audio_Player_Copy/Software/Audio_Player_test1_bsp/\libhal_bsp.a(altera_avalon_uart_fd.o)
 .debug_abbrev  0x000000000000e8a8      0x17c c:/Users/Robin/Documents/NHLStenden/FPGA/QuartusPrimeProjects/DE2-115_V.1.0.6_SystemCD/DE2_115_demonstrations/DE2_115_SD_Card_Audio_Player_Copy/Software/Audio_Player_test1_bsp/\libhal_bsp.a(altera_avalon_uart_init.o)
 .debug_abbrev  0x000000000000ea24      0x1a9 c:/Users/Robin/Documents/NHLStenden/FPGA/QuartusPrimeProjects/DE2-115_V.1.0.6_SystemCD/DE2_115_demonstrations/DE2_115_SD_Card_Audio_Player_Copy/Software/Audio_Player_test1_bsp/\libhal_bsp.a(altera_avalon_uart_read.o)
 .debug_abbrev  0x000000000000ebcd      0x1b0 c:/Users/Robin/Documents/NHLStenden/FPGA/QuartusPrimeProjects/DE2-115_V.1.0.6_SystemCD/DE2_115_demonstrations/DE2_115_SD_Card_Audio_Player_Copy/Software/Audio_Player_test1_bsp/\libhal_bsp.a(altera_avalon_uart_write.o)
 .debug_abbrev  0x000000000000ed7d      0x188 c:/Users/Robin/Documents/NHLStenden/FPGA/QuartusPrimeProjects/DE2-115_V.1.0.6_SystemCD/DE2_115_demonstrations/DE2_115_SD_Card_Audio_Player_Copy/Software/Audio_Player_test1_bsp/\libhal_bsp.a(alt_alarm_start.o)
 .debug_abbrev  0x000000000000ef05       0x88 c:/Users/Robin/Documents/NHLStenden/FPGA/QuartusPrimeProjects/DE2-115_V.1.0.6_SystemCD/DE2_115_demonstrations/DE2_115_SD_Card_Audio_Player_Copy/Software/Audio_Player_test1_bsp/\libhal_bsp.a(alt_busy_sleep.o)
 .debug_abbrev  0x000000000000ef8d       0x96 c:/Users/Robin/Documents/NHLStenden/FPGA/QuartusPrimeProjects/DE2-115_V.1.0.6_SystemCD/DE2_115_demonstrations/DE2_115_SD_Card_Audio_Player_Copy/Software/Audio_Player_test1_bsp/\libhal_bsp.a(alt_dcache_flush.o)
 .debug_abbrev  0x000000000000f023       0x5e c:/Users/Robin/Documents/NHLStenden/FPGA/QuartusPrimeProjects/DE2-115_V.1.0.6_SystemCD/DE2_115_demonstrations/DE2_115_SD_Card_Audio_Player_Copy/Software/Audio_Player_test1_bsp/\libhal_bsp.a(alt_dcache_flush_all.o)
 .debug_abbrev  0x000000000000f081      0x12a c:/Users/Robin/Documents/NHLStenden/FPGA/QuartusPrimeProjects/DE2-115_V.1.0.6_SystemCD/DE2_115_demonstrations/DE2_115_SD_Card_Audio_Player_Copy/Software/Audio_Player_test1_bsp/\libhal_bsp.a(alt_dev_llist_insert.o)
 .debug_abbrev  0x000000000000f1ab       0x81 c:/Users/Robin/Documents/NHLStenden/FPGA/QuartusPrimeProjects/DE2-115_V.1.0.6_SystemCD/DE2_115_demonstrations/DE2_115_SD_Card_Audio_Player_Copy/Software/Audio_Player_test1_bsp/\libhal_bsp.a(alt_do_ctors.o)
 .debug_abbrev  0x000000000000f22c       0x81 c:/Users/Robin/Documents/NHLStenden/FPGA/QuartusPrimeProjects/DE2-115_V.1.0.6_SystemCD/DE2_115_demonstrations/DE2_115_SD_Card_Audio_Player_Copy/Software/Audio_Player_test1_bsp/\libhal_bsp.a(alt_do_dtors.o)
 .debug_abbrev  0x000000000000f2ad       0xed c:/Users/Robin/Documents/NHLStenden/FPGA/QuartusPrimeProjects/DE2-115_V.1.0.6_SystemCD/DE2_115_demonstrations/DE2_115_SD_Card_Audio_Player_Copy/Software/Audio_Player_test1_bsp/\libhal_bsp.a(alt_find_dev.o)
 .debug_abbrev  0x000000000000f39a      0x100 c:/Users/Robin/Documents/NHLStenden/FPGA/QuartusPrimeProjects/DE2-115_V.1.0.6_SystemCD/DE2_115_demonstrations/DE2_115_SD_Card_Audio_Player_Copy/Software/Audio_Player_test1_bsp/\libhal_bsp.a(alt_find_file.o)
 .debug_abbrev  0x000000000000f49a      0x119 c:/Users/Robin/Documents/NHLStenden/FPGA/QuartusPrimeProjects/DE2-115_V.1.0.6_SystemCD/DE2_115_demonstrations/DE2_115_SD_Card_Audio_Player_Copy/Software/Audio_Player_test1_bsp/\libhal_bsp.a(alt_flash_dev.o)
 .debug_abbrev  0x000000000000f5b3      0x121 c:/Users/Robin/Documents/NHLStenden/FPGA/QuartusPrimeProjects/DE2-115_V.1.0.6_SystemCD/DE2_115_demonstrations/DE2_115_SD_Card_Audio_Player_Copy/Software/Audio_Player_test1_bsp/\libhal_bsp.a(alt_get_fd.o)
 .debug_abbrev  0x000000000000f6d4       0x44 c:/Users/Robin/Documents/NHLStenden/FPGA/QuartusPrimeProjects/DE2-115_V.1.0.6_SystemCD/DE2_115_demonstrations/DE2_115_SD_Card_Audio_Player_Copy/Software/Audio_Player_test1_bsp/\libhal_bsp.a(alt_icache_flush_all.o)
 .debug_abbrev  0x000000000000f718      0x189 c:/Users/Robin/Documents/NHLStenden/FPGA/QuartusPrimeProjects/DE2-115_V.1.0.6_SystemCD/DE2_115_demonstrations/DE2_115_SD_Card_Audio_Player_Copy/Software/Audio_Player_test1_bsp/\libhal_bsp.a(alt_iic.o)
 .debug_abbrev  0x000000000000f8a1      0x17c c:/Users/Robin/Documents/NHLStenden/FPGA/QuartusPrimeProjects/DE2-115_V.1.0.6_SystemCD/DE2_115_demonstrations/DE2_115_SD_Card_Audio_Player_Copy/Software/Audio_Player_test1_bsp/\libhal_bsp.a(alt_iic_isr_register.o)
 .debug_abbrev  0x000000000000fa1d      0x126 c:/Users/Robin/Documents/NHLStenden/FPGA/QuartusPrimeProjects/DE2-115_V.1.0.6_SystemCD/DE2_115_demonstrations/DE2_115_SD_Card_Audio_Player_Copy/Software/Audio_Player_test1_bsp/\libhal_bsp.a(alt_io_redirect.o)
 .debug_abbrev  0x000000000000fb43       0x12 c:/Users/Robin/Documents/NHLStenden/FPGA/QuartusPrimeProjects/DE2-115_V.1.0.6_SystemCD/DE2_115_demonstrations/DE2_115_SD_Card_Audio_Player_Copy/Software/Audio_Player_test1_bsp/\libhal_bsp.a(alt_irq_entry.o)
 .debug_abbrev  0x000000000000fb55      0x12d c:/Users/Robin/Documents/NHLStenden/FPGA/QuartusPrimeProjects/DE2-115_V.1.0.6_SystemCD/DE2_115_demonstrations/DE2_115_SD_Card_Audio_Player_Copy/Software/Audio_Player_test1_bsp/\libhal_bsp.a(alt_irq_handler.o)
 .debug_abbrev  0x000000000000fc82       0x44 c:/Users/Robin/Documents/NHLStenden/FPGA/QuartusPrimeProjects/DE2-115_V.1.0.6_SystemCD/DE2_115_demonstrations/DE2_115_SD_Card_Audio_Player_Copy/Software/Audio_Player_test1_bsp/\libhal_bsp.a(altera_nios2_irq.o)
 .debug_abbrev  0x000000000000fcc6      0x134 c:/Users/Robin/Documents/NHLStenden/FPGA/QuartusPrimeProjects/DE2-115_V.1.0.6_SystemCD/DE2_115_demonstrations/DE2_115_SD_Card_Audio_Player_Copy/Software/Audio_Player_test1_bsp/\libhal_bsp.a(altera_avalon_cfi_flash_amd.o)
 .debug_abbrev  0x000000000000fdfa      0x134 c:/Users/Robin/Documents/NHLStenden/FPGA/QuartusPrimeProjects/DE2-115_V.1.0.6_SystemCD/DE2_115_demonstrations/DE2_115_SD_Card_Audio_Player_Copy/Software/Audio_Player_test1_bsp/\libhal_bsp.a(altera_avalon_cfi_flash_intel.o)
 .debug_abbrev  0x000000000000ff2e       0x12 c:/Users/Robin/Documents/NHLStenden/FPGA/QuartusPrimeProjects/DE2-115_V.1.0.6_SystemCD/DE2_115_demonstrations/DE2_115_SD_Card_Audio_Player_Copy/Software/Audio_Player_test1_bsp/\libhal_bsp.a(alt_exception_entry.o)
 .debug_abbrev  0x000000000000ff40       0x96 c:/Users/Robin/Documents/NHLStenden/FPGA/QuartusPrimeProjects/DE2-115_V.1.0.6_SystemCD/DE2_115_demonstrations/DE2_115_SD_Card_Audio_Player_Copy/Software/Audio_Player_test1_bsp/\libhal_bsp.a(alt_icache_flush.o)
 .debug_abbrev  0x000000000000ffd6       0xb7 c:/intelfpga_lite/21.1/nios2eds/bin/gnu/h-x86_64-mingw32/bin/../lib/gcc/nios2-elf/10.3.1/../../../../../H-x86_64-mingw32/nios2-elf/lib\libc.a(lib_a-atexit.o)
 .debug_abbrev  0x000000000001008d      0x21d c:/intelfpga_lite/21.1/nios2eds/bin/gnu/h-x86_64-mingw32/bin/../lib/gcc/nios2-elf/10.3.1/../../../../../H-x86_64-mingw32/nios2-elf/lib\libc.a(lib_a-exit.o)
 .debug_abbrev  0x00000000000102aa       0x8d c:/intelfpga_lite/21.1/nios2eds/bin/gnu/h-x86_64-mingw32/bin/../lib/gcc/nios2-elf/10.3.1/../../../../../H-x86_64-mingw32/nios2-elf/lib\libc.a(lib_a-memcmp.o)
 .debug_abbrev  0x0000000000010337      0x250 c:/intelfpga_lite/21.1/nios2eds/bin/gnu/h-x86_64-mingw32/bin/../lib/gcc/nios2-elf/10.3.1/../../../../../H-x86_64-mingw32/nios2-elf/lib\libc.a(lib_a-__atexit.o)
 .debug_abbrev  0x0000000000010587      0x259 c:/intelfpga_lite/21.1/nios2eds/bin/gnu/h-x86_64-mingw32/bin/../lib/gcc/nios2-elf/10.3.1/../../../../../H-x86_64-mingw32/nios2-elf/lib\libc.a(lib_a-__call_atexit.o)

.debug_line     0x0000000000000000    0x22bf2
 *(.debug_line)
 .debug_line    0x0000000000000000       0x72 c:/Users/Robin/Documents/NHLStenden/FPGA/QuartusPrimeProjects/DE2-115_V.1.0.6_SystemCD/DE2_115_demonstrations/DE2_115_SD_Card_Audio_Player_Copy/Software/Audio_Player_test1_bsp//obj/HAL/src/crt0.o
 .debug_line    0x0000000000000072      0x43a obj/default/AUDIO.o
 .debug_line    0x00000000000004ac      0x9da obj/default/FatFileSystem.o
 .debug_line    0x0000000000000e86      0x82e obj/default/FatInternal.o
 .debug_line    0x00000000000016b4      0x333 obj/default/I2C.o
 .debug_line    0x00000000000019e7      0x306 obj/default/LCD.o
 .debug_line    0x0000000000001ced      0x152 obj/default/LED.o
 .debug_line    0x0000000000001e3f      0x1f3 obj/default/SEG7.o
 .debug_line    0x0000000000002032      0x25d obj/default/WaveLib.o
 .debug_line    0x000000000000228f      0x164 obj/default/crc16.o
 .debug_line    0x00000000000023f3      0x12b obj/default/crc7.o
 .debug_line    0x000000000000251e      0x17e obj/default/debug.o
 .debug_line    0x000000000000269c      0x9a2 obj/default/hello_world.o
 .debug_line    0x000000000000303e      0x37e obj/default/sd_hal.o
 .debug_line    0x00000000000033bc      0x42c obj/default/sd_lib.o
 .debug_line    0x00000000000037e8      0x940 obj/default/sd_protocol.o
 .debug_line    0x0000000000004128      0x303 c:/intelfpga_lite/21.1/nios2eds/bin/gnu/h-x86_64-mingw32/bin/../lib/gcc/nios2-elf/10.3.1\libgcc.a(lib2-divmod.o)
 .debug_line    0x000000000000442b      0x50a c:/intelfpga_lite/21.1/nios2eds/bin/gnu/h-x86_64-mingw32/bin/../lib/gcc/nios2-elf/10.3.1\libgcc.a(divsf3.o)
 .debug_line    0x0000000000004935      0x53d c:/intelfpga_lite/21.1/nios2eds/bin/gnu/h-x86_64-mingw32/bin/../lib/gcc/nios2-elf/10.3.1\libgcc.a(mulsf3.o)
 .debug_line    0x0000000000004e72      0x203 c:/intelfpga_lite/21.1/nios2eds/bin/gnu/h-x86_64-mingw32/bin/../lib/gcc/nios2-elf/10.3.1\libgcc.a(floatunsisf.o)
 .debug_line    0x0000000000005075      0xac1 c:/intelfpga_lite/21.1/nios2eds/bin/gnu/h-x86_64-mingw32/bin/../lib/gcc/nios2-elf/10.3.1\libgcc.a(divdf3.o)
 .debug_line    0x0000000000005b36      0x27d c:/intelfpga_lite/21.1/nios2eds/bin/gnu/h-x86_64-mingw32/bin/../lib/gcc/nios2-elf/10.3.1\libgcc.a(extendsfdf2.o)
 .debug_line    0x0000000000005db3      0x2f3 c:/intelfpga_lite/21.1/nios2eds/bin/gnu/h-x86_64-mingw32/bin/../lib/gcc/nios2-elf/10.3.1\libgcc.a(truncdfsf2.o)
 .debug_line    0x00000000000060a6       0xa7 c:/intelfpga_lite/21.1/nios2eds/bin/gnu/h-x86_64-mingw32/bin/../lib/gcc/nios2-elf/10.3.1\libgcc.a(_clzsi2.o)
 .debug_line    0x000000000000614d       0x56 c:/intelfpga_lite/21.1/nios2eds/bin/gnu/h-x86_64-mingw32/bin/../lib/gcc/nios2-elf/10.3.1\libgcc.a(_clz.o)
 .debug_line    0x00000000000061a3      0x38d c:/intelfpga_lite/21.1/nios2eds/bin/gnu/h-x86_64-mingw32/bin/../lib/gcc/nios2-elf/10.3.1/../../../../../H-x86_64-mingw32/nios2-elf/lib\libc.a(lib_a-fclose.o)
 .debug_line    0x0000000000006530      0x55c c:/intelfpga_lite/21.1/nios2eds/bin/gnu/h-x86_64-mingw32/bin/../lib/gcc/nios2-elf/10.3.1/../../../../../H-x86_64-mingw32/nios2-elf/lib\libc.a(lib_a-fflush.o)
 .debug_line    0x0000000000006a8c      0x699 c:/intelfpga_lite/21.1/nios2eds/bin/gnu/h-x86_64-mingw32/bin/../lib/gcc/nios2-elf/10.3.1/../../../../../H-x86_64-mingw32/nios2-elf/lib\libc.a(lib_a-findfp.o)
 .debug_line    0x0000000000007125      0x2d7 c:/intelfpga_lite/21.1/nios2eds/bin/gnu/h-x86_64-mingw32/bin/../lib/gcc/nios2-elf/10.3.1/../../../../../H-x86_64-mingw32/nios2-elf/lib\libc.a(lib_a-fopen.o)
 .debug_line    0x00000000000073fc      0x5c8 c:/intelfpga_lite/21.1/nios2eds/bin/gnu/h-x86_64-mingw32/bin/../lib/gcc/nios2-elf/10.3.1/../../../../../H-x86_64-mingw32/nios2-elf/lib\libc.a(lib_a-freer.o)
 .debug_line    0x00000000000079c4      0x232 c:/intelfpga_lite/21.1/nios2eds/bin/gnu/h-x86_64-mingw32/bin/../lib/gcc/nios2-elf/10.3.1/../../../../../H-x86_64-mingw32/nios2-elf/lib\libc.a(lib_a-fseek.o)
 .debug_line    0x0000000000007bf6      0x777 c:/intelfpga_lite/21.1/nios2eds/bin/gnu/h-x86_64-mingw32/bin/../lib/gcc/nios2-elf/10.3.1/../../../../../H-x86_64-mingw32/nios2-elf/lib\libc.a(lib_a-fseeko.o)
 .debug_line    0x000000000000836d      0x2da c:/intelfpga_lite/21.1/nios2eds/bin/gnu/h-x86_64-mingw32/bin/../lib/gcc/nios2-elf/10.3.1/../../../../../H-x86_64-mingw32/nios2-elf/lib\libc.a(lib_a-fstatr.o)
 .debug_line    0x0000000000008647      0x366 c:/intelfpga_lite/21.1/nios2eds/bin/gnu/h-x86_64-mingw32/bin/../lib/gcc/nios2-elf/10.3.1/../../../../../H-x86_64-mingw32/nios2-elf/lib\libc.a(lib_a-fwalk.o)
 .debug_line    0x00000000000089ad      0x377 c:/intelfpga_lite/21.1/nios2eds/bin/gnu/h-x86_64-mingw32/bin/../lib/gcc/nios2-elf/10.3.1/../../../../../H-x86_64-mingw32/nios2-elf/lib\libc.a(lib_a-fwrite.o)
 .debug_line    0x0000000000008d24      0x164 c:/intelfpga_lite/21.1/nios2eds/bin/gnu/h-x86_64-mingw32/bin/../lib/gcc/nios2-elf/10.3.1/../../../../../H-x86_64-mingw32/nios2-elf/lib\libc.a(lib_a-impure.o)
 .debug_line    0x0000000000008e88       0x5e c:/intelfpga_lite/21.1/nios2eds/bin/gnu/h-x86_64-mingw32/bin/../lib/gcc/nios2-elf/10.3.1/../../../../../H-x86_64-mingw32/nios2-elf/lib\libc.a(lib_a-int_errno.o)
 .debug_line    0x0000000000008ee6      0x4e4 c:/intelfpga_lite/21.1/nios2eds/bin/gnu/h-x86_64-mingw32/bin/../lib/gcc/nios2-elf/10.3.1/../../../../../H-x86_64-mingw32/nios2-elf/lib\libc.a(lib_a-makebuf.o)
 .debug_line    0x00000000000093ca      0x219 c:/intelfpga_lite/21.1/nios2eds/bin/gnu/h-x86_64-mingw32/bin/../lib/gcc/nios2-elf/10.3.1/../../../../../H-x86_64-mingw32/nios2-elf/lib\libc.a(lib_a-malloc.o)
 .debug_line    0x00000000000095e3      0x978 c:/intelfpga_lite/21.1/nios2eds/bin/gnu/h-x86_64-mingw32/bin/../lib/gcc/nios2-elf/10.3.1/../../../../../H-x86_64-mingw32/nios2-elf/lib\libc.a(lib_a-mallocr.o)
 .debug_line    0x0000000000009f5b      0x235 c:/intelfpga_lite/21.1/nios2eds/bin/gnu/h-x86_64-mingw32/bin/../lib/gcc/nios2-elf/10.3.1/../../../../../H-x86_64-mingw32/nios2-elf/lib\libc.a(lib_a-memcpy.o)
 .debug_line    0x000000000000a190      0x256 c:/intelfpga_lite/21.1/nios2eds/bin/gnu/h-x86_64-mingw32/bin/../lib/gcc/nios2-elf/10.3.1/../../../../../H-x86_64-mingw32/nios2-elf/lib\libc.a(lib_a-memset.o)
 .debug_line    0x000000000000a3e6      0x23c c:/intelfpga_lite/21.1/nios2eds/bin/gnu/h-x86_64-mingw32/bin/../lib/gcc/nios2-elf/10.3.1/../../../../../H-x86_64-mingw32/nios2-elf/lib\libc.a(lib_a-openr.o)
 .debug_line    0x000000000000a622      0x24f c:/intelfpga_lite/21.1/nios2eds/bin/gnu/h-x86_64-mingw32/bin/../lib/gcc/nios2-elf/10.3.1/../../../../../H-x86_64-mingw32/nios2-elf/lib\libc.a(lib_a-printf.o)
 .debug_line    0x000000000000a871      0x21d c:/intelfpga_lite/21.1/nios2eds/bin/gnu/h-x86_64-mingw32/bin/../lib/gcc/nios2-elf/10.3.1/../../../../../H-x86_64-mingw32/nios2-elf/lib\libc.a(lib_a-putchar.o)
 .debug_line    0x000000000000aa8e      0x316 c:/intelfpga_lite/21.1/nios2eds/bin/gnu/h-x86_64-mingw32/bin/../lib/gcc/nios2-elf/10.3.1/../../../../../H-x86_64-mingw32/nios2-elf/lib\libc.a(lib_a-puts.o)
 .debug_line    0x000000000000ada4      0x3f6 c:/intelfpga_lite/21.1/nios2eds/bin/gnu/h-x86_64-mingw32/bin/../lib/gcc/nios2-elf/10.3.1/../../../../../H-x86_64-mingw32/nios2-elf/lib\libc.a(lib_a-refill.o)
 .debug_line    0x000000000000b19a      0x228 c:/intelfpga_lite/21.1/nios2eds/bin/gnu/h-x86_64-mingw32/bin/../lib/gcc/nios2-elf/10.3.1/../../../../../H-x86_64-mingw32/nios2-elf/lib\libc.a(lib_a-sbrkr.o)
 .debug_line    0x000000000000b3c2      0x2bb c:/intelfpga_lite/21.1/nios2eds/bin/gnu/h-x86_64-mingw32/bin/../lib/gcc/nios2-elf/10.3.1/../../../../../H-x86_64-mingw32/nios2-elf/lib\libc.a(lib_a-sprintf.o)
 .debug_line    0x000000000000b67d      0x331 c:/intelfpga_lite/21.1/nios2eds/bin/gnu/h-x86_64-mingw32/bin/../lib/gcc/nios2-elf/10.3.1/../../../../../H-x86_64-mingw32/nios2-elf/lib\libc.a(lib_a-stdio.o)
 .debug_line    0x000000000000b9ae      0x178 c:/intelfpga_lite/21.1/nios2eds/bin/gnu/h-x86_64-mingw32/bin/../lib/gcc/nios2-elf/10.3.1/../../../../../H-x86_64-mingw32/nios2-elf/lib\libc.a(lib_a-strcmp.o)
 .debug_line    0x000000000000bb26      0x16c c:/intelfpga_lite/21.1/nios2eds/bin/gnu/h-x86_64-mingw32/bin/../lib/gcc/nios2-elf/10.3.1/../../../../../H-x86_64-mingw32/nios2-elf/lib\libc.a(lib_a-strcpy.o)
 .debug_line    0x000000000000bc92      0x1d8 c:/intelfpga_lite/21.1/nios2eds/bin/gnu/h-x86_64-mingw32/bin/../lib/gcc/nios2-elf/10.3.1/../../../../../H-x86_64-mingw32/nios2-elf/lib\libc.a(lib_a-strlen.o)
 .debug_line    0x000000000000be6a     0x1a77 c:/intelfpga_lite/21.1/nios2eds/bin/gnu/h-x86_64-mingw32/bin/../lib/gcc/nios2-elf/10.3.1/../../../../../H-x86_64-mingw32/nios2-elf/lib\libc.a(lib_a-svfprintf.o)
 .debug_line    0x000000000000d8e1     0x1be1 c:/intelfpga_lite/21.1/nios2eds/bin/gnu/h-x86_64-mingw32/bin/../lib/gcc/nios2-elf/10.3.1/../../../../../H-x86_64-mingw32/nios2-elf/lib\libc.a(lib_a-vfprintf.o)
 .debug_line    0x000000000000f4c2      0x3e6 c:/intelfpga_lite/21.1/nios2eds/bin/gnu/h-x86_64-mingw32/bin/../lib/gcc/nios2-elf/10.3.1/../../../../../H-x86_64-mingw32/nios2-elf/lib\libc.a(lib_a-vsnprintf.o)
 .debug_line    0x000000000000f8a8      0x235 c:/intelfpga_lite/21.1/nios2eds/bin/gnu/h-x86_64-mingw32/bin/../lib/gcc/nios2-elf/10.3.1/../../../../../H-x86_64-mingw32/nios2-elf/lib\libc.a(lib_a-writer.o)
 .debug_line    0x000000000000fadd      0x3be c:/intelfpga_lite/21.1/nios2eds/bin/gnu/h-x86_64-mingw32/bin/../lib/gcc/nios2-elf/10.3.1/../../../../../H-x86_64-mingw32/nios2-elf/lib\libc.a(lib_a-wsetup.o)
 .debug_line    0x000000000000fe9b      0x234 c:/intelfpga_lite/21.1/nios2eds/bin/gnu/h-x86_64-mingw32/bin/../lib/gcc/nios2-elf/10.3.1/../../../../../H-x86_64-mingw32/nios2-elf/lib\libc.a(closer.o)
 .debug_line    0x00000000000100cf     0x16c5 c:/intelfpga_lite/21.1/nios2eds/bin/gnu/h-x86_64-mingw32/bin/../lib/gcc/nios2-elf/10.3.1/../../../../../H-x86_64-mingw32/nios2-elf/lib\libc.a(lib_a-dtoa.o)
 .debug_line    0x0000000000011794      0x218 c:/intelfpga_lite/21.1/nios2eds/bin/gnu/h-x86_64-mingw32/bin/../lib/gcc/nios2-elf/10.3.1/../../../../../H-x86_64-mingw32/nios2-elf/lib\libc.a(lib_a-flags.o)
 .debug_line    0x00000000000119ac      0x6e0 c:/intelfpga_lite/21.1/nios2eds/bin/gnu/h-x86_64-mingw32/bin/../lib/gcc/nios2-elf/10.3.1/../../../../../H-x86_64-mingw32/nios2-elf/lib\libc.a(lib_a-fvwrite.o)
 .debug_line    0x000000000001208c      0x235 c:/intelfpga_lite/21.1/nios2eds/bin/gnu/h-x86_64-mingw32/bin/../lib/gcc/nios2-elf/10.3.1/../../../../../H-x86_64-mingw32/nios2-elf/lib\libc.a(lib_a-isattyr.o)
 .debug_line    0x00000000000122c1      0x28a c:/intelfpga_lite/21.1/nios2eds/bin/gnu/h-x86_64-mingw32/bin/../lib/gcc/nios2-elf/10.3.1/../../../../../H-x86_64-mingw32/nios2-elf/lib\libc.a(lib_a-localeconv.o)
 .debug_line    0x000000000001254b      0x235 c:/intelfpga_lite/21.1/nios2eds/bin/gnu/h-x86_64-mingw32/bin/../lib/gcc/nios2-elf/10.3.1/../../../../../H-x86_64-mingw32/nios2-elf/lib\libc.a(lib_a-lseekr.o)
 .debug_line    0x0000000000012780      0x221 c:/intelfpga_lite/21.1/nios2eds/bin/gnu/h-x86_64-mingw32/bin/../lib/gcc/nios2-elf/10.3.1/../../../../../H-x86_64-mingw32/nios2-elf/lib\libc.a(lib_a-memchr.o)
 .debug_line    0x00000000000129a1      0x26b c:/intelfpga_lite/21.1/nios2eds/bin/gnu/h-x86_64-mingw32/bin/../lib/gcc/nios2-elf/10.3.1/../../../../../H-x86_64-mingw32/nios2-elf/lib\libc.a(lib_a-memmove.o)
 .debug_line    0x0000000000012c0c     0x17e7 c:/intelfpga_lite/21.1/nios2eds/bin/gnu/h-x86_64-mingw32/bin/../lib/gcc/nios2-elf/10.3.1/../../../../../H-x86_64-mingw32/nios2-elf/lib\libc.a(lib_a-mprec.o)
 .debug_line    0x00000000000143f3      0x3a4 c:/intelfpga_lite/21.1/nios2eds/bin/gnu/h-x86_64-mingw32/bin/../lib/gcc/nios2-elf/10.3.1/../../../../../H-x86_64-mingw32/nios2-elf/lib\libc.a(lib_a-putc.o)
 .debug_line    0x0000000000014797      0x234 c:/intelfpga_lite/21.1/nios2eds/bin/gnu/h-x86_64-mingw32/bin/../lib/gcc/nios2-elf/10.3.1/../../../../../H-x86_64-mingw32/nios2-elf/lib\libc.a(lib_a-readr.o)
 .debug_line    0x00000000000149cb      0x746 c:/intelfpga_lite/21.1/nios2eds/bin/gnu/h-x86_64-mingw32/bin/../lib/gcc/nios2-elf/10.3.1/../../../../../H-x86_64-mingw32/nios2-elf/lib\libc.a(lib_a-reallocr.o)
 .debug_line    0x0000000000015111     0x1156 c:/intelfpga_lite/21.1/nios2eds/bin/gnu/h-x86_64-mingw32/bin/../lib/gcc/nios2-elf/10.3.1/../../../../../H-x86_64-mingw32/nios2-elf/lib\libc.a(lib_a-svfiprintf.o)
 .debug_line    0x0000000000016267     0x155f c:/intelfpga_lite/21.1/nios2eds/bin/gnu/h-x86_64-mingw32/bin/../lib/gcc/nios2-elf/10.3.1/../../../../../H-x86_64-mingw32/nios2-elf/lib\libc.a(lib_a-vfiprintf.o)
 .debug_line    0x00000000000177c6      0x382 c:/intelfpga_lite/21.1/nios2eds/bin/gnu/h-x86_64-mingw32/bin/../lib/gcc/nios2-elf/10.3.1/../../../../../H-x86_64-mingw32/nios2-elf/lib\libc.a(lib_a-wbuf.o)
 .debug_line    0x0000000000017b48      0x24b c:/intelfpga_lite/21.1/nios2eds/bin/gnu/h-x86_64-mingw32/bin/../lib/gcc/nios2-elf/10.3.1/../../../../../H-x86_64-mingw32/nios2-elf/lib\libc.a(lib_a-assert.o)
 .debug_line    0x0000000000017d93      0x299 c:/intelfpga_lite/21.1/nios2eds/bin/gnu/h-x86_64-mingw32/bin/../lib/gcc/nios2-elf/10.3.1/../../../../../H-x86_64-mingw32/nios2-elf/lib\libc.a(lib_a-callocr.o)
 .debug_line    0x000000000001802c      0x186 c:/intelfpga_lite/21.1/nios2eds/bin/gnu/h-x86_64-mingw32/bin/../lib/gcc/nios2-elf/10.3.1/../../../../../H-x86_64-mingw32/nios2-elf/lib\libc.a(lib_a-errno.o)
 .debug_line    0x00000000000181b2      0x233 c:/intelfpga_lite/21.1/nios2eds/bin/gnu/h-x86_64-mingw32/bin/../lib/gcc/nios2-elf/10.3.1/../../../../../H-x86_64-mingw32/nios2-elf/lib\libc.a(lib_a-fiprintf.o)
 .debug_line    0x00000000000183e5      0x40a c:/intelfpga_lite/21.1/nios2eds/bin/gnu/h-x86_64-mingw32/bin/../lib/gcc/nios2-elf/10.3.1/../../../../../H-x86_64-mingw32/nios2-elf/lib\libc.a(lib_a-fputwc.o)
 .debug_line    0x00000000000187ef      0x358 c:/intelfpga_lite/21.1/nios2eds/bin/gnu/h-x86_64-mingw32/bin/../lib/gcc/nios2-elf/10.3.1/../../../../../H-x86_64-mingw32/nios2-elf/lib\libc.a(lib_a-locale.o)
 .debug_line    0x0000000000018b47      0x2c3 c:/intelfpga_lite/21.1/nios2eds/bin/gnu/h-x86_64-mingw32/bin/../lib/gcc/nios2-elf/10.3.1/../../../../../H-x86_64-mingw32/nios2-elf/lib\libc.a(lib_a-mbtowc_r.o)
 .debug_line    0x0000000000018e0a      0x207 c:/intelfpga_lite/21.1/nios2eds/bin/gnu/h-x86_64-mingw32/bin/../lib/gcc/nios2-elf/10.3.1/../../../../../H-x86_64-mingw32/nios2-elf/lib\libc.a(lib_a-vfiprintfr_1.o)
 .debug_line    0x0000000000019011      0x370 c:/intelfpga_lite/21.1/nios2eds/bin/gnu/h-x86_64-mingw32/bin/../lib/gcc/nios2-elf/10.3.1/../../../../../H-x86_64-mingw32/nios2-elf/lib\libc.a(lib_a-wcrtomb.o)
 .debug_line    0x0000000000019381      0x2b0 c:/intelfpga_lite/21.1/nios2eds/bin/gnu/h-x86_64-mingw32/bin/../lib/gcc/nios2-elf/10.3.1/../../../../../H-x86_64-mingw32/nios2-elf/lib\libc.a(lib_a-wctomb_r.o)
 .debug_line    0x0000000000019631      0x173 c:/intelfpga_lite/21.1/nios2eds/bin/gnu/h-x86_64-mingw32/bin/../lib/gcc/nios2-elf/10.3.1/../../../../../H-x86_64-mingw32/nios2-elf/lib\libc.a(lib_a-abort.o)
 .debug_line    0x00000000000197a4       0xd5 c:/intelfpga_lite/21.1/nios2eds/bin/gnu/h-x86_64-mingw32/bin/../lib/gcc/nios2-elf/10.3.1/../../../../../H-x86_64-mingw32/nios2-elf/lib\libc.a(lib_a-ctype_.o)
 .debug_line    0x0000000000019879      0x6df c:/intelfpga_lite/21.1/nios2eds/bin/gnu/h-x86_64-mingw32/bin/../lib/gcc/nios2-elf/10.3.1/../../../../../H-x86_64-mingw32/nios2-elf/lib\libc.a(lib_a-signal.o)
 .debug_line    0x0000000000019f58      0x25e c:/intelfpga_lite/21.1/nios2eds/bin/gnu/h-x86_64-mingw32/bin/../lib/gcc/nios2-elf/10.3.1/../../../../../H-x86_64-mingw32/nios2-elf/lib\libc.a(lib_a-signalr.o)
 .debug_line    0x000000000001a1b6      0x32a c:/intelfpga_lite/21.1/nios2eds/bin/gnu/h-x86_64-mingw32/bin/../lib/gcc/nios2-elf/10.3.1\libgcc.a(_udivdi3.o)
 .debug_line    0x000000000001a4e0      0x387 c:/intelfpga_lite/21.1/nios2eds/bin/gnu/h-x86_64-mingw32/bin/../lib/gcc/nios2-elf/10.3.1\libgcc.a(_umoddi3.o)
 .debug_line    0x000000000001a867      0xd61 c:/intelfpga_lite/21.1/nios2eds/bin/gnu/h-x86_64-mingw32/bin/../lib/gcc/nios2-elf/10.3.1\libgcc.a(adddf3.o)
 .debug_line    0x000000000001b5c8      0x10c c:/intelfpga_lite/21.1/nios2eds/bin/gnu/h-x86_64-mingw32/bin/../lib/gcc/nios2-elf/10.3.1\libgcc.a(eqdf2.o)
 .debug_line    0x000000000001b6d4      0x167 c:/intelfpga_lite/21.1/nios2eds/bin/gnu/h-x86_64-mingw32/bin/../lib/gcc/nios2-elf/10.3.1\libgcc.a(gedf2.o)
 .debug_line    0x000000000001b83b      0x167 c:/intelfpga_lite/21.1/nios2eds/bin/gnu/h-x86_64-mingw32/bin/../lib/gcc/nios2-elf/10.3.1\libgcc.a(ledf2.o)
 .debug_line    0x000000000001b9a2      0x99e c:/intelfpga_lite/21.1/nios2eds/bin/gnu/h-x86_64-mingw32/bin/../lib/gcc/nios2-elf/10.3.1\libgcc.a(muldf3.o)
 .debug_line    0x000000000001c340      0xdc4 c:/intelfpga_lite/21.1/nios2eds/bin/gnu/h-x86_64-mingw32/bin/../lib/gcc/nios2-elf/10.3.1\libgcc.a(subdf3.o)
 .debug_line    0x000000000001d104       0xd2 c:/intelfpga_lite/21.1/nios2eds/bin/gnu/h-x86_64-mingw32/bin/../lib/gcc/nios2-elf/10.3.1\libgcc.a(unorddf2.o)
 .debug_line    0x000000000001d1d6      0x12e c:/intelfpga_lite/21.1/nios2eds/bin/gnu/h-x86_64-mingw32/bin/../lib/gcc/nios2-elf/10.3.1\libgcc.a(fixdfsi.o)
 .debug_line    0x000000000001d304      0x1e3 c:/intelfpga_lite/21.1/nios2eds/bin/gnu/h-x86_64-mingw32/bin/../lib/gcc/nios2-elf/10.3.1\libgcc.a(floatsidf.o)
 .debug_line    0x000000000001d4e7      0x1ce c:/intelfpga_lite/21.1/nios2eds/bin/gnu/h-x86_64-mingw32/bin/../lib/gcc/nios2-elf/10.3.1\libgcc.a(floatunsidf.o)
 .debug_line    0x000000000001d6b5      0x1ac c:/Users/Robin/Documents/NHLStenden/FPGA/QuartusPrimeProjects/DE2-115_V.1.0.6_SystemCD/DE2_115_demonstrations/DE2_115_SD_Card_Audio_Player_Copy/Software/Audio_Player_test1_bsp/\libhal_bsp.a(alt_close.o)
 .debug_line    0x000000000001d861      0x19f c:/Users/Robin/Documents/NHLStenden/FPGA/QuartusPrimeProjects/DE2-115_V.1.0.6_SystemCD/DE2_115_demonstrations/DE2_115_SD_Card_Audio_Player_Copy/Software/Audio_Player_test1_bsp/\libhal_bsp.a(alt_dev.o)
 .debug_line    0x000000000001da00       0x51 c:/Users/Robin/Documents/NHLStenden/FPGA/QuartusPrimeProjects/DE2-115_V.1.0.6_SystemCD/DE2_115_demonstrations/DE2_115_SD_Card_Audio_Player_Copy/Software/Audio_Player_test1_bsp/\libhal_bsp.a(alt_errno.o)
 .debug_line    0x000000000001da51       0x85 c:/Users/Robin/Documents/NHLStenden/FPGA/QuartusPrimeProjects/DE2-115_V.1.0.6_SystemCD/DE2_115_demonstrations/DE2_115_SD_Card_Audio_Player_Copy/Software/Audio_Player_test1_bsp/\libhal_bsp.a(alt_exit.o)
 .debug_line    0x000000000001dad6      0x214 c:/Users/Robin/Documents/NHLStenden/FPGA/QuartusPrimeProjects/DE2-115_V.1.0.6_SystemCD/DE2_115_demonstrations/DE2_115_SD_Card_Audio_Player_Copy/Software/Audio_Player_test1_bsp/\libhal_bsp.a(alt_fstat.o)
 .debug_line    0x000000000001dcea       0x4c c:/Users/Robin/Documents/NHLStenden/FPGA/QuartusPrimeProjects/DE2-115_V.1.0.6_SystemCD/DE2_115_demonstrations/DE2_115_SD_Card_Audio_Player_Copy/Software/Audio_Player_test1_bsp/\libhal_bsp.a(alt_getpid.o)
 .debug_line    0x000000000001dd36      0x1ad c:/Users/Robin/Documents/NHLStenden/FPGA/QuartusPrimeProjects/DE2-115_V.1.0.6_SystemCD/DE2_115_demonstrations/DE2_115_SD_Card_Audio_Player_Copy/Software/Audio_Player_test1_bsp/\libhal_bsp.a(alt_irq_register.o)
 .debug_line    0x000000000001dee3       0x50 c:/Users/Robin/Documents/NHLStenden/FPGA/QuartusPrimeProjects/DE2-115_V.1.0.6_SystemCD/DE2_115_demonstrations/DE2_115_SD_Card_Audio_Player_Copy/Software/Audio_Player_test1_bsp/\libhal_bsp.a(alt_irq_vars.o)
 .debug_line    0x000000000001df33      0x216 c:/Users/Robin/Documents/NHLStenden/FPGA/QuartusPrimeProjects/DE2-115_V.1.0.6_SystemCD/DE2_115_demonstrations/DE2_115_SD_Card_Audio_Player_Copy/Software/Audio_Player_test1_bsp/\libhal_bsp.a(alt_isatty.o)
 .debug_line    0x000000000001e149      0x11b c:/Users/Robin/Documents/NHLStenden/FPGA/QuartusPrimeProjects/DE2-115_V.1.0.6_SystemCD/DE2_115_demonstrations/DE2_115_SD_Card_Audio_Player_Copy/Software/Audio_Player_test1_bsp/\libhal_bsp.a(alt_kill.o)
 .debug_line    0x000000000001e264       0xa6 c:/Users/Robin/Documents/NHLStenden/FPGA/QuartusPrimeProjects/DE2-115_V.1.0.6_SystemCD/DE2_115_demonstrations/DE2_115_SD_Card_Audio_Player_Copy/Software/Audio_Player_test1_bsp/\libhal_bsp.a(alt_load.o)
 .debug_line    0x000000000001e30a      0x19d c:/Users/Robin/Documents/NHLStenden/FPGA/QuartusPrimeProjects/DE2-115_V.1.0.6_SystemCD/DE2_115_demonstrations/DE2_115_SD_Card_Audio_Player_Copy/Software/Audio_Player_test1_bsp/\libhal_bsp.a(alt_lseek.o)
 .debug_line    0x000000000001e4a7       0x85 c:/Users/Robin/Documents/NHLStenden/FPGA/QuartusPrimeProjects/DE2-115_V.1.0.6_SystemCD/DE2_115_demonstrations/DE2_115_SD_Card_Audio_Player_Copy/Software/Audio_Player_test1_bsp/\libhal_bsp.a(alt_main.o)
 .debug_line    0x000000000001e52c      0x125 c:/Users/Robin/Documents/NHLStenden/FPGA/QuartusPrimeProjects/DE2-115_V.1.0.6_SystemCD/DE2_115_demonstrations/DE2_115_SD_Card_Audio_Player_Copy/Software/Audio_Player_test1_bsp/\libhal_bsp.a(alt_malloc_lock.o)
 .debug_line    0x000000000001e651      0x1a0 c:/Users/Robin/Documents/NHLStenden/FPGA/QuartusPrimeProjects/DE2-115_V.1.0.6_SystemCD/DE2_115_demonstrations/DE2_115_SD_Card_Audio_Player_Copy/Software/Audio_Player_test1_bsp/\libhal_bsp.a(alt_open.o)
 .debug_line    0x000000000001e7f1      0x2ab c:/Users/Robin/Documents/NHLStenden/FPGA/QuartusPrimeProjects/DE2-115_V.1.0.6_SystemCD/DE2_115_demonstrations/DE2_115_SD_Card_Audio_Player_Copy/Software/Audio_Player_test1_bsp/\libhal_bsp.a(alt_read.o)
 .debug_line    0x000000000001ea9c       0xb6 c:/Users/Robin/Documents/NHLStenden/FPGA/QuartusPrimeProjects/DE2-115_V.1.0.6_SystemCD/DE2_115_demonstrations/DE2_115_SD_Card_Audio_Player_Copy/Software/Audio_Player_test1_bsp/\libhal_bsp.a(alt_release_fd.o)
 .debug_line    0x000000000001eb52      0x10f c:/Users/Robin/Documents/NHLStenden/FPGA/QuartusPrimeProjects/DE2-115_V.1.0.6_SystemCD/DE2_115_demonstrations/DE2_115_SD_Card_Audio_Player_Copy/Software/Audio_Player_test1_bsp/\libhal_bsp.a(alt_sbrk.o)
 .debug_line    0x000000000001ec61      0x133 c:/Users/Robin/Documents/NHLStenden/FPGA/QuartusPrimeProjects/DE2-115_V.1.0.6_SystemCD/DE2_115_demonstrations/DE2_115_SD_Card_Audio_Player_Copy/Software/Audio_Player_test1_bsp/\libhal_bsp.a(alt_tick.o)
 .debug_line    0x000000000001ed94       0xbf c:/Users/Robin/Documents/NHLStenden/FPGA/QuartusPrimeProjects/DE2-115_V.1.0.6_SystemCD/DE2_115_demonstrations/DE2_115_SD_Card_Audio_Player_Copy/Software/Audio_Player_test1_bsp/\libhal_bsp.a(alt_usleep.o)
 .debug_line    0x000000000001ee53      0x2ae c:/Users/Robin/Documents/NHLStenden/FPGA/QuartusPrimeProjects/DE2-115_V.1.0.6_SystemCD/DE2_115_demonstrations/DE2_115_SD_Card_Audio_Player_Copy/Software/Audio_Player_test1_bsp/\libhal_bsp.a(alt_write.o)
 .debug_line    0x000000000001f101      0x1c3 c:/Users/Robin/Documents/NHLStenden/FPGA/QuartusPrimeProjects/DE2-115_V.1.0.6_SystemCD/DE2_115_demonstrations/DE2_115_SD_Card_Audio_Player_Copy/Software/Audio_Player_test1_bsp/\libhal_bsp.a(alt_sys_init.o)
 .debug_line    0x000000000001f2c4      0x408 c:/Users/Robin/Documents/NHLStenden/FPGA/QuartusPrimeProjects/DE2-115_V.1.0.6_SystemCD/DE2_115_demonstrations/DE2_115_SD_Card_Audio_Player_Copy/Software/Audio_Player_test1_bsp/\libhal_bsp.a(altera_avalon_cfi_flash.o)
 .debug_line    0x000000000001f6cc      0x74c c:/Users/Robin/Documents/NHLStenden/FPGA/QuartusPrimeProjects/DE2-115_V.1.0.6_SystemCD/DE2_115_demonstrations/DE2_115_SD_Card_Audio_Player_Copy/Software/Audio_Player_test1_bsp/\libhal_bsp.a(altera_avalon_cfi_flash_table.o)
 .debug_line    0x000000000001fe18      0x149 c:/Users/Robin/Documents/NHLStenden/FPGA/QuartusPrimeProjects/DE2-115_V.1.0.6_SystemCD/DE2_115_demonstrations/DE2_115_SD_Card_Audio_Player_Copy/Software/Audio_Player_test1_bsp/\libhal_bsp.a(altera_avalon_jtag_uart_fd.o)
 .debug_line    0x000000000001ff61      0x25b c:/Users/Robin/Documents/NHLStenden/FPGA/QuartusPrimeProjects/DE2-115_V.1.0.6_SystemCD/DE2_115_demonstrations/DE2_115_SD_Card_Audio_Player_Copy/Software/Audio_Player_test1_bsp/\libhal_bsp.a(altera_avalon_jtag_uart_init.o)
 .debug_line    0x00000000000201bc      0x154 c:/Users/Robin/Documents/NHLStenden/FPGA/QuartusPrimeProjects/DE2-115_V.1.0.6_SystemCD/DE2_115_demonstrations/DE2_115_SD_Card_Audio_Player_Copy/Software/Audio_Player_test1_bsp/\libhal_bsp.a(altera_avalon_jtag_uart_ioctl.o)
 .debug_line    0x0000000000020310      0x1d1 c:/Users/Robin/Documents/NHLStenden/FPGA/QuartusPrimeProjects/DE2-115_V.1.0.6_SystemCD/DE2_115_demonstrations/DE2_115_SD_Card_Audio_Player_Copy/Software/Audio_Player_test1_bsp/\libhal_bsp.a(altera_avalon_jtag_uart_read.o)
 .debug_line    0x00000000000204e1      0x1d6 c:/Users/Robin/Documents/NHLStenden/FPGA/QuartusPrimeProjects/DE2-115_V.1.0.6_SystemCD/DE2_115_demonstrations/DE2_115_SD_Card_Audio_Player_Copy/Software/Audio_Player_test1_bsp/\libhal_bsp.a(altera_avalon_jtag_uart_write.o)
 .debug_line    0x00000000000206b7       0xfd c:/Users/Robin/Documents/NHLStenden/FPGA/QuartusPrimeProjects/DE2-115_V.1.0.6_SystemCD/DE2_115_demonstrations/DE2_115_SD_Card_Audio_Player_Copy/Software/Audio_Player_test1_bsp/\libhal_bsp.a(altera_avalon_timer_sc.o)
 .debug_line    0x00000000000207b4      0x102 c:/Users/Robin/Documents/NHLStenden/FPGA/QuartusPrimeProjects/DE2-115_V.1.0.6_SystemCD/DE2_115_demonstrations/DE2_115_SD_Card_Audio_Player_Copy/Software/Audio_Player_test1_bsp/\libhal_bsp.a(altera_avalon_uart_fd.o)
 .debug_line    0x00000000000208b6      0x1f9 c:/Users/Robin/Documents/NHLStenden/FPGA/QuartusPrimeProjects/DE2-115_V.1.0.6_SystemCD/DE2_115_demonstrations/DE2_115_SD_Card_Audio_Player_Copy/Software/Audio_Player_test1_bsp/\libhal_bsp.a(altera_avalon_uart_init.o)
 .debug_line    0x0000000000020aaf      0x1eb c:/Users/Robin/Documents/NHLStenden/FPGA/QuartusPrimeProjects/DE2-115_V.1.0.6_SystemCD/DE2_115_demonstrations/DE2_115_SD_Card_Audio_Player_Copy/Software/Audio_Player_test1_bsp/\libhal_bsp.a(altera_avalon_uart_read.o)
 .debug_line    0x0000000000020c9a      0x1be c:/Users/Robin/Documents/NHLStenden/FPGA/QuartusPrimeProjects/DE2-115_V.1.0.6_SystemCD/DE2_115_demonstrations/DE2_115_SD_Card_Audio_Player_Copy/Software/Audio_Player_test1_bsp/\libhal_bsp.a(altera_avalon_uart_write.o)
 .debug_line    0x0000000000020e58      0x138 c:/Users/Robin/Documents/NHLStenden/FPGA/QuartusPrimeProjects/DE2-115_V.1.0.6_SystemCD/DE2_115_demonstrations/DE2_115_SD_Card_Audio_Player_Copy/Software/Audio_Player_test1_bsp/\libhal_bsp.a(alt_alarm_start.o)
 .debug_line    0x0000000000020f90       0xe1 c:/Users/Robin/Documents/NHLStenden/FPGA/QuartusPrimeProjects/DE2-115_V.1.0.6_SystemCD/DE2_115_demonstrations/DE2_115_SD_Card_Audio_Player_Copy/Software/Audio_Player_test1_bsp/\libhal_bsp.a(alt_busy_sleep.o)
 .debug_line    0x0000000000021071       0x97 c:/Users/Robin/Documents/NHLStenden/FPGA/QuartusPrimeProjects/DE2-115_V.1.0.6_SystemCD/DE2_115_demonstrations/DE2_115_SD_Card_Audio_Player_Copy/Software/Audio_Player_test1_bsp/\libhal_bsp.a(alt_dcache_flush.o)
 .debug_line    0x0000000000021108       0x6e c:/Users/Robin/Documents/NHLStenden/FPGA/QuartusPrimeProjects/DE2-115_V.1.0.6_SystemCD/DE2_115_demonstrations/DE2_115_SD_Card_Audio_Player_Copy/Software/Audio_Player_test1_bsp/\libhal_bsp.a(alt_dcache_flush_all.o)
 .debug_line    0x0000000000021176      0x106 c:/Users/Robin/Documents/NHLStenden/FPGA/QuartusPrimeProjects/DE2-115_V.1.0.6_SystemCD/DE2_115_demonstrations/DE2_115_SD_Card_Audio_Player_Copy/Software/Audio_Player_test1_bsp/\libhal_bsp.a(alt_dev_llist_insert.o)
 .debug_line    0x000000000002127c       0x66 c:/Users/Robin/Documents/NHLStenden/FPGA/QuartusPrimeProjects/DE2-115_V.1.0.6_SystemCD/DE2_115_demonstrations/DE2_115_SD_Card_Audio_Player_Copy/Software/Audio_Player_test1_bsp/\libhal_bsp.a(alt_do_ctors.o)
 .debug_line    0x00000000000212e2       0x66 c:/Users/Robin/Documents/NHLStenden/FPGA/QuartusPrimeProjects/DE2-115_V.1.0.6_SystemCD/DE2_115_demonstrations/DE2_115_SD_Card_Audio_Player_Copy/Software/Audio_Player_test1_bsp/\libhal_bsp.a(alt_do_dtors.o)
 .debug_line    0x0000000000021348       0xb8 c:/Users/Robin/Documents/NHLStenden/FPGA/QuartusPrimeProjects/DE2-115_V.1.0.6_SystemCD/DE2_115_demonstrations/DE2_115_SD_Card_Audio_Player_Copy/Software/Audio_Player_test1_bsp/\libhal_bsp.a(alt_find_dev.o)
 .debug_line    0x0000000000021400      0x103 c:/Users/Robin/Documents/NHLStenden/FPGA/QuartusPrimeProjects/DE2-115_V.1.0.6_SystemCD/DE2_115_demonstrations/DE2_115_SD_Card_Audio_Player_Copy/Software/Audio_Player_test1_bsp/\libhal_bsp.a(alt_find_file.o)
 .debug_line    0x0000000000021503       0xe8 c:/Users/Robin/Documents/NHLStenden/FPGA/QuartusPrimeProjects/DE2-115_V.1.0.6_SystemCD/DE2_115_demonstrations/DE2_115_SD_Card_Audio_Player_Copy/Software/Audio_Player_test1_bsp/\libhal_bsp.a(alt_flash_dev.o)
 .debug_line    0x00000000000215eb       0xfa c:/Users/Robin/Documents/NHLStenden/FPGA/QuartusPrimeProjects/DE2-115_V.1.0.6_SystemCD/DE2_115_demonstrations/DE2_115_SD_Card_Audio_Player_Copy/Software/Audio_Player_test1_bsp/\libhal_bsp.a(alt_get_fd.o)
 .debug_line    0x00000000000216e5       0x56 c:/Users/Robin/Documents/NHLStenden/FPGA/QuartusPrimeProjects/DE2-115_V.1.0.6_SystemCD/DE2_115_demonstrations/DE2_115_SD_Card_Audio_Player_Copy/Software/Audio_Player_test1_bsp/\libhal_bsp.a(alt_icache_flush_all.o)
 .debug_line    0x000000000002173b      0x123 c:/Users/Robin/Documents/NHLStenden/FPGA/QuartusPrimeProjects/DE2-115_V.1.0.6_SystemCD/DE2_115_demonstrations/DE2_115_SD_Card_Audio_Player_Copy/Software/Audio_Player_test1_bsp/\libhal_bsp.a(alt_iic.o)
 .debug_line    0x000000000002185e       0xfc c:/Users/Robin/Documents/NHLStenden/FPGA/QuartusPrimeProjects/DE2-115_V.1.0.6_SystemCD/DE2_115_demonstrations/DE2_115_SD_Card_Audio_Player_Copy/Software/Audio_Player_test1_bsp/\libhal_bsp.a(alt_iic_isr_register.o)
 .debug_line    0x000000000002195a      0x1d2 c:/Users/Robin/Documents/NHLStenden/FPGA/QuartusPrimeProjects/DE2-115_V.1.0.6_SystemCD/DE2_115_demonstrations/DE2_115_SD_Card_Audio_Player_Copy/Software/Audio_Player_test1_bsp/\libhal_bsp.a(alt_io_redirect.o)
 .debug_line    0x0000000000021b2c       0x6b c:/Users/Robin/Documents/NHLStenden/FPGA/QuartusPrimeProjects/DE2-115_V.1.0.6_SystemCD/DE2_115_demonstrations/DE2_115_SD_Card_Audio_Player_Copy/Software/Audio_Player_test1_bsp/\libhal_bsp.a(alt_irq_entry.o)
 .debug_line    0x0000000000021b97       0xd4 c:/Users/Robin/Documents/NHLStenden/FPGA/QuartusPrimeProjects/DE2-115_V.1.0.6_SystemCD/DE2_115_demonstrations/DE2_115_SD_Card_Audio_Player_Copy/Software/Audio_Player_test1_bsp/\libhal_bsp.a(alt_irq_handler.o)
 .debug_line    0x0000000000021c6b       0x52 c:/Users/Robin/Documents/NHLStenden/FPGA/QuartusPrimeProjects/DE2-115_V.1.0.6_SystemCD/DE2_115_demonstrations/DE2_115_SD_Card_Audio_Player_Copy/Software/Audio_Player_test1_bsp/\libhal_bsp.a(altera_nios2_irq.o)
 .debug_line    0x0000000000021cbd      0x20e c:/Users/Robin/Documents/NHLStenden/FPGA/QuartusPrimeProjects/DE2-115_V.1.0.6_SystemCD/DE2_115_demonstrations/DE2_115_SD_Card_Audio_Player_Copy/Software/Audio_Player_test1_bsp/\libhal_bsp.a(altera_avalon_cfi_flash_amd.o)
 .debug_line    0x0000000000021ecb      0x226 c:/Users/Robin/Documents/NHLStenden/FPGA/QuartusPrimeProjects/DE2-115_V.1.0.6_SystemCD/DE2_115_demonstrations/DE2_115_SD_Card_Audio_Player_Copy/Software/Audio_Player_test1_bsp/\libhal_bsp.a(altera_avalon_cfi_flash_intel.o)
 .debug_line    0x00000000000220f1       0xab c:/Users/Robin/Documents/NHLStenden/FPGA/QuartusPrimeProjects/DE2-115_V.1.0.6_SystemCD/DE2_115_demonstrations/DE2_115_SD_Card_Audio_Player_Copy/Software/Audio_Player_test1_bsp/\libhal_bsp.a(alt_exception_entry.o)
 .debug_line    0x000000000002219c       0xa0 c:/Users/Robin/Documents/NHLStenden/FPGA/QuartusPrimeProjects/DE2-115_V.1.0.6_SystemCD/DE2_115_demonstrations/DE2_115_SD_Card_Audio_Player_Copy/Software/Audio_Player_test1_bsp/\libhal_bsp.a(alt_icache_flush.o)
 .debug_line    0x000000000002223c       0xf4 c:/intelfpga_lite/21.1/nios2eds/bin/gnu/h-x86_64-mingw32/bin/../lib/gcc/nios2-elf/10.3.1/../../../../../H-x86_64-mingw32/nios2-elf/lib\libc.a(lib_a-atexit.o)
 .debug_line    0x0000000000022330      0x227 c:/intelfpga_lite/21.1/nios2eds/bin/gnu/h-x86_64-mingw32/bin/../lib/gcc/nios2-elf/10.3.1/../../../../../H-x86_64-mingw32/nios2-elf/lib\libc.a(lib_a-exit.o)
 .debug_line    0x0000000000022557      0x1e3 c:/intelfpga_lite/21.1/nios2eds/bin/gnu/h-x86_64-mingw32/bin/../lib/gcc/nios2-elf/10.3.1/../../../../../H-x86_64-mingw32/nios2-elf/lib\libc.a(lib_a-memcmp.o)
 .debug_line    0x000000000002273a      0x218 c:/intelfpga_lite/21.1/nios2eds/bin/gnu/h-x86_64-mingw32/bin/../lib/gcc/nios2-elf/10.3.1/../../../../../H-x86_64-mingw32/nios2-elf/lib\libc.a(lib_a-__atexit.o)
 .debug_line    0x0000000000022952      0x2a0 c:/intelfpga_lite/21.1/nios2eds/bin/gnu/h-x86_64-mingw32/bin/../lib/gcc/nios2-elf/10.3.1/../../../../../H-x86_64-mingw32/nios2-elf/lib\libc.a(lib_a-__call_atexit.o)

.debug_frame    0x0000000000000000     0x48c8
 *(.debug_frame)
 .debug_frame   0x0000000000000000      0x344 obj/default/AUDIO.o
 .debug_frame   0x0000000000000344      0x264 obj/default/FatFileSystem.o
 .debug_frame   0x00000000000005a8      0x314 obj/default/FatInternal.o
 .debug_frame   0x00000000000008bc      0x128 obj/default/I2C.o
 .debug_frame   0x00000000000009e4      0x150 obj/default/LCD.o
 .debug_frame   0x0000000000000b34       0xa8 obj/default/LED.o
 .debug_frame   0x0000000000000bdc       0xc8 obj/default/SEG7.o
 .debug_frame   0x0000000000000ca4      0x124 obj/default/WaveLib.o
 .debug_frame   0x0000000000000dc8       0x34 obj/default/crc16.o
 .debug_frame   0x0000000000000dfc       0x5c obj/default/crc7.o
 .debug_frame   0x0000000000000e58       0xb0 obj/default/debug.o
 .debug_frame   0x0000000000000f08      0x310 obj/default/hello_world.o
 .debug_frame   0x0000000000001218      0x114 obj/default/sd_hal.o
 .debug_frame   0x000000000000132c       0x9c obj/default/sd_lib.o
 .debug_frame   0x00000000000013c8      0x304 obj/default/sd_protocol.o
 .debug_frame   0x00000000000016cc       0x50 c:/intelfpga_lite/21.1/nios2eds/bin/gnu/h-x86_64-mingw32/bin/../lib/gcc/nios2-elf/10.3.1\libgcc.a(lib2-divmod.o)
 .debug_frame   0x000000000000171c       0x54 c:/intelfpga_lite/21.1/nios2eds/bin/gnu/h-x86_64-mingw32/bin/../lib/gcc/nios2-elf/10.3.1\libgcc.a(divsf3.o)
 .debug_frame   0x0000000000001770       0x50 c:/intelfpga_lite/21.1/nios2eds/bin/gnu/h-x86_64-mingw32/bin/../lib/gcc/nios2-elf/10.3.1\libgcc.a(mulsf3.o)
 .debug_frame   0x00000000000017c0       0x34 c:/intelfpga_lite/21.1/nios2eds/bin/gnu/h-x86_64-mingw32/bin/../lib/gcc/nios2-elf/10.3.1\libgcc.a(floatunsisf.o)
 .debug_frame   0x00000000000017f4       0x58 c:/intelfpga_lite/21.1/nios2eds/bin/gnu/h-x86_64-mingw32/bin/../lib/gcc/nios2-elf/10.3.1\libgcc.a(divdf3.o)
 .debug_frame   0x000000000000184c       0x38 c:/intelfpga_lite/21.1/nios2eds/bin/gnu/h-x86_64-mingw32/bin/../lib/gcc/nios2-elf/10.3.1\libgcc.a(extendsfdf2.o)
 .debug_frame   0x0000000000001884       0x20 c:/intelfpga_lite/21.1/nios2eds/bin/gnu/h-x86_64-mingw32/bin/../lib/gcc/nios2-elf/10.3.1\libgcc.a(truncdfsf2.o)
 .debug_frame   0x00000000000018a4       0x20 c:/intelfpga_lite/21.1/nios2eds/bin/gnu/h-x86_64-mingw32/bin/../lib/gcc/nios2-elf/10.3.1\libgcc.a(_clzsi2.o)
 .debug_frame   0x00000000000018c4       0x94 c:/intelfpga_lite/21.1/nios2eds/bin/gnu/h-x86_64-mingw32/bin/../lib/gcc/nios2-elf/10.3.1/../../../../../H-x86_64-mingw32/nios2-elf/lib\libc.a(lib_a-fclose.o)
 .debug_frame   0x0000000000001958       0x94 c:/intelfpga_lite/21.1/nios2eds/bin/gnu/h-x86_64-mingw32/bin/../lib/gcc/nios2-elf/10.3.1/../../../../../H-x86_64-mingw32/nios2-elf/lib\libc.a(lib_a-fflush.o)
 .debug_frame   0x00000000000019ec      0x12c c:/intelfpga_lite/21.1/nios2eds/bin/gnu/h-x86_64-mingw32/bin/../lib/gcc/nios2-elf/10.3.1/../../../../../H-x86_64-mingw32/nios2-elf/lib\libc.a(lib_a-findfp.o)
 .debug_frame   0x0000000000001b18       0x50 c:/intelfpga_lite/21.1/nios2eds/bin/gnu/h-x86_64-mingw32/bin/../lib/gcc/nios2-elf/10.3.1/../../../../../H-x86_64-mingw32/nios2-elf/lib\libc.a(lib_a-fopen.o)
 .debug_frame   0x0000000000001b68       0x78 c:/intelfpga_lite/21.1/nios2eds/bin/gnu/h-x86_64-mingw32/bin/../lib/gcc/nios2-elf/10.3.1/../../../../../H-x86_64-mingw32/nios2-elf/lib\libc.a(lib_a-freer.o)
 .debug_frame   0x0000000000001be0       0x30 c:/intelfpga_lite/21.1/nios2eds/bin/gnu/h-x86_64-mingw32/bin/../lib/gcc/nios2-elf/10.3.1/../../../../../H-x86_64-mingw32/nios2-elf/lib\libc.a(lib_a-fseek.o)
 .debug_frame   0x0000000000001c10       0x60 c:/intelfpga_lite/21.1/nios2eds/bin/gnu/h-x86_64-mingw32/bin/../lib/gcc/nios2-elf/10.3.1/../../../../../H-x86_64-mingw32/nios2-elf/lib\libc.a(lib_a-fseeko.o)
 .debug_frame   0x0000000000001c70       0x3c c:/intelfpga_lite/21.1/nios2eds/bin/gnu/h-x86_64-mingw32/bin/../lib/gcc/nios2-elf/10.3.1/../../../../../H-x86_64-mingw32/nios2-elf/lib\libc.a(lib_a-fstatr.o)
 .debug_frame   0x0000000000001cac       0x74 c:/intelfpga_lite/21.1/nios2eds/bin/gnu/h-x86_64-mingw32/bin/../lib/gcc/nios2-elf/10.3.1/../../../../../H-x86_64-mingw32/nios2-elf/lib\libc.a(lib_a-fwalk.o)
 .debug_frame   0x0000000000001d20       0x74 c:/intelfpga_lite/21.1/nios2eds/bin/gnu/h-x86_64-mingw32/bin/../lib/gcc/nios2-elf/10.3.1/../../../../../H-x86_64-mingw32/nios2-elf/lib\libc.a(lib_a-fwrite.o)
 .debug_frame   0x0000000000001d94       0x70 c:/intelfpga_lite/21.1/nios2eds/bin/gnu/h-x86_64-mingw32/bin/../lib/gcc/nios2-elf/10.3.1/../../../../../H-x86_64-mingw32/nios2-elf/lib\libc.a(lib_a-makebuf.o)
 .debug_frame   0x0000000000001e04       0x30 c:/intelfpga_lite/21.1/nios2eds/bin/gnu/h-x86_64-mingw32/bin/../lib/gcc/nios2-elf/10.3.1/../../../../../H-x86_64-mingw32/nios2-elf/lib\libc.a(lib_a-malloc.o)
 .debug_frame   0x0000000000001e34       0x58 c:/intelfpga_lite/21.1/nios2eds/bin/gnu/h-x86_64-mingw32/bin/../lib/gcc/nios2-elf/10.3.1/../../../../../H-x86_64-mingw32/nios2-elf/lib\libc.a(lib_a-mallocr.o)
 .debug_frame   0x0000000000001e8c       0x20 c:/intelfpga_lite/21.1/nios2eds/bin/gnu/h-x86_64-mingw32/bin/../lib/gcc/nios2-elf/10.3.1/../../../../../H-x86_64-mingw32/nios2-elf/lib\libc.a(lib_a-memcpy.o)
 .debug_frame   0x0000000000001eac       0x20 c:/intelfpga_lite/21.1/nios2eds/bin/gnu/h-x86_64-mingw32/bin/../lib/gcc/nios2-elf/10.3.1/../../../../../H-x86_64-mingw32/nios2-elf/lib\libc.a(lib_a-memset.o)
 .debug_frame   0x0000000000001ecc       0x3c c:/intelfpga_lite/21.1/nios2eds/bin/gnu/h-x86_64-mingw32/bin/../lib/gcc/nios2-elf/10.3.1/../../../../../H-x86_64-mingw32/nios2-elf/lib\libc.a(lib_a-openr.o)
 .debug_frame   0x0000000000001f08       0x48 c:/intelfpga_lite/21.1/nios2eds/bin/gnu/h-x86_64-mingw32/bin/../lib/gcc/nios2-elf/10.3.1/../../../../../H-x86_64-mingw32/nios2-elf/lib\libc.a(lib_a-printf.o)
 .debug_frame   0x0000000000001f50       0x30 c:/intelfpga_lite/21.1/nios2eds/bin/gnu/h-x86_64-mingw32/bin/../lib/gcc/nios2-elf/10.3.1/../../../../../H-x86_64-mingw32/nios2-elf/lib\libc.a(lib_a-putchar.o)
 .debug_frame   0x0000000000001f80       0x48 c:/intelfpga_lite/21.1/nios2eds/bin/gnu/h-x86_64-mingw32/bin/../lib/gcc/nios2-elf/10.3.1/../../../../../H-x86_64-mingw32/nios2-elf/lib\libc.a(lib_a-puts.o)
 .debug_frame   0x0000000000001fc8       0x4c c:/intelfpga_lite/21.1/nios2eds/bin/gnu/h-x86_64-mingw32/bin/../lib/gcc/nios2-elf/10.3.1/../../../../../H-x86_64-mingw32/nios2-elf/lib\libc.a(lib_a-refill.o)
 .debug_frame   0x0000000000002014       0x3c c:/intelfpga_lite/21.1/nios2eds/bin/gnu/h-x86_64-mingw32/bin/../lib/gcc/nios2-elf/10.3.1/../../../../../H-x86_64-mingw32/nios2-elf/lib\libc.a(lib_a-sbrkr.o)
 .debug_frame   0x0000000000002050       0x48 c:/intelfpga_lite/21.1/nios2eds/bin/gnu/h-x86_64-mingw32/bin/../lib/gcc/nios2-elf/10.3.1/../../../../../H-x86_64-mingw32/nios2-elf/lib\libc.a(lib_a-sprintf.o)
 .debug_frame   0x0000000000002098       0xb8 c:/intelfpga_lite/21.1/nios2eds/bin/gnu/h-x86_64-mingw32/bin/../lib/gcc/nios2-elf/10.3.1/../../../../../H-x86_64-mingw32/nios2-elf/lib\libc.a(lib_a-stdio.o)
 .debug_frame   0x0000000000002150       0x20 c:/intelfpga_lite/21.1/nios2eds/bin/gnu/h-x86_64-mingw32/bin/../lib/gcc/nios2-elf/10.3.1/../../../../../H-x86_64-mingw32/nios2-elf/lib\libc.a(lib_a-strcmp.o)
 .debug_frame   0x0000000000002170       0x20 c:/intelfpga_lite/21.1/nios2eds/bin/gnu/h-x86_64-mingw32/bin/../lib/gcc/nios2-elf/10.3.1/../../../../../H-x86_64-mingw32/nios2-elf/lib\libc.a(lib_a-strcpy.o)
 .debug_frame   0x0000000000002190       0x20 c:/intelfpga_lite/21.1/nios2eds/bin/gnu/h-x86_64-mingw32/bin/../lib/gcc/nios2-elf/10.3.1/../../../../../H-x86_64-mingw32/nios2-elf/lib\libc.a(lib_a-strlen.o)
 .debug_frame   0x00000000000021b0       0x58 c:/intelfpga_lite/21.1/nios2eds/bin/gnu/h-x86_64-mingw32/bin/../lib/gcc/nios2-elf/10.3.1/../../../../../H-x86_64-mingw32/nios2-elf/lib\libc.a(lib_a-svfprintf.o)
 .debug_frame   0x0000000000002208       0xb0 c:/intelfpga_lite/21.1/nios2eds/bin/gnu/h-x86_64-mingw32/bin/../lib/gcc/nios2-elf/10.3.1/../../../../../H-x86_64-mingw32/nios2-elf/lib\libc.a(lib_a-vfprintf.o)
 .debug_frame   0x00000000000022b8       0x70 c:/intelfpga_lite/21.1/nios2eds/bin/gnu/h-x86_64-mingw32/bin/../lib/gcc/nios2-elf/10.3.1/../../../../../H-x86_64-mingw32/nios2-elf/lib\libc.a(lib_a-vsnprintf.o)
 .debug_frame   0x0000000000002328       0x3c c:/intelfpga_lite/21.1/nios2eds/bin/gnu/h-x86_64-mingw32/bin/../lib/gcc/nios2-elf/10.3.1/../../../../../H-x86_64-mingw32/nios2-elf/lib\libc.a(lib_a-writer.o)
 .debug_frame   0x0000000000002364       0x38 c:/intelfpga_lite/21.1/nios2eds/bin/gnu/h-x86_64-mingw32/bin/../lib/gcc/nios2-elf/10.3.1/../../../../../H-x86_64-mingw32/nios2-elf/lib\libc.a(lib_a-wsetup.o)
 .debug_frame   0x000000000000239c       0x3c c:/intelfpga_lite/21.1/nios2eds/bin/gnu/h-x86_64-mingw32/bin/../lib/gcc/nios2-elf/10.3.1/../../../../../H-x86_64-mingw32/nios2-elf/lib\libc.a(closer.o)
 .debug_frame   0x00000000000023d8       0x9c c:/intelfpga_lite/21.1/nios2eds/bin/gnu/h-x86_64-mingw32/bin/../lib/gcc/nios2-elf/10.3.1/../../../../../H-x86_64-mingw32/nios2-elf/lib\libc.a(lib_a-dtoa.o)
 .debug_frame   0x0000000000002474       0x20 c:/intelfpga_lite/21.1/nios2eds/bin/gnu/h-x86_64-mingw32/bin/../lib/gcc/nios2-elf/10.3.1/../../../../../H-x86_64-mingw32/nios2-elf/lib\libc.a(lib_a-flags.o)
 .debug_frame   0x0000000000002494       0x7c c:/intelfpga_lite/21.1/nios2eds/bin/gnu/h-x86_64-mingw32/bin/../lib/gcc/nios2-elf/10.3.1/../../../../../H-x86_64-mingw32/nios2-elf/lib\libc.a(lib_a-fvwrite.o)
 .debug_frame   0x0000000000002510       0x3c c:/intelfpga_lite/21.1/nios2eds/bin/gnu/h-x86_64-mingw32/bin/../lib/gcc/nios2-elf/10.3.1/../../../../../H-x86_64-mingw32/nios2-elf/lib\libc.a(lib_a-isattyr.o)
 .debug_frame   0x000000000000254c       0x40 c:/intelfpga_lite/21.1/nios2eds/bin/gnu/h-x86_64-mingw32/bin/../lib/gcc/nios2-elf/10.3.1/../../../../../H-x86_64-mingw32/nios2-elf/lib\libc.a(lib_a-localeconv.o)
 .debug_frame   0x000000000000258c       0x3c c:/intelfpga_lite/21.1/nios2eds/bin/gnu/h-x86_64-mingw32/bin/../lib/gcc/nios2-elf/10.3.1/../../../../../H-x86_64-mingw32/nios2-elf/lib\libc.a(lib_a-lseekr.o)
 .debug_frame   0x00000000000025c8       0x20 c:/intelfpga_lite/21.1/nios2eds/bin/gnu/h-x86_64-mingw32/bin/../lib/gcc/nios2-elf/10.3.1/../../../../../H-x86_64-mingw32/nios2-elf/lib\libc.a(lib_a-memchr.o)
 .debug_frame   0x00000000000025e8       0x20 c:/intelfpga_lite/21.1/nios2eds/bin/gnu/h-x86_64-mingw32/bin/../lib/gcc/nios2-elf/10.3.1/../../../../../H-x86_64-mingw32/nios2-elf/lib\libc.a(lib_a-memmove.o)
 .debug_frame   0x0000000000002608      0x2e0 c:/intelfpga_lite/21.1/nios2eds/bin/gnu/h-x86_64-mingw32/bin/../lib/gcc/nios2-elf/10.3.1/../../../../../H-x86_64-mingw32/nios2-elf/lib\libc.a(lib_a-mprec.o)
 .debug_frame   0x00000000000028e8       0x78 c:/intelfpga_lite/21.1/nios2eds/bin/gnu/h-x86_64-mingw32/bin/../lib/gcc/nios2-elf/10.3.1/../../../../../H-x86_64-mingw32/nios2-elf/lib\libc.a(lib_a-putc.o)
 .debug_frame   0x0000000000002960       0x3c c:/intelfpga_lite/21.1/nios2eds/bin/gnu/h-x86_64-mingw32/bin/../lib/gcc/nios2-elf/10.3.1/../../../../../H-x86_64-mingw32/nios2-elf/lib\libc.a(lib_a-readr.o)
 .debug_frame   0x000000000000299c       0x70 c:/intelfpga_lite/21.1/nios2eds/bin/gnu/h-x86_64-mingw32/bin/../lib/gcc/nios2-elf/10.3.1/../../../../../H-x86_64-mingw32/nios2-elf/lib\libc.a(lib_a-reallocr.o)
 .debug_frame   0x0000000000002a0c       0x9c c:/intelfpga_lite/21.1/nios2eds/bin/gnu/h-x86_64-mingw32/bin/../lib/gcc/nios2-elf/10.3.1/../../../../../H-x86_64-mingw32/nios2-elf/lib\libc.a(lib_a-svfiprintf.o)
 .debug_frame   0x0000000000002aa8      0x104 c:/intelfpga_lite/21.1/nios2eds/bin/gnu/h-x86_64-mingw32/bin/../lib/gcc/nios2-elf/10.3.1/../../../../../H-x86_64-mingw32/nios2-elf/lib\libc.a(lib_a-vfiprintf.o)
 .debug_frame   0x0000000000002bac       0x50 c:/intelfpga_lite/21.1/nios2eds/bin/gnu/h-x86_64-mingw32/bin/../lib/gcc/nios2-elf/10.3.1/../../../../../H-x86_64-mingw32/nios2-elf/lib\libc.a(lib_a-wbuf.o)
 .debug_frame   0x0000000000002bfc       0x40 c:/intelfpga_lite/21.1/nios2eds/bin/gnu/h-x86_64-mingw32/bin/../lib/gcc/nios2-elf/10.3.1/../../../../../H-x86_64-mingw32/nios2-elf/lib\libc.a(lib_a-assert.o)
 .debug_frame   0x0000000000002c3c       0x38 c:/intelfpga_lite/21.1/nios2eds/bin/gnu/h-x86_64-mingw32/bin/../lib/gcc/nios2-elf/10.3.1/../../../../../H-x86_64-mingw32/nios2-elf/lib\libc.a(lib_a-callocr.o)
 .debug_frame   0x0000000000002c74       0x20 c:/intelfpga_lite/21.1/nios2eds/bin/gnu/h-x86_64-mingw32/bin/../lib/gcc/nios2-elf/10.3.1/../../../../../H-x86_64-mingw32/nios2-elf/lib\libc.a(lib_a-errno.o)
 .debug_frame   0x0000000000002c94       0x48 c:/intelfpga_lite/21.1/nios2eds/bin/gnu/h-x86_64-mingw32/bin/../lib/gcc/nios2-elf/10.3.1/../../../../../H-x86_64-mingw32/nios2-elf/lib\libc.a(lib_a-fiprintf.o)
 .debug_frame   0x0000000000002cdc       0x78 c:/intelfpga_lite/21.1/nios2eds/bin/gnu/h-x86_64-mingw32/bin/../lib/gcc/nios2-elf/10.3.1/../../../../../H-x86_64-mingw32/nios2-elf/lib\libc.a(lib_a-fputwc.o)
 .debug_frame   0x0000000000002d54       0x80 c:/intelfpga_lite/21.1/nios2eds/bin/gnu/h-x86_64-mingw32/bin/../lib/gcc/nios2-elf/10.3.1/../../../../../H-x86_64-mingw32/nios2-elf/lib\libc.a(lib_a-locale.o)
 .debug_frame   0x0000000000002dd4       0x40 c:/intelfpga_lite/21.1/nios2eds/bin/gnu/h-x86_64-mingw32/bin/../lib/gcc/nios2-elf/10.3.1/../../../../../H-x86_64-mingw32/nios2-elf/lib\libc.a(lib_a-mbtowc_r.o)
 .debug_frame   0x0000000000002e14       0x20 c:/intelfpga_lite/21.1/nios2eds/bin/gnu/h-x86_64-mingw32/bin/../lib/gcc/nios2-elf/10.3.1/../../../../../H-x86_64-mingw32/nios2-elf/lib\libc.a(lib_a-vfiprintfr_1.o)
 .debug_frame   0x0000000000002e34       0x60 c:/intelfpga_lite/21.1/nios2eds/bin/gnu/h-x86_64-mingw32/bin/../lib/gcc/nios2-elf/10.3.1/../../../../../H-x86_64-mingw32/nios2-elf/lib\libc.a(lib_a-wcrtomb.o)
 .debug_frame   0x0000000000002e94       0x30 c:/intelfpga_lite/21.1/nios2eds/bin/gnu/h-x86_64-mingw32/bin/../lib/gcc/nios2-elf/10.3.1/../../../../../H-x86_64-mingw32/nios2-elf/lib\libc.a(lib_a-wctomb_r.o)
 .debug_frame   0x0000000000002ec4       0x28 c:/intelfpga_lite/21.1/nios2eds/bin/gnu/h-x86_64-mingw32/bin/../lib/gcc/nios2-elf/10.3.1/../../../../../H-x86_64-mingw32/nios2-elf/lib\libc.a(lib_a-abort.o)
 .debug_frame   0x0000000000002eec      0x17c c:/intelfpga_lite/21.1/nios2eds/bin/gnu/h-x86_64-mingw32/bin/../lib/gcc/nios2-elf/10.3.1/../../../../../H-x86_64-mingw32/nios2-elf/lib\libc.a(lib_a-signal.o)
 .debug_frame   0x0000000000003068       0x4c c:/intelfpga_lite/21.1/nios2eds/bin/gnu/h-x86_64-mingw32/bin/../lib/gcc/nios2-elf/10.3.1/../../../../../H-x86_64-mingw32/nios2-elf/lib\libc.a(lib_a-signalr.o)
 .debug_frame   0x00000000000030b4       0x54 c:/intelfpga_lite/21.1/nios2eds/bin/gnu/h-x86_64-mingw32/bin/../lib/gcc/nios2-elf/10.3.1\libgcc.a(_udivdi3.o)
 .debug_frame   0x0000000000003108       0x54 c:/intelfpga_lite/21.1/nios2eds/bin/gnu/h-x86_64-mingw32/bin/../lib/gcc/nios2-elf/10.3.1\libgcc.a(_umoddi3.o)
 .debug_frame   0x000000000000315c       0x44 c:/intelfpga_lite/21.1/nios2eds/bin/gnu/h-x86_64-mingw32/bin/../lib/gcc/nios2-elf/10.3.1\libgcc.a(adddf3.o)
 .debug_frame   0x00000000000031a0       0x20 c:/intelfpga_lite/21.1/nios2eds/bin/gnu/h-x86_64-mingw32/bin/../lib/gcc/nios2-elf/10.3.1\libgcc.a(eqdf2.o)
 .debug_frame   0x00000000000031c0       0x20 c:/intelfpga_lite/21.1/nios2eds/bin/gnu/h-x86_64-mingw32/bin/../lib/gcc/nios2-elf/10.3.1\libgcc.a(gedf2.o)
 .debug_frame   0x00000000000031e0       0x20 c:/intelfpga_lite/21.1/nios2eds/bin/gnu/h-x86_64-mingw32/bin/../lib/gcc/nios2-elf/10.3.1\libgcc.a(ledf2.o)
 .debug_frame   0x0000000000003200       0x54 c:/intelfpga_lite/21.1/nios2eds/bin/gnu/h-x86_64-mingw32/bin/../lib/gcc/nios2-elf/10.3.1\libgcc.a(muldf3.o)
 .debug_frame   0x0000000000003254       0x44 c:/intelfpga_lite/21.1/nios2eds/bin/gnu/h-x86_64-mingw32/bin/../lib/gcc/nios2-elf/10.3.1\libgcc.a(subdf3.o)
 .debug_frame   0x0000000000003298       0x20 c:/intelfpga_lite/21.1/nios2eds/bin/gnu/h-x86_64-mingw32/bin/../lib/gcc/nios2-elf/10.3.1\libgcc.a(unorddf2.o)
 .debug_frame   0x00000000000032b8       0x20 c:/intelfpga_lite/21.1/nios2eds/bin/gnu/h-x86_64-mingw32/bin/../lib/gcc/nios2-elf/10.3.1\libgcc.a(fixdfsi.o)
 .debug_frame   0x00000000000032d8       0x38 c:/intelfpga_lite/21.1/nios2eds/bin/gnu/h-x86_64-mingw32/bin/../lib/gcc/nios2-elf/10.3.1\libgcc.a(floatsidf.o)
 .debug_frame   0x0000000000003310       0x34 c:/intelfpga_lite/21.1/nios2eds/bin/gnu/h-x86_64-mingw32/bin/../lib/gcc/nios2-elf/10.3.1\libgcc.a(floatunsidf.o)
 .debug_frame   0x0000000000003344       0x60 c:/Users/Robin/Documents/NHLStenden/FPGA/QuartusPrimeProjects/DE2-115_V.1.0.6_SystemCD/DE2_115_demonstrations/DE2_115_SD_Card_Audio_Player_Copy/Software/Audio_Player_test1_bsp/\libhal_bsp.a(alt_close.o)
 .debug_frame   0x00000000000033a4       0x34 c:/Users/Robin/Documents/NHLStenden/FPGA/QuartusPrimeProjects/DE2-115_V.1.0.6_SystemCD/DE2_115_demonstrations/DE2_115_SD_Card_Audio_Player_Copy/Software/Audio_Player_test1_bsp/\libhal_bsp.a(alt_dev.o)
 .debug_frame   0x00000000000033d8       0x2c c:/Users/Robin/Documents/NHLStenden/FPGA/QuartusPrimeProjects/DE2-115_V.1.0.6_SystemCD/DE2_115_demonstrations/DE2_115_SD_Card_Audio_Player_Copy/Software/Audio_Player_test1_bsp/\libhal_bsp.a(alt_exit.o)
 .debug_frame   0x0000000000003404       0x60 c:/Users/Robin/Documents/NHLStenden/FPGA/QuartusPrimeProjects/DE2-115_V.1.0.6_SystemCD/DE2_115_demonstrations/DE2_115_SD_Card_Audio_Player_Copy/Software/Audio_Player_test1_bsp/\libhal_bsp.a(alt_fstat.o)
 .debug_frame   0x0000000000003464       0x34 c:/Users/Robin/Documents/NHLStenden/FPGA/QuartusPrimeProjects/DE2-115_V.1.0.6_SystemCD/DE2_115_demonstrations/DE2_115_SD_Card_Audio_Player_Copy/Software/Audio_Player_test1_bsp/\libhal_bsp.a(alt_getpid.o)
 .debug_frame   0x0000000000003498       0x34 c:/Users/Robin/Documents/NHLStenden/FPGA/QuartusPrimeProjects/DE2-115_V.1.0.6_SystemCD/DE2_115_demonstrations/DE2_115_SD_Card_Audio_Player_Copy/Software/Audio_Player_test1_bsp/\libhal_bsp.a(alt_irq_register.o)
 .debug_frame   0x00000000000034cc       0x60 c:/Users/Robin/Documents/NHLStenden/FPGA/QuartusPrimeProjects/DE2-115_V.1.0.6_SystemCD/DE2_115_demonstrations/DE2_115_SD_Card_Audio_Player_Copy/Software/Audio_Player_test1_bsp/\libhal_bsp.a(alt_isatty.o)
 .debug_frame   0x000000000000352c       0x60 c:/Users/Robin/Documents/NHLStenden/FPGA/QuartusPrimeProjects/DE2-115_V.1.0.6_SystemCD/DE2_115_demonstrations/DE2_115_SD_Card_Audio_Player_Copy/Software/Audio_Player_test1_bsp/\libhal_bsp.a(alt_kill.o)
 .debug_frame   0x000000000000358c       0x5c c:/Users/Robin/Documents/NHLStenden/FPGA/QuartusPrimeProjects/DE2-115_V.1.0.6_SystemCD/DE2_115_demonstrations/DE2_115_SD_Card_Audio_Player_Copy/Software/Audio_Player_test1_bsp/\libhal_bsp.a(alt_load.o)
 .debug_frame   0x00000000000035e8       0x60 c:/Users/Robin/Documents/NHLStenden/FPGA/QuartusPrimeProjects/DE2-115_V.1.0.6_SystemCD/DE2_115_demonstrations/DE2_115_SD_Card_Audio_Player_Copy/Software/Audio_Player_test1_bsp/\libhal_bsp.a(alt_lseek.o)
 .debug_frame   0x0000000000003648       0x2c c:/Users/Robin/Documents/NHLStenden/FPGA/QuartusPrimeProjects/DE2-115_V.1.0.6_SystemCD/DE2_115_demonstrations/DE2_115_SD_Card_Audio_Player_Copy/Software/Audio_Player_test1_bsp/\libhal_bsp.a(alt_main.o)
 .debug_frame   0x0000000000003674       0x58 c:/Users/Robin/Documents/NHLStenden/FPGA/QuartusPrimeProjects/DE2-115_V.1.0.6_SystemCD/DE2_115_demonstrations/DE2_115_SD_Card_Audio_Player_Copy/Software/Audio_Player_test1_bsp/\libhal_bsp.a(alt_malloc_lock.o)
 .debug_frame   0x00000000000036cc       0x84 c:/Users/Robin/Documents/NHLStenden/FPGA/QuartusPrimeProjects/DE2-115_V.1.0.6_SystemCD/DE2_115_demonstrations/DE2_115_SD_Card_Audio_Player_Copy/Software/Audio_Player_test1_bsp/\libhal_bsp.a(alt_open.o)
 .debug_frame   0x0000000000003750       0x60 c:/Users/Robin/Documents/NHLStenden/FPGA/QuartusPrimeProjects/DE2-115_V.1.0.6_SystemCD/DE2_115_demonstrations/DE2_115_SD_Card_Audio_Player_Copy/Software/Audio_Player_test1_bsp/\libhal_bsp.a(alt_read.o)
 .debug_frame   0x00000000000037b0       0x34 c:/Users/Robin/Documents/NHLStenden/FPGA/QuartusPrimeProjects/DE2-115_V.1.0.6_SystemCD/DE2_115_demonstrations/DE2_115_SD_Card_Audio_Player_Copy/Software/Audio_Player_test1_bsp/\libhal_bsp.a(alt_release_fd.o)
 .debug_frame   0x00000000000037e4       0x34 c:/Users/Robin/Documents/NHLStenden/FPGA/QuartusPrimeProjects/DE2-115_V.1.0.6_SystemCD/DE2_115_demonstrations/DE2_115_SD_Card_Audio_Player_Copy/Software/Audio_Player_test1_bsp/\libhal_bsp.a(alt_sbrk.o)
 .debug_frame   0x0000000000003818       0x64 c:/Users/Robin/Documents/NHLStenden/FPGA/QuartusPrimeProjects/DE2-115_V.1.0.6_SystemCD/DE2_115_demonstrations/DE2_115_SD_Card_Audio_Player_Copy/Software/Audio_Player_test1_bsp/\libhal_bsp.a(alt_tick.o)
 .debug_frame   0x000000000000387c       0x38 c:/Users/Robin/Documents/NHLStenden/FPGA/QuartusPrimeProjects/DE2-115_V.1.0.6_SystemCD/DE2_115_demonstrations/DE2_115_SD_Card_Audio_Player_Copy/Software/Audio_Player_test1_bsp/\libhal_bsp.a(alt_usleep.o)
 .debug_frame   0x00000000000038b4       0x60 c:/Users/Robin/Documents/NHLStenden/FPGA/QuartusPrimeProjects/DE2-115_V.1.0.6_SystemCD/DE2_115_demonstrations/DE2_115_SD_Card_Audio_Player_Copy/Software/Audio_Player_test1_bsp/\libhal_bsp.a(alt_write.o)
 .debug_frame   0x0000000000003914       0x88 c:/Users/Robin/Documents/NHLStenden/FPGA/QuartusPrimeProjects/DE2-115_V.1.0.6_SystemCD/DE2_115_demonstrations/DE2_115_SD_Card_Audio_Player_Copy/Software/Audio_Player_test1_bsp/\libhal_bsp.a(alt_sys_init.o)
 .debug_frame   0x000000000000399c      0x120 c:/Users/Robin/Documents/NHLStenden/FPGA/QuartusPrimeProjects/DE2-115_V.1.0.6_SystemCD/DE2_115_demonstrations/DE2_115_SD_Card_Audio_Player_Copy/Software/Audio_Player_test1_bsp/\libhal_bsp.a(altera_avalon_cfi_flash.o)
 .debug_frame   0x0000000000003abc      0x2a8 c:/Users/Robin/Documents/NHLStenden/FPGA/QuartusPrimeProjects/DE2-115_V.1.0.6_SystemCD/DE2_115_demonstrations/DE2_115_SD_Card_Audio_Player_Copy/Software/Audio_Player_test1_bsp/\libhal_bsp.a(altera_avalon_cfi_flash_table.o)
 .debug_frame   0x0000000000003d64       0xb0 c:/Users/Robin/Documents/NHLStenden/FPGA/QuartusPrimeProjects/DE2-115_V.1.0.6_SystemCD/DE2_115_demonstrations/DE2_115_SD_Card_Audio_Player_Copy/Software/Audio_Player_test1_bsp/\libhal_bsp.a(altera_avalon_jtag_uart_fd.o)
 .debug_frame   0x0000000000003e14       0xa4 c:/Users/Robin/Documents/NHLStenden/FPGA/QuartusPrimeProjects/DE2-115_V.1.0.6_SystemCD/DE2_115_demonstrations/DE2_115_SD_Card_Audio_Player_Copy/Software/Audio_Player_test1_bsp/\libhal_bsp.a(altera_avalon_jtag_uart_init.o)
 .debug_frame   0x0000000000003eb8       0x34 c:/Users/Robin/Documents/NHLStenden/FPGA/QuartusPrimeProjects/DE2-115_V.1.0.6_SystemCD/DE2_115_demonstrations/DE2_115_SD_Card_Audio_Player_Copy/Software/Audio_Player_test1_bsp/\libhal_bsp.a(altera_avalon_jtag_uart_ioctl.o)
 .debug_frame   0x0000000000003eec       0x38 c:/Users/Robin/Documents/NHLStenden/FPGA/QuartusPrimeProjects/DE2-115_V.1.0.6_SystemCD/DE2_115_demonstrations/DE2_115_SD_Card_Audio_Player_Copy/Software/Audio_Player_test1_bsp/\libhal_bsp.a(altera_avalon_jtag_uart_read.o)
 .debug_frame   0x0000000000003f24       0x38 c:/Users/Robin/Documents/NHLStenden/FPGA/QuartusPrimeProjects/DE2-115_V.1.0.6_SystemCD/DE2_115_demonstrations/DE2_115_SD_Card_Audio_Player_Copy/Software/Audio_Player_test1_bsp/\libhal_bsp.a(altera_avalon_jtag_uart_write.o)
 .debug_frame   0x0000000000003f5c       0x60 c:/Users/Robin/Documents/NHLStenden/FPGA/QuartusPrimeProjects/DE2-115_V.1.0.6_SystemCD/DE2_115_demonstrations/DE2_115_SD_Card_Audio_Player_Copy/Software/Audio_Player_test1_bsp/\libhal_bsp.a(altera_avalon_timer_sc.o)
 .debug_frame   0x0000000000003fbc       0x88 c:/Users/Robin/Documents/NHLStenden/FPGA/QuartusPrimeProjects/DE2-115_V.1.0.6_SystemCD/DE2_115_demonstrations/DE2_115_SD_Card_Audio_Player_Copy/Software/Audio_Player_test1_bsp/\libhal_bsp.a(altera_avalon_uart_fd.o)
 .debug_frame   0x0000000000004044       0xcc c:/Users/Robin/Documents/NHLStenden/FPGA/QuartusPrimeProjects/DE2-115_V.1.0.6_SystemCD/DE2_115_demonstrations/DE2_115_SD_Card_Audio_Player_Copy/Software/Audio_Player_test1_bsp/\libhal_bsp.a(altera_avalon_uart_init.o)
 .debug_frame   0x0000000000004110       0x60 c:/Users/Robin/Documents/NHLStenden/FPGA/QuartusPrimeProjects/DE2-115_V.1.0.6_SystemCD/DE2_115_demonstrations/DE2_115_SD_Card_Audio_Player_Copy/Software/Audio_Player_test1_bsp/\libhal_bsp.a(altera_avalon_uart_read.o)
 .debug_frame   0x0000000000004170       0x60 c:/Users/Robin/Documents/NHLStenden/FPGA/QuartusPrimeProjects/DE2-115_V.1.0.6_SystemCD/DE2_115_demonstrations/DE2_115_SD_Card_Audio_Player_Copy/Software/Audio_Player_test1_bsp/\libhal_bsp.a(altera_avalon_uart_write.o)
 .debug_frame   0x00000000000041d0       0x34 c:/Users/Robin/Documents/NHLStenden/FPGA/QuartusPrimeProjects/DE2-115_V.1.0.6_SystemCD/DE2_115_demonstrations/DE2_115_SD_Card_Audio_Player_Copy/Software/Audio_Player_test1_bsp/\libhal_bsp.a(alt_alarm_start.o)
 .debug_frame   0x0000000000004204       0x38 c:/Users/Robin/Documents/NHLStenden/FPGA/QuartusPrimeProjects/DE2-115_V.1.0.6_SystemCD/DE2_115_demonstrations/DE2_115_SD_Card_Audio_Player_Copy/Software/Audio_Player_test1_bsp/\libhal_bsp.a(alt_busy_sleep.o)
 .debug_frame   0x000000000000423c       0x34 c:/Users/Robin/Documents/NHLStenden/FPGA/QuartusPrimeProjects/DE2-115_V.1.0.6_SystemCD/DE2_115_demonstrations/DE2_115_SD_Card_Audio_Player_Copy/Software/Audio_Player_test1_bsp/\libhal_bsp.a(alt_dcache_flush.o)
 .debug_frame   0x0000000000004270       0x34 c:/Users/Robin/Documents/NHLStenden/FPGA/QuartusPrimeProjects/DE2-115_V.1.0.6_SystemCD/DE2_115_demonstrations/DE2_115_SD_Card_Audio_Player_Copy/Software/Audio_Player_test1_bsp/\libhal_bsp.a(alt_dcache_flush_all.o)
 .debug_frame   0x00000000000042a4       0x60 c:/Users/Robin/Documents/NHLStenden/FPGA/QuartusPrimeProjects/DE2-115_V.1.0.6_SystemCD/DE2_115_demonstrations/DE2_115_SD_Card_Audio_Player_Copy/Software/Audio_Player_test1_bsp/\libhal_bsp.a(alt_dev_llist_insert.o)
 .debug_frame   0x0000000000004304       0x38 c:/Users/Robin/Documents/NHLStenden/FPGA/QuartusPrimeProjects/DE2-115_V.1.0.6_SystemCD/DE2_115_demonstrations/DE2_115_SD_Card_Audio_Player_Copy/Software/Audio_Player_test1_bsp/\libhal_bsp.a(alt_do_ctors.o)
 .debug_frame   0x000000000000433c       0x38 c:/Users/Robin/Documents/NHLStenden/FPGA/QuartusPrimeProjects/DE2-115_V.1.0.6_SystemCD/DE2_115_demonstrations/DE2_115_SD_Card_Audio_Player_Copy/Software/Audio_Player_test1_bsp/\libhal_bsp.a(alt_do_dtors.o)
 .debug_frame   0x0000000000004374       0x38 c:/Users/Robin/Documents/NHLStenden/FPGA/QuartusPrimeProjects/DE2-115_V.1.0.6_SystemCD/DE2_115_demonstrations/DE2_115_SD_Card_Audio_Player_Copy/Software/Audio_Player_test1_bsp/\libhal_bsp.a(alt_find_dev.o)
 .debug_frame   0x00000000000043ac       0x38 c:/Users/Robin/Documents/NHLStenden/FPGA/QuartusPrimeProjects/DE2-115_V.1.0.6_SystemCD/DE2_115_demonstrations/DE2_115_SD_Card_Audio_Player_Copy/Software/Audio_Player_test1_bsp/\libhal_bsp.a(alt_find_file.o)
 .debug_frame   0x00000000000043e4       0x60 c:/Users/Robin/Documents/NHLStenden/FPGA/QuartusPrimeProjects/DE2-115_V.1.0.6_SystemCD/DE2_115_demonstrations/DE2_115_SD_Card_Audio_Player_Copy/Software/Audio_Player_test1_bsp/\libhal_bsp.a(alt_flash_dev.o)
 .debug_frame   0x0000000000004444       0x34 c:/Users/Robin/Documents/NHLStenden/FPGA/QuartusPrimeProjects/DE2-115_V.1.0.6_SystemCD/DE2_115_demonstrations/DE2_115_SD_Card_Audio_Player_Copy/Software/Audio_Player_test1_bsp/\libhal_bsp.a(alt_get_fd.o)
 .debug_frame   0x0000000000004478       0x38 c:/Users/Robin/Documents/NHLStenden/FPGA/QuartusPrimeProjects/DE2-115_V.1.0.6_SystemCD/DE2_115_demonstrations/DE2_115_SD_Card_Audio_Player_Copy/Software/Audio_Player_test1_bsp/\libhal_bsp.a(alt_icache_flush_all.o)
 .debug_frame   0x00000000000044b0       0xa4 c:/Users/Robin/Documents/NHLStenden/FPGA/QuartusPrimeProjects/DE2-115_V.1.0.6_SystemCD/DE2_115_demonstrations/DE2_115_SD_Card_Audio_Player_Copy/Software/Audio_Player_test1_bsp/\libhal_bsp.a(alt_iic.o)
 .debug_frame   0x0000000000004554       0x38 c:/Users/Robin/Documents/NHLStenden/FPGA/QuartusPrimeProjects/DE2-115_V.1.0.6_SystemCD/DE2_115_demonstrations/DE2_115_SD_Card_Audio_Player_Copy/Software/Audio_Player_test1_bsp/\libhal_bsp.a(alt_iic_isr_register.o)
 .debug_frame   0x000000000000458c       0x60 c:/Users/Robin/Documents/NHLStenden/FPGA/QuartusPrimeProjects/DE2-115_V.1.0.6_SystemCD/DE2_115_demonstrations/DE2_115_SD_Card_Audio_Player_Copy/Software/Audio_Player_test1_bsp/\libhal_bsp.a(alt_io_redirect.o)
 .debug_frame   0x00000000000045ec       0x38 c:/Users/Robin/Documents/NHLStenden/FPGA/QuartusPrimeProjects/DE2-115_V.1.0.6_SystemCD/DE2_115_demonstrations/DE2_115_SD_Card_Audio_Player_Copy/Software/Audio_Player_test1_bsp/\libhal_bsp.a(alt_irq_handler.o)
 .debug_frame   0x0000000000004624       0x34 c:/Users/Robin/Documents/NHLStenden/FPGA/QuartusPrimeProjects/DE2-115_V.1.0.6_SystemCD/DE2_115_demonstrations/DE2_115_SD_Card_Audio_Player_Copy/Software/Audio_Player_test1_bsp/\libhal_bsp.a(altera_nios2_irq.o)
 .debug_frame   0x0000000000004658       0xb0 c:/Users/Robin/Documents/NHLStenden/FPGA/QuartusPrimeProjects/DE2-115_V.1.0.6_SystemCD/DE2_115_demonstrations/DE2_115_SD_Card_Audio_Player_Copy/Software/Audio_Player_test1_bsp/\libhal_bsp.a(altera_avalon_cfi_flash_amd.o)
 .debug_frame   0x0000000000004708       0xb0 c:/Users/Robin/Documents/NHLStenden/FPGA/QuartusPrimeProjects/DE2-115_V.1.0.6_SystemCD/DE2_115_demonstrations/DE2_115_SD_Card_Audio_Player_Copy/Software/Audio_Player_test1_bsp/\libhal_bsp.a(altera_avalon_cfi_flash_intel.o)
 .debug_frame   0x00000000000047b8       0x34 c:/Users/Robin/Documents/NHLStenden/FPGA/QuartusPrimeProjects/DE2-115_V.1.0.6_SystemCD/DE2_115_demonstrations/DE2_115_SD_Card_Audio_Player_Copy/Software/Audio_Player_test1_bsp/\libhal_bsp.a(alt_icache_flush.o)
 .debug_frame   0x00000000000047ec       0x20 c:/intelfpga_lite/21.1/nios2eds/bin/gnu/h-x86_64-mingw32/bin/../lib/gcc/nios2-elf/10.3.1/../../../../../H-x86_64-mingw32/nios2-elf/lib\libc.a(lib_a-atexit.o)
 .debug_frame   0x000000000000480c       0x28 c:/intelfpga_lite/21.1/nios2eds/bin/gnu/h-x86_64-mingw32/bin/../lib/gcc/nios2-elf/10.3.1/../../../../../H-x86_64-mingw32/nios2-elf/lib\libc.a(lib_a-exit.o)
 .debug_frame   0x0000000000004834       0x20 c:/intelfpga_lite/21.1/nios2eds/bin/gnu/h-x86_64-mingw32/bin/../lib/gcc/nios2-elf/10.3.1/../../../../../H-x86_64-mingw32/nios2-elf/lib\libc.a(lib_a-memcmp.o)
 .debug_frame   0x0000000000004854       0x20 c:/intelfpga_lite/21.1/nios2eds/bin/gnu/h-x86_64-mingw32/bin/../lib/gcc/nios2-elf/10.3.1/../../../../../H-x86_64-mingw32/nios2-elf/lib\libc.a(lib_a-__atexit.o)
 .debug_frame   0x0000000000004874       0x54 c:/intelfpga_lite/21.1/nios2eds/bin/gnu/h-x86_64-mingw32/bin/../lib/gcc/nios2-elf/10.3.1/../../../../../H-x86_64-mingw32/nios2-elf/lib\libc.a(lib_a-__call_atexit.o)

.debug_str      0x0000000000000000     0x60e8
 *(.debug_str)
 .debug_str     0x0000000000000000       0xce c:/Users/Robin/Documents/NHLStenden/FPGA/QuartusPrimeProjects/DE2-115_V.1.0.6_SystemCD/DE2_115_demonstrations/DE2_115_SD_Card_Audio_Player_Copy/Software/Audio_Player_test1_bsp//obj/HAL/src/crt0.o
 .debug_str     0x00000000000000ce      0x485 obj/default/AUDIO.o
                                        0x4f0 (size before relaxing)
 .debug_str     0x0000000000000553      0x650 obj/default/FatFileSystem.o
                                        0x8a1 (size before relaxing)
 .debug_str     0x0000000000000ba3      0x2f2 obj/default/FatInternal.o
                                        0x71b (size before relaxing)
 .debug_str     0x0000000000000e95       0x99 obj/default/I2C.o
                                        0x26b (size before relaxing)
 .debug_str     0x0000000000000f2e      0x3b7 obj/default/LCD.o
                                        0x5d9 (size before relaxing)
 .debug_str     0x00000000000012e5       0x3f obj/default/LED.o
                                        0x1ef (size before relaxing)
 .debug_str     0x0000000000001324       0x58 obj/default/SEG7.o
                                        0x202 (size before relaxing)
 .debug_str     0x000000000000137c      0x12a obj/default/WaveLib.o
                                        0x301 (size before relaxing)
 .debug_str     0x00000000000014a6       0x26 obj/default/crc16.o
                                        0x1c6 (size before relaxing)
 .debug_str     0x00000000000014cc       0x2a obj/default/crc7.o
                                        0x1ce (size before relaxing)
 .debug_str     0x00000000000014f6       0x99 obj/default/debug.o
                                        0x239 (size before relaxing)
 .debug_str     0x000000000000158f      0x35e obj/default/hello_world.o
                                        0x779 (size before relaxing)
 .debug_str     0x00000000000018ed       0xff obj/default/sd_hal.o
                                        0x2e1 (size before relaxing)
 .debug_str     0x00000000000019ec       0xf2 obj/default/sd_lib.o
                                        0x311 (size before relaxing)
 .debug_str     0x0000000000001ade      0x149 obj/default/sd_protocol.o
                                        0x39d (size before relaxing)
 .debug_str     0x0000000000001c27      0x17b c:/intelfpga_lite/21.1/nios2eds/bin/gnu/h-x86_64-mingw32/bin/../lib/gcc/nios2-elf/10.3.1\libgcc.a(lib2-divmod.o)
                                        0x1c6 (size before relaxing)
 .debug_str     0x0000000000001da2      0x17b c:/intelfpga_lite/21.1/nios2eds/bin/gnu/h-x86_64-mingw32/bin/../lib/gcc/nios2-elf/10.3.1\libgcc.a(divsf3.o)
                                        0x2f9 (size before relaxing)
 .debug_str     0x0000000000001f1d       0x9b c:/intelfpga_lite/21.1/nios2eds/bin/gnu/h-x86_64-mingw32/bin/../lib/gcc/nios2-elf/10.3.1\libgcc.a(mulsf3.o)
                                        0x2f9 (size before relaxing)
 .debug_str     0x0000000000001fb8       0xdd c:/intelfpga_lite/21.1/nios2eds/bin/gnu/h-x86_64-mingw32/bin/../lib/gcc/nios2-elf/10.3.1\libgcc.a(floatunsisf.o)
                                        0x29c (size before relaxing)
 .debug_str     0x0000000000002095      0x19b c:/intelfpga_lite/21.1/nios2eds/bin/gnu/h-x86_64-mingw32/bin/../lib/gcc/nios2-elf/10.3.1\libgcc.a(divdf3.o)
                                        0x3e7 (size before relaxing)
 .debug_str     0x0000000000002230       0x50 c:/intelfpga_lite/21.1/nios2eds/bin/gnu/h-x86_64-mingw32/bin/../lib/gcc/nios2-elf/10.3.1\libgcc.a(extendsfdf2.o)
                                        0x24c (size before relaxing)
 .debug_str     0x0000000000002280       0x41 c:/intelfpga_lite/21.1/nios2eds/bin/gnu/h-x86_64-mingw32/bin/../lib/gcc/nios2-elf/10.3.1\libgcc.a(truncdfsf2.o)
                                        0x2a1 (size before relaxing)
 .debug_str     0x00000000000022c1       0x5d c:/intelfpga_lite/21.1/nios2eds/bin/gnu/h-x86_64-mingw32/bin/../lib/gcc/nios2-elf/10.3.1\libgcc.a(_clzsi2.o)
                                        0x1f0 (size before relaxing)
 .debug_str     0x000000000000231e      0x1d3 c:/intelfpga_lite/21.1/nios2eds/bin/gnu/h-x86_64-mingw32/bin/../lib/gcc/nios2-elf/10.3.1\libgcc.a(_clz.o)
 .debug_str     0x000000000000231e      0x183 c:/intelfpga_lite/21.1/nios2eds/bin/gnu/h-x86_64-mingw32/bin/../lib/gcc/nios2-elf/10.3.1/../../../../../H-x86_64-mingw32/nios2-elf/lib\libc.a(lib_a-fclose.o)
                                        0x5e9 (size before relaxing)
 .debug_str     0x00000000000024a1       0x7d c:/intelfpga_lite/21.1/nios2eds/bin/gnu/h-x86_64-mingw32/bin/../lib/gcc/nios2-elf/10.3.1/../../../../../H-x86_64-mingw32/nios2-elf/lib\libc.a(lib_a-fflush.o)
                                        0x5fc (size before relaxing)
 .debug_str     0x000000000000251e      0x14c c:/intelfpga_lite/21.1/nios2eds/bin/gnu/h-x86_64-mingw32/bin/../lib/gcc/nios2-elf/10.3.1/../../../../../H-x86_64-mingw32/nios2-elf/lib\libc.a(lib_a-findfp.o)
                                        0x701 (size before relaxing)
 .debug_str     0x000000000000266a       0x6a c:/intelfpga_lite/21.1/nios2eds/bin/gnu/h-x86_64-mingw32/bin/../lib/gcc/nios2-elf/10.3.1/../../../../../H-x86_64-mingw32/nios2-elf/lib\libc.a(lib_a-fopen.o)
                                        0x5ed (size before relaxing)
 .debug_str     0x00000000000026d4      0x1ff c:/intelfpga_lite/21.1/nios2eds/bin/gnu/h-x86_64-mingw32/bin/../lib/gcc/nios2-elf/10.3.1/../../../../../H-x86_64-mingw32/nios2-elf/lib\libc.a(lib_a-freer.o)
                                        0x6eb (size before relaxing)
 .debug_str     0x00000000000028d3       0x51 c:/intelfpga_lite/21.1/nios2eds/bin/gnu/h-x86_64-mingw32/bin/../lib/gcc/nios2-elf/10.3.1/../../../../../H-x86_64-mingw32/nios2-elf/lib\libc.a(lib_a-fseek.o)
                                        0x5a8 (size before relaxing)
 .debug_str     0x0000000000002924      0x17f c:/intelfpga_lite/21.1/nios2eds/bin/gnu/h-x86_64-mingw32/bin/../lib/gcc/nios2-elf/10.3.1/../../../../../H-x86_64-mingw32/nios2-elf/lib\libc.a(lib_a-fseeko.o)
                                        0x75b (size before relaxing)
 .debug_str     0x0000000000002aa3       0xcb c:/intelfpga_lite/21.1/nios2eds/bin/gnu/h-x86_64-mingw32/bin/../lib/gcc/nios2-elf/10.3.1/../../../../../H-x86_64-mingw32/nios2-elf/lib\libc.a(lib_a-fstatr.o)
                                        0x6d1 (size before relaxing)
 .debug_str     0x0000000000002b6e       0x49 c:/intelfpga_lite/21.1/nios2eds/bin/gnu/h-x86_64-mingw32/bin/../lib/gcc/nios2-elf/10.3.1/../../../../../H-x86_64-mingw32/nios2-elf/lib\libc.a(lib_a-fwalk.o)
                                        0x5a1 (size before relaxing)
 .debug_str     0x0000000000002bb7       0x95 c:/intelfpga_lite/21.1/nios2eds/bin/gnu/h-x86_64-mingw32/bin/../lib/gcc/nios2-elf/10.3.1/../../../../../H-x86_64-mingw32/nios2-elf/lib\libc.a(lib_a-fwrite.o)
                                        0x610 (size before relaxing)
 .debug_str     0x0000000000002c4c       0x47 c:/intelfpga_lite/21.1/nios2eds/bin/gnu/h-x86_64-mingw32/bin/../lib/gcc/nios2-elf/10.3.1/../../../../../H-x86_64-mingw32/nios2-elf/lib\libc.a(lib_a-impure.o)
                                        0x59c (size before relaxing)
 .debug_str     0x0000000000002c93       0x3e c:/intelfpga_lite/21.1/nios2eds/bin/gnu/h-x86_64-mingw32/bin/../lib/gcc/nios2-elf/10.3.1/../../../../../H-x86_64-mingw32/nios2-elf/lib\libc.a(lib_a-int_errno.o)
                                        0x1ba (size before relaxing)
 .debug_str     0x0000000000002cd1       0x6b c:/intelfpga_lite/21.1/nios2eds/bin/gnu/h-x86_64-mingw32/bin/../lib/gcc/nios2-elf/10.3.1/../../../../../H-x86_64-mingw32/nios2-elf/lib\libc.a(lib_a-makebuf.o)
                                        0x71d (size before relaxing)
 .debug_str     0x0000000000002d3c       0x48 c:/intelfpga_lite/21.1/nios2eds/bin/gnu/h-x86_64-mingw32/bin/../lib/gcc/nios2-elf/10.3.1/../../../../../H-x86_64-mingw32/nios2-elf/lib\libc.a(lib_a-malloc.o)
                                        0x5b0 (size before relaxing)
 .debug_str     0x0000000000002d84       0xd9 c:/intelfpga_lite/21.1/nios2eds/bin/gnu/h-x86_64-mingw32/bin/../lib/gcc/nios2-elf/10.3.1/../../../../../H-x86_64-mingw32/nios2-elf/lib\libc.a(lib_a-mallocr.o)
                                        0x7a1 (size before relaxing)
 .debug_str     0x0000000000002e5d       0xe8 c:/intelfpga_lite/21.1/nios2eds/bin/gnu/h-x86_64-mingw32/bin/../lib/gcc/nios2-elf/10.3.1/../../../../../H-x86_64-mingw32/nios2-elf/lib\libc.a(lib_a-memcpy.o)
                                        0x1e8 (size before relaxing)
 .debug_str     0x0000000000002f45       0x49 c:/intelfpga_lite/21.1/nios2eds/bin/gnu/h-x86_64-mingw32/bin/../lib/gcc/nios2-elf/10.3.1/../../../../../H-x86_64-mingw32/nios2-elf/lib\libc.a(lib_a-memset.o)
                                        0x1d5 (size before relaxing)
 .debug_str     0x0000000000002f8e       0x3a c:/intelfpga_lite/21.1/nios2eds/bin/gnu/h-x86_64-mingw32/bin/../lib/gcc/nios2-elf/10.3.1/../../../../../H-x86_64-mingw32/nios2-elf/lib\libc.a(lib_a-openr.o)
                                        0x593 (size before relaxing)
 .debug_str     0x0000000000002fc8       0x70 c:/intelfpga_lite/21.1/nios2eds/bin/gnu/h-x86_64-mingw32/bin/../lib/gcc/nios2-elf/10.3.1/../../../../../H-x86_64-mingw32/nios2-elf/lib\libc.a(lib_a-printf.o)
                                        0x5e2 (size before relaxing)
 .debug_str     0x0000000000003038       0x57 c:/intelfpga_lite/21.1/nios2eds/bin/gnu/h-x86_64-mingw32/bin/../lib/gcc/nios2-elf/10.3.1/../../../../../H-x86_64-mingw32/nios2-elf/lib\libc.a(lib_a-putchar.o)
                                        0x59f (size before relaxing)
 .debug_str     0x000000000000308f       0x4d c:/intelfpga_lite/21.1/nios2eds/bin/gnu/h-x86_64-mingw32/bin/../lib/gcc/nios2-elf/10.3.1/../../../../../H-x86_64-mingw32/nios2-elf/lib\libc.a(lib_a-puts.o)
                                        0x603 (size before relaxing)
 .debug_str     0x00000000000030dc       0x4d c:/intelfpga_lite/21.1/nios2eds/bin/gnu/h-x86_64-mingw32/bin/../lib/gcc/nios2-elf/10.3.1/../../../../../H-x86_64-mingw32/nios2-elf/lib\libc.a(lib_a-refill.o)
                                        0x5f7 (size before relaxing)
 .debug_str     0x0000000000003129       0x4e c:/intelfpga_lite/21.1/nios2eds/bin/gnu/h-x86_64-mingw32/bin/../lib/gcc/nios2-elf/10.3.1/../../../../../H-x86_64-mingw32/nios2-elf/lib\libc.a(lib_a-sbrkr.o)
                                        0x592 (size before relaxing)
 .debug_str     0x0000000000003177       0x67 c:/intelfpga_lite/21.1/nios2eds/bin/gnu/h-x86_64-mingw32/bin/../lib/gcc/nios2-elf/10.3.1/../../../../../H-x86_64-mingw32/nios2-elf/lib\libc.a(lib_a-sprintf.o)
                                        0x5d7 (size before relaxing)
 .debug_str     0x00000000000031de       0x93 c:/intelfpga_lite/21.1/nios2eds/bin/gnu/h-x86_64-mingw32/bin/../lib/gcc/nios2-elf/10.3.1/../../../../../H-x86_64-mingw32/nios2-elf/lib\libc.a(lib_a-stdio.o)
                                        0x5f0 (size before relaxing)
 .debug_str     0x0000000000003271       0x43 c:/intelfpga_lite/21.1/nios2eds/bin/gnu/h-x86_64-mingw32/bin/../lib/gcc/nios2-elf/10.3.1/../../../../../H-x86_64-mingw32/nios2-elf/lib\libc.a(lib_a-strcmp.o)
                                        0x1ba (size before relaxing)
 .debug_str     0x00000000000032b4       0x43 c:/intelfpga_lite/21.1/nios2eds/bin/gnu/h-x86_64-mingw32/bin/../lib/gcc/nios2-elf/10.3.1/../../../../../H-x86_64-mingw32/nios2-elf/lib\libc.a(lib_a-strcpy.o)
                                        0x1dc (size before relaxing)
 .debug_str     0x00000000000032f7       0x3c c:/intelfpga_lite/21.1/nios2eds/bin/gnu/h-x86_64-mingw32/bin/../lib/gcc/nios2-elf/10.3.1/../../../../../H-x86_64-mingw32/nios2-elf/lib\libc.a(lib_a-strlen.o)
                                        0x1d4 (size before relaxing)
 .debug_str     0x0000000000003333      0x2cf c:/intelfpga_lite/21.1/nios2eds/bin/gnu/h-x86_64-mingw32/bin/../lib/gcc/nios2-elf/10.3.1/../../../../../H-x86_64-mingw32/nios2-elf/lib\libc.a(lib_a-svfprintf.o)
                                        0x9c9 (size before relaxing)
 .debug_str     0x0000000000003602       0x27 c:/intelfpga_lite/21.1/nios2eds/bin/gnu/h-x86_64-mingw32/bin/../lib/gcc/nios2-elf/10.3.1/../../../../../H-x86_64-mingw32/nios2-elf/lib\libc.a(lib_a-vfprintf.o)
                                        0xa27 (size before relaxing)
 .debug_str     0x0000000000003629       0x55 c:/intelfpga_lite/21.1/nios2eds/bin/gnu/h-x86_64-mingw32/bin/../lib/gcc/nios2-elf/10.3.1/../../../../../H-x86_64-mingw32/nios2-elf/lib\libc.a(lib_a-vsnprintf.o)
                                        0x5e9 (size before relaxing)
 .debug_str     0x000000000000367e       0x3b c:/intelfpga_lite/21.1/nios2eds/bin/gnu/h-x86_64-mingw32/bin/../lib/gcc/nios2-elf/10.3.1/../../../../../H-x86_64-mingw32/nios2-elf/lib\libc.a(lib_a-writer.o)
                                        0x596 (size before relaxing)
 .debug_str     0x00000000000036b9       0x3b c:/intelfpga_lite/21.1/nios2eds/bin/gnu/h-x86_64-mingw32/bin/../lib/gcc/nios2-elf/10.3.1/../../../../../H-x86_64-mingw32/nios2-elf/lib\libc.a(lib_a-wsetup.o)
                                        0x5bb (size before relaxing)
 .debug_str     0x00000000000036f4       0x3b c:/intelfpga_lite/21.1/nios2eds/bin/gnu/h-x86_64-mingw32/bin/../lib/gcc/nios2-elf/10.3.1/../../../../../H-x86_64-mingw32/nios2-elf/lib\libc.a(closer.o)
                                        0x586 (size before relaxing)
 .debug_str     0x000000000000372f      0x1c4 c:/intelfpga_lite/21.1/nios2eds/bin/gnu/h-x86_64-mingw32/bin/../lib/gcc/nios2-elf/10.3.1/../../../../../H-x86_64-mingw32/nios2-elf/lib\libc.a(lib_a-dtoa.o)
                                        0x958 (size before relaxing)
 .debug_str     0x00000000000038f3       0x3f c:/intelfpga_lite/21.1/nios2eds/bin/gnu/h-x86_64-mingw32/bin/../lib/gcc/nios2-elf/10.3.1/../../../../../H-x86_64-mingw32/nios2-elf/lib\libc.a(lib_a-flags.o)
                                        0x583 (size before relaxing)
 .debug_str     0x0000000000003932       0x6d c:/intelfpga_lite/21.1/nios2eds/bin/gnu/h-x86_64-mingw32/bin/../lib/gcc/nios2-elf/10.3.1/../../../../../H-x86_64-mingw32/nios2-elf/lib\libc.a(lib_a-fvwrite.o)
                                        0x648 (size before relaxing)
 .debug_str     0x000000000000399f       0x43 c:/intelfpga_lite/21.1/nios2eds/bin/gnu/h-x86_64-mingw32/bin/../lib/gcc/nios2-elf/10.3.1/../../../../../H-x86_64-mingw32/nios2-elf/lib\libc.a(lib_a-isattyr.o)
                                        0x589 (size before relaxing)
 .debug_str     0x00000000000039e2      0x127 c:/intelfpga_lite/21.1/nios2eds/bin/gnu/h-x86_64-mingw32/bin/../lib/gcc/nios2-elf/10.3.1/../../../../../H-x86_64-mingw32/nios2-elf/lib\libc.a(lib_a-localeconv.o)
                                        0x7d1 (size before relaxing)
 .debug_str     0x0000000000003b09       0x41 c:/intelfpga_lite/21.1/nios2eds/bin/gnu/h-x86_64-mingw32/bin/../lib/gcc/nios2-elf/10.3.1/../../../../../H-x86_64-mingw32/nios2-elf/lib\libc.a(lib_a-lseekr.o)
                                        0x58d (size before relaxing)
 .debug_str     0x0000000000003b4a       0x4a c:/intelfpga_lite/21.1/nios2eds/bin/gnu/h-x86_64-mingw32/bin/../lib/gcc/nios2-elf/10.3.1/../../../../../H-x86_64-mingw32/nios2-elf/lib\libc.a(lib_a-memchr.o)
                                        0x1db (size before relaxing)
 .debug_str     0x0000000000003b94       0x46 c:/intelfpga_lite/21.1/nios2eds/bin/gnu/h-x86_64-mingw32/bin/../lib/gcc/nios2-elf/10.3.1/../../../../../H-x86_64-mingw32/nios2-elf/lib\libc.a(lib_a-memmove.o)
                                        0x1f4 (size before relaxing)
 .debug_str     0x0000000000003bda       0xa6 c:/intelfpga_lite/21.1/nios2eds/bin/gnu/h-x86_64-mingw32/bin/../lib/gcc/nios2-elf/10.3.1/../../../../../H-x86_64-mingw32/nios2-elf/lib\libc.a(lib_a-mprec.o)
                                        0x8cb (size before relaxing)
 .debug_str     0x0000000000003c80       0x48 c:/intelfpga_lite/21.1/nios2eds/bin/gnu/h-x86_64-mingw32/bin/../lib/gcc/nios2-elf/10.3.1/../../../../../H-x86_64-mingw32/nios2-elf/lib\libc.a(lib_a-putc.o)
                                        0x5bc (size before relaxing)
 .debug_str     0x0000000000003cc8       0x3a c:/intelfpga_lite/21.1/nios2eds/bin/gnu/h-x86_64-mingw32/bin/../lib/gcc/nios2-elf/10.3.1/../../../../../H-x86_64-mingw32/nios2-elf/lib\libc.a(lib_a-readr.o)
                                        0x593 (size before relaxing)
 .debug_str     0x0000000000003d02       0x4e c:/intelfpga_lite/21.1/nios2eds/bin/gnu/h-x86_64-mingw32/bin/../lib/gcc/nios2-elf/10.3.1/../../../../../H-x86_64-mingw32/nios2-elf/lib\libc.a(lib_a-reallocr.o)
                                        0x67d (size before relaxing)
 .debug_str     0x0000000000003d50       0x19 c:/intelfpga_lite/21.1/nios2eds/bin/gnu/h-x86_64-mingw32/bin/../lib/gcc/nios2-elf/10.3.1/../../../../../H-x86_64-mingw32/nios2-elf/lib\libc.a(lib_a-svfiprintf.o)
                                        0x91e (size before relaxing)
 .debug_str     0x0000000000003d69       0x37 c:/intelfpga_lite/21.1/nios2eds/bin/gnu/h-x86_64-mingw32/bin/../lib/gcc/nios2-elf/10.3.1/../../../../../H-x86_64-mingw32/nios2-elf/lib\libc.a(lib_a-vfiprintf.o)
                                        0x952 (size before relaxing)
 .debug_str     0x0000000000003da0       0x41 c:/intelfpga_lite/21.1/nios2eds/bin/gnu/h-x86_64-mingw32/bin/../lib/gcc/nios2-elf/10.3.1/../../../../../H-x86_64-mingw32/nios2-elf/lib\libc.a(lib_a-wbuf.o)
                                        0x5c0 (size before relaxing)
 .debug_str     0x0000000000003de1       0x64 c:/intelfpga_lite/21.1/nios2eds/bin/gnu/h-x86_64-mingw32/bin/../lib/gcc/nios2-elf/10.3.1/../../../../../H-x86_64-mingw32/nios2-elf/lib\libc.a(lib_a-assert.o)
                                        0x5bf (size before relaxing)
 .debug_str     0x0000000000003e45       0x17 c:/intelfpga_lite/21.1/nios2eds/bin/gnu/h-x86_64-mingw32/bin/../lib/gcc/nios2-elf/10.3.1/../../../../../H-x86_64-mingw32/nios2-elf/lib\libc.a(lib_a-callocr.o)
                                        0x5ee (size before relaxing)
 .debug_str     0x0000000000003e5c       0xbe c:/intelfpga_lite/21.1/nios2eds/bin/gnu/h-x86_64-mingw32/bin/../lib/gcc/nios2-elf/10.3.1/../../../../../H-x86_64-mingw32/nios2-elf/lib\libc.a(lib_a-errno.o)
                                        0x584 (size before relaxing)
 .debug_str     0x0000000000003f1a       0x56 c:/intelfpga_lite/21.1/nios2eds/bin/gnu/h-x86_64-mingw32/bin/../lib/gcc/nios2-elf/10.3.1/../../../../../H-x86_64-mingw32/nios2-elf/lib\libc.a(lib_a-fiprintf.o)
                                        0x5cf (size before relaxing)
 .debug_str     0x0000000000003f70       0x63 c:/intelfpga_lite/21.1/nios2eds/bin/gnu/h-x86_64-mingw32/bin/../lib/gcc/nios2-elf/10.3.1/../../../../../H-x86_64-mingw32/nios2-elf/lib\libc.a(lib_a-fputwc.o)
                                        0x5f2 (size before relaxing)
 .debug_str     0x0000000000003fd3       0x71 c:/intelfpga_lite/21.1/nios2eds/bin/gnu/h-x86_64-mingw32/bin/../lib/gcc/nios2-elf/10.3.1/../../../../../H-x86_64-mingw32/nios2-elf/lib\libc.a(lib_a-locale.o)
                                        0x7ed (size before relaxing)
 .debug_str     0x0000000000004044       0x5d c:/intelfpga_lite/21.1/nios2eds/bin/gnu/h-x86_64-mingw32/bin/../lib/gcc/nios2-elf/10.3.1/../../../../../H-x86_64-mingw32/nios2-elf/lib\libc.a(lib_a-mbtowc_r.o)
                                        0x7b1 (size before relaxing)
 .debug_str     0x00000000000040a1       0x41 c:/intelfpga_lite/21.1/nios2eds/bin/gnu/h-x86_64-mingw32/bin/../lib/gcc/nios2-elf/10.3.1/../../../../../H-x86_64-mingw32/nios2-elf/lib\libc.a(lib_a-vfiprintfr_1.o)
                                        0x5cf (size before relaxing)
 .debug_str     0x00000000000040e2       0x4c c:/intelfpga_lite/21.1/nios2eds/bin/gnu/h-x86_64-mingw32/bin/../lib/gcc/nios2-elf/10.3.1/../../../../../H-x86_64-mingw32/nios2-elf/lib\libc.a(lib_a-wcrtomb.o)
                                        0x7b7 (size before relaxing)
 .debug_str     0x000000000000412e       0x5e c:/intelfpga_lite/21.1/nios2eds/bin/gnu/h-x86_64-mingw32/bin/../lib/gcc/nios2-elf/10.3.1/../../../../../H-x86_64-mingw32/nios2-elf/lib\libc.a(lib_a-wctomb_r.o)
                                        0x7b8 (size before relaxing)
 .debug_str     0x000000000000418c       0x41 c:/intelfpga_lite/21.1/nios2eds/bin/gnu/h-x86_64-mingw32/bin/../lib/gcc/nios2-elf/10.3.1/../../../../../H-x86_64-mingw32/nios2-elf/lib\libc.a(lib_a-abort.o)
                                        0x1c4 (size before relaxing)
 .debug_str     0x00000000000041cd       0xc7 c:/intelfpga_lite/21.1/nios2eds/bin/gnu/h-x86_64-mingw32/bin/../lib/gcc/nios2-elf/10.3.1/../../../../../H-x86_64-mingw32/nios2-elf/lib\libc.a(lib_a-ctype_.o)
                                        0x1c2 (size before relaxing)
 .debug_str     0x0000000000004294      0x127 c:/intelfpga_lite/21.1/nios2eds/bin/gnu/h-x86_64-mingw32/bin/../lib/gcc/nios2-elf/10.3.1/../../../../../H-x86_64-mingw32/nios2-elf/lib\libc.a(lib_a-signal.o)
                                        0x623 (size before relaxing)
 .debug_str     0x00000000000043bb       0x48 c:/intelfpga_lite/21.1/nios2eds/bin/gnu/h-x86_64-mingw32/bin/../lib/gcc/nios2-elf/10.3.1/../../../../../H-x86_64-mingw32/nios2-elf/lib\libc.a(lib_a-signalr.o)
                                        0x596 (size before relaxing)
 .debug_str     0x0000000000004403       0xcc c:/intelfpga_lite/21.1/nios2eds/bin/gnu/h-x86_64-mingw32/bin/../lib/gcc/nios2-elf/10.3.1\libgcc.a(_udivdi3.o)
                                        0x2a0 (size before relaxing)
 .debug_str     0x00000000000044cf      0x2a0 c:/intelfpga_lite/21.1/nios2eds/bin/gnu/h-x86_64-mingw32/bin/../lib/gcc/nios2-elf/10.3.1\libgcc.a(_umoddi3.o)
 .debug_str     0x00000000000044cf       0xb9 c:/intelfpga_lite/21.1/nios2eds/bin/gnu/h-x86_64-mingw32/bin/../lib/gcc/nios2-elf/10.3.1\libgcc.a(adddf3.o)
                                        0x311 (size before relaxing)
 .debug_str     0x0000000000004588       0x40 c:/intelfpga_lite/21.1/nios2eds/bin/gnu/h-x86_64-mingw32/bin/../lib/gcc/nios2-elf/10.3.1\libgcc.a(eqdf2.o)
                                        0x214 (size before relaxing)
 .debug_str     0x00000000000045c8       0x5b c:/intelfpga_lite/21.1/nios2eds/bin/gnu/h-x86_64-mingw32/bin/../lib/gcc/nios2-elf/10.3.1\libgcc.a(gedf2.o)
                                        0x238 (size before relaxing)
 .debug_str     0x0000000000004623       0x2f c:/intelfpga_lite/21.1/nios2eds/bin/gnu/h-x86_64-mingw32/bin/../lib/gcc/nios2-elf/10.3.1\libgcc.a(ledf2.o)
                                        0x238 (size before relaxing)
 .debug_str     0x0000000000004652      0x155 c:/intelfpga_lite/21.1/nios2eds/bin/gnu/h-x86_64-mingw32/bin/../lib/gcc/nios2-elf/10.3.1\libgcc.a(muldf3.o)
                                        0x42b (size before relaxing)
 .debug_str     0x00000000000047a7       0x30 c:/intelfpga_lite/21.1/nios2eds/bin/gnu/h-x86_64-mingw32/bin/../lib/gcc/nios2-elf/10.3.1\libgcc.a(subdf3.o)
                                        0x311 (size before relaxing)
 .debug_str     0x00000000000047d7       0x32 c:/intelfpga_lite/21.1/nios2eds/bin/gnu/h-x86_64-mingw32/bin/../lib/gcc/nios2-elf/10.3.1\libgcc.a(unorddf2.o)
                                        0x21a (size before relaxing)
 .debug_str     0x0000000000004809       0x44 c:/intelfpga_lite/21.1/nios2eds/bin/gnu/h-x86_64-mingw32/bin/../lib/gcc/nios2-elf/10.3.1\libgcc.a(fixdfsi.o)
                                        0x21f (size before relaxing)
 .debug_str     0x000000000000484d       0x33 c:/intelfpga_lite/21.1/nios2eds/bin/gnu/h-x86_64-mingw32/bin/../lib/gcc/nios2-elf/10.3.1\libgcc.a(floatsidf.o)
                                        0x2c3 (size before relaxing)
 .debug_str     0x0000000000004880       0x35 c:/intelfpga_lite/21.1/nios2eds/bin/gnu/h-x86_64-mingw32/bin/../lib/gcc/nios2-elf/10.3.1\libgcc.a(floatunsidf.o)
                                        0x2c0 (size before relaxing)
 .debug_str     0x00000000000048b5       0x93 c:/Users/Robin/Documents/NHLStenden/FPGA/QuartusPrimeProjects/DE2-115_V.1.0.6_SystemCD/DE2_115_demonstrations/DE2_115_SD_Card_Audio_Player_Copy/Software/Audio_Player_test1_bsp/\libhal_bsp.a(alt_close.o)
                                        0x272 (size before relaxing)
 .debug_str     0x0000000000004948       0x56 c:/Users/Robin/Documents/NHLStenden/FPGA/QuartusPrimeProjects/DE2-115_V.1.0.6_SystemCD/DE2_115_demonstrations/DE2_115_SD_Card_Audio_Player_Copy/Software/Audio_Player_test1_bsp/\libhal_bsp.a(alt_dev.o)
                                        0x3d8 (size before relaxing)
 .debug_str     0x000000000000499e       0x14 c:/Users/Robin/Documents/NHLStenden/FPGA/QuartusPrimeProjects/DE2-115_V.1.0.6_SystemCD/DE2_115_demonstrations/DE2_115_SD_Card_Audio_Player_Copy/Software/Audio_Player_test1_bsp/\libhal_bsp.a(alt_errno.o)
                                        0x1b3 (size before relaxing)
 .debug_str     0x00000000000049b2       0x2a c:/Users/Robin/Documents/NHLStenden/FPGA/QuartusPrimeProjects/DE2-115_V.1.0.6_SystemCD/DE2_115_demonstrations/DE2_115_SD_Card_Audio_Player_Copy/Software/Audio_Player_test1_bsp/\libhal_bsp.a(alt_exit.o)
                                        0x1c5 (size before relaxing)
 .debug_str     0x00000000000049dc       0x14 c:/Users/Robin/Documents/NHLStenden/FPGA/QuartusPrimeProjects/DE2-115_V.1.0.6_SystemCD/DE2_115_demonstrations/DE2_115_SD_Card_Audio_Player_Copy/Software/Audio_Player_test1_bsp/\libhal_bsp.a(alt_fstat.o)
                                        0x3b2 (size before relaxing)
 .debug_str     0x00000000000049f0       0x15 c:/Users/Robin/Documents/NHLStenden/FPGA/QuartusPrimeProjects/DE2-115_V.1.0.6_SystemCD/DE2_115_demonstrations/DE2_115_SD_Card_Audio_Player_Copy/Software/Audio_Player_test1_bsp/\libhal_bsp.a(alt_getpid.o)
                                        0x11c (size before relaxing)
 .debug_str     0x0000000000004a05       0x61 c:/Users/Robin/Documents/NHLStenden/FPGA/QuartusPrimeProjects/DE2-115_V.1.0.6_SystemCD/DE2_115_demonstrations/DE2_115_SD_Card_Audio_Player_Copy/Software/Audio_Player_test1_bsp/\libhal_bsp.a(alt_irq_register.o)
                                        0x26a (size before relaxing)
 .debug_str     0x0000000000004a66       0x29 c:/Users/Robin/Documents/NHLStenden/FPGA/QuartusPrimeProjects/DE2-115_V.1.0.6_SystemCD/DE2_115_demonstrations/DE2_115_SD_Card_Audio_Player_Copy/Software/Audio_Player_test1_bsp/\libhal_bsp.a(alt_irq_vars.o)
                                        0x1b7 (size before relaxing)
 .debug_str     0x0000000000004a8f       0x15 c:/Users/Robin/Documents/NHLStenden/FPGA/QuartusPrimeProjects/DE2-115_V.1.0.6_SystemCD/DE2_115_demonstrations/DE2_115_SD_Card_Audio_Player_Copy/Software/Audio_Player_test1_bsp/\libhal_bsp.a(alt_isatty.o)
                                        0x3ba (size before relaxing)
 .debug_str     0x0000000000004aa4       0x13 c:/Users/Robin/Documents/NHLStenden/FPGA/QuartusPrimeProjects/DE2-115_V.1.0.6_SystemCD/DE2_115_demonstrations/DE2_115_SD_Card_Audio_Player_Copy/Software/Audio_Player_test1_bsp/\libhal_bsp.a(alt_kill.o)
                                        0x1d2 (size before relaxing)
 .debug_str     0x0000000000004ab7       0xe9 c:/Users/Robin/Documents/NHLStenden/FPGA/QuartusPrimeProjects/DE2-115_V.1.0.6_SystemCD/DE2_115_demonstrations/DE2_115_SD_Card_Audio_Player_Copy/Software/Audio_Player_test1_bsp/\libhal_bsp.a(alt_load.o)
                                        0x286 (size before relaxing)
 .debug_str     0x0000000000004ba0       0x14 c:/Users/Robin/Documents/NHLStenden/FPGA/QuartusPrimeProjects/DE2-115_V.1.0.6_SystemCD/DE2_115_demonstrations/DE2_115_SD_Card_Audio_Player_Copy/Software/Audio_Player_test1_bsp/\libhal_bsp.a(alt_lseek.o)
                                        0x280 (size before relaxing)
 .debug_str     0x0000000000004bb4       0x44 c:/Users/Robin/Documents/NHLStenden/FPGA/QuartusPrimeProjects/DE2-115_V.1.0.6_SystemCD/DE2_115_demonstrations/DE2_115_SD_Card_Audio_Player_Copy/Software/Audio_Player_test1_bsp/\libhal_bsp.a(alt_main.o)
                                        0x1e0 (size before relaxing)
 .debug_str     0x0000000000004bf8       0x1a c:/Users/Robin/Documents/NHLStenden/FPGA/QuartusPrimeProjects/DE2-115_V.1.0.6_SystemCD/DE2_115_demonstrations/DE2_115_SD_Card_Audio_Player_Copy/Software/Audio_Player_test1_bsp/\libhal_bsp.a(alt_malloc_lock.o)
                                        0x58d (size before relaxing)
 .debug_str     0x0000000000004c12       0x29 c:/Users/Robin/Documents/NHLStenden/FPGA/QuartusPrimeProjects/DE2-115_V.1.0.6_SystemCD/DE2_115_demonstrations/DE2_115_SD_Card_Audio_Player_Copy/Software/Audio_Player_test1_bsp/\libhal_bsp.a(alt_open.o)
                                        0x2bf (size before relaxing)
 .debug_str     0x0000000000004c3b       0x13 c:/Users/Robin/Documents/NHLStenden/FPGA/QuartusPrimeProjects/DE2-115_V.1.0.6_SystemCD/DE2_115_demonstrations/DE2_115_SD_Card_Audio_Player_Copy/Software/Audio_Player_test1_bsp/\libhal_bsp.a(alt_read.o)
                                        0x3bd (size before relaxing)
 .debug_str     0x0000000000004c4e       0x28 c:/Users/Robin/Documents/NHLStenden/FPGA/QuartusPrimeProjects/DE2-115_V.1.0.6_SystemCD/DE2_115_demonstrations/DE2_115_SD_Card_Audio_Player_Copy/Software/Audio_Player_test1_bsp/\libhal_bsp.a(alt_release_fd.o)
                                        0x243 (size before relaxing)
 .debug_str     0x0000000000004c76       0x4b c:/Users/Robin/Documents/NHLStenden/FPGA/QuartusPrimeProjects/DE2-115_V.1.0.6_SystemCD/DE2_115_demonstrations/DE2_115_SD_Card_Audio_Player_Copy/Software/Audio_Player_test1_bsp/\libhal_bsp.a(alt_sbrk.o)
                                        0x232 (size before relaxing)
 .debug_str     0x0000000000004cc1       0x74 c:/Users/Robin/Documents/NHLStenden/FPGA/QuartusPrimeProjects/DE2-115_V.1.0.6_SystemCD/DE2_115_demonstrations/DE2_115_SD_Card_Audio_Player_Copy/Software/Audio_Player_test1_bsp/\libhal_bsp.a(alt_tick.o)
                                        0x2be (size before relaxing)
 .debug_str     0x0000000000004d35       0x29 c:/Users/Robin/Documents/NHLStenden/FPGA/QuartusPrimeProjects/DE2-115_V.1.0.6_SystemCD/DE2_115_demonstrations/DE2_115_SD_Card_Audio_Player_Copy/Software/Audio_Player_test1_bsp/\libhal_bsp.a(alt_usleep.o)
                                        0x1c9 (size before relaxing)
 .debug_str     0x0000000000004d5e       0x14 c:/Users/Robin/Documents/NHLStenden/FPGA/QuartusPrimeProjects/DE2-115_V.1.0.6_SystemCD/DE2_115_demonstrations/DE2_115_SD_Card_Audio_Player_Copy/Software/Audio_Player_test1_bsp/\libhal_bsp.a(alt_write.o)
                                        0x3be (size before relaxing)
 .debug_str     0x0000000000004d72      0x370 c:/Users/Robin/Documents/NHLStenden/FPGA/QuartusPrimeProjects/DE2-115_V.1.0.6_SystemCD/DE2_115_demonstrations/DE2_115_SD_Card_Audio_Player_Copy/Software/Audio_Player_test1_bsp/\libhal_bsp.a(alt_sys_init.o)
                                        0x63f (size before relaxing)
 .debug_str     0x00000000000050e2      0x1b3 c:/Users/Robin/Documents/NHLStenden/FPGA/QuartusPrimeProjects/DE2-115_V.1.0.6_SystemCD/DE2_115_demonstrations/DE2_115_SD_Card_Audio_Player_Copy/Software/Audio_Player_test1_bsp/\libhal_bsp.a(altera_avalon_cfi_flash.o)
                                        0x5c5 (size before relaxing)
 .debug_str     0x0000000000005295      0x2c5 c:/Users/Robin/Documents/NHLStenden/FPGA/QuartusPrimeProjects/DE2-115_V.1.0.6_SystemCD/DE2_115_demonstrations/DE2_115_SD_Card_Audio_Player_Copy/Software/Audio_Player_test1_bsp/\libhal_bsp.a(altera_avalon_cfi_flash_table.o)
                                        0x6ca (size before relaxing)
 .debug_str     0x000000000000555a       0xac c:/Users/Robin/Documents/NHLStenden/FPGA/QuartusPrimeProjects/DE2-115_V.1.0.6_SystemCD/DE2_115_demonstrations/DE2_115_SD_Card_Audio_Player_Copy/Software/Audio_Player_test1_bsp/\libhal_bsp.a(altera_avalon_jtag_uart_fd.o)
                                        0x3ef (size before relaxing)
 .debug_str     0x0000000000005606       0xb4 c:/Users/Robin/Documents/NHLStenden/FPGA/QuartusPrimeProjects/DE2-115_V.1.0.6_SystemCD/DE2_115_demonstrations/DE2_115_SD_Card_Audio_Player_Copy/Software/Audio_Player_test1_bsp/\libhal_bsp.a(altera_avalon_jtag_uart_init.o)
                                        0x392 (size before relaxing)
 .debug_str     0x00000000000056ba       0x4a c:/Users/Robin/Documents/NHLStenden/FPGA/QuartusPrimeProjects/DE2-115_V.1.0.6_SystemCD/DE2_115_demonstrations/DE2_115_SD_Card_Audio_Player_Copy/Software/Audio_Player_test1_bsp/\libhal_bsp.a(altera_avalon_jtag_uart_ioctl.o)
                                        0x2d7 (size before relaxing)
 .debug_str     0x0000000000005704       0x48 c:/Users/Robin/Documents/NHLStenden/FPGA/QuartusPrimeProjects/DE2-115_V.1.0.6_SystemCD/DE2_115_demonstrations/DE2_115_SD_Card_Audio_Player_Copy/Software/Audio_Player_test1_bsp/\libhal_bsp.a(altera_avalon_jtag_uart_read.o)
                                        0x333 (size before relaxing)
 .debug_str     0x000000000000574c       0x4a c:/Users/Robin/Documents/NHLStenden/FPGA/QuartusPrimeProjects/DE2-115_V.1.0.6_SystemCD/DE2_115_demonstrations/DE2_115_SD_Card_Audio_Player_Copy/Software/Audio_Player_test1_bsp/\libhal_bsp.a(altera_avalon_jtag_uart_write.o)
                                        0x334 (size before relaxing)
 .debug_str     0x0000000000005796       0x72 c:/Users/Robin/Documents/NHLStenden/FPGA/QuartusPrimeProjects/DE2-115_V.1.0.6_SystemCD/DE2_115_demonstrations/DE2_115_SD_Card_Audio_Player_Copy/Software/Audio_Player_test1_bsp/\libhal_bsp.a(altera_avalon_timer_sc.o)
                                        0x282 (size before relaxing)
 .debug_str     0x0000000000005808       0x77 c:/Users/Robin/Documents/NHLStenden/FPGA/QuartusPrimeProjects/DE2-115_V.1.0.6_SystemCD/DE2_115_demonstrations/DE2_115_SD_Card_Audio_Player_Copy/Software/Audio_Player_test1_bsp/\libhal_bsp.a(altera_avalon_uart_fd.o)
                                        0x35c (size before relaxing)
 .debug_str     0x000000000000587f       0xa0 c:/Users/Robin/Documents/NHLStenden/FPGA/QuartusPrimeProjects/DE2-115_V.1.0.6_SystemCD/DE2_115_demonstrations/DE2_115_SD_Card_Audio_Player_Copy/Software/Audio_Player_test1_bsp/\libhal_bsp.a(altera_avalon_uart_init.o)
                                        0x2ef (size before relaxing)
 .debug_str     0x000000000000591f       0x4f c:/Users/Robin/Documents/NHLStenden/FPGA/QuartusPrimeProjects/DE2-115_V.1.0.6_SystemCD/DE2_115_demonstrations/DE2_115_SD_Card_Audio_Player_Copy/Software/Audio_Player_test1_bsp/\libhal_bsp.a(altera_avalon_uart_read.o)
                                        0x2db (size before relaxing)
 .debug_str     0x000000000000596e       0x49 c:/Users/Robin/Documents/NHLStenden/FPGA/QuartusPrimeProjects/DE2-115_V.1.0.6_SystemCD/DE2_115_demonstrations/DE2_115_SD_Card_Audio_Player_Copy/Software/Audio_Player_test1_bsp/\libhal_bsp.a(altera_avalon_uart_write.o)
                                        0x2d4 (size before relaxing)
 .debug_str     0x00000000000059b7       0x4a c:/Users/Robin/Documents/NHLStenden/FPGA/QuartusPrimeProjects/DE2-115_V.1.0.6_SystemCD/DE2_115_demonstrations/DE2_115_SD_Card_Audio_Player_Copy/Software/Audio_Player_test1_bsp/\libhal_bsp.a(alt_alarm_start.o)
                                        0x2ea (size before relaxing)
 .debug_str     0x0000000000005a01       0x42 c:/Users/Robin/Documents/NHLStenden/FPGA/QuartusPrimeProjects/DE2-115_V.1.0.6_SystemCD/DE2_115_demonstrations/DE2_115_SD_Card_Audio_Player_Copy/Software/Audio_Player_test1_bsp/\libhal_bsp.a(alt_busy_sleep.o)
                                        0x1df (size before relaxing)
 .debug_str     0x0000000000005a43       0x2c c:/Users/Robin/Documents/NHLStenden/FPGA/QuartusPrimeProjects/DE2-115_V.1.0.6_SystemCD/DE2_115_demonstrations/DE2_115_SD_Card_Audio_Player_Copy/Software/Audio_Player_test1_bsp/\libhal_bsp.a(alt_dcache_flush.o)
                                        0x1cf (size before relaxing)
 .debug_str     0x0000000000005a6f       0x34 c:/Users/Robin/Documents/NHLStenden/FPGA/QuartusPrimeProjects/DE2-115_V.1.0.6_SystemCD/DE2_115_demonstrations/DE2_115_SD_Card_Audio_Player_Copy/Software/Audio_Player_test1_bsp/\libhal_bsp.a(alt_dcache_flush_all.o)
                                        0x1c9 (size before relaxing)
 .debug_str     0x0000000000005aa3       0x34 c:/Users/Robin/Documents/NHLStenden/FPGA/QuartusPrimeProjects/DE2-115_V.1.0.6_SystemCD/DE2_115_demonstrations/DE2_115_SD_Card_Audio_Player_Copy/Software/Audio_Player_test1_bsp/\libhal_bsp.a(alt_dev_llist_insert.o)
                                        0x240 (size before relaxing)
 .debug_str     0x0000000000005ad7       0x48 c:/Users/Robin/Documents/NHLStenden/FPGA/QuartusPrimeProjects/DE2-115_V.1.0.6_SystemCD/DE2_115_demonstrations/DE2_115_SD_Card_Audio_Player_Copy/Software/Audio_Player_test1_bsp/\libhal_bsp.a(alt_do_ctors.o)
                                        0x14d (size before relaxing)
 .debug_str     0x0000000000005b1f       0x4c c:/Users/Robin/Documents/NHLStenden/FPGA/QuartusPrimeProjects/DE2-115_V.1.0.6_SystemCD/DE2_115_demonstrations/DE2_115_SD_Card_Audio_Player_Copy/Software/Audio_Player_test1_bsp/\libhal_bsp.a(alt_do_dtors.o)
                                        0x14c (size before relaxing)
 .debug_str     0x0000000000005b6b       0x24 c:/Users/Robin/Documents/NHLStenden/FPGA/QuartusPrimeProjects/DE2-115_V.1.0.6_SystemCD/DE2_115_demonstrations/DE2_115_SD_Card_Audio_Player_Copy/Software/Audio_Player_test1_bsp/\libhal_bsp.a(alt_find_dev.o)
                                        0x253 (size before relaxing)
 .debug_str     0x0000000000005b8f       0x26 c:/Users/Robin/Documents/NHLStenden/FPGA/QuartusPrimeProjects/DE2-115_V.1.0.6_SystemCD/DE2_115_demonstrations/DE2_115_SD_Card_Audio_Player_Copy/Software/Audio_Player_test1_bsp/\libhal_bsp.a(alt_find_file.o)
                                        0x261 (size before relaxing)
 .debug_str     0x0000000000005bb5       0x3f c:/Users/Robin/Documents/NHLStenden/FPGA/QuartusPrimeProjects/DE2-115_V.1.0.6_SystemCD/DE2_115_demonstrations/DE2_115_SD_Card_Audio_Player_Copy/Software/Audio_Player_test1_bsp/\libhal_bsp.a(alt_flash_dev.o)
                                        0x372 (size before relaxing)
 .debug_str     0x0000000000005bf4       0x30 c:/Users/Robin/Documents/NHLStenden/FPGA/QuartusPrimeProjects/DE2-115_V.1.0.6_SystemCD/DE2_115_demonstrations/DE2_115_SD_Card_Audio_Player_Copy/Software/Audio_Player_test1_bsp/\libhal_bsp.a(alt_get_fd.o)
                                        0x283 (size before relaxing)
 .debug_str     0x0000000000005c24       0x34 c:/Users/Robin/Documents/NHLStenden/FPGA/QuartusPrimeProjects/DE2-115_V.1.0.6_SystemCD/DE2_115_demonstrations/DE2_115_SD_Card_Audio_Player_Copy/Software/Audio_Player_test1_bsp/\libhal_bsp.a(alt_icache_flush_all.o)
                                        0x1c9 (size before relaxing)
 .debug_str     0x0000000000005c58       0x70 c:/Users/Robin/Documents/NHLStenden/FPGA/QuartusPrimeProjects/DE2-115_V.1.0.6_SystemCD/DE2_115_demonstrations/DE2_115_SD_Card_Audio_Player_Copy/Software/Audio_Player_test1_bsp/\libhal_bsp.a(alt_iic.o)
                                        0x2a0 (size before relaxing)
 .debug_str     0x0000000000005cc8       0x34 c:/Users/Robin/Documents/NHLStenden/FPGA/QuartusPrimeProjects/DE2-115_V.1.0.6_SystemCD/DE2_115_demonstrations/DE2_115_SD_Card_Audio_Player_Copy/Software/Audio_Player_test1_bsp/\libhal_bsp.a(alt_iic_isr_register.o)
                                        0x25c (size before relaxing)
 .debug_str     0x0000000000005cfc       0x56 c:/Users/Robin/Documents/NHLStenden/FPGA/QuartusPrimeProjects/DE2-115_V.1.0.6_SystemCD/DE2_115_demonstrations/DE2_115_SD_Card_Audio_Player_Copy/Software/Audio_Player_test1_bsp/\libhal_bsp.a(alt_io_redirect.o)
                                        0x3dc (size before relaxing)
 .debug_str     0x0000000000005d52       0x18 c:/Users/Robin/Documents/NHLStenden/FPGA/QuartusPrimeProjects/DE2-115_V.1.0.6_SystemCD/DE2_115_demonstrations/DE2_115_SD_Card_Audio_Player_Copy/Software/Audio_Player_test1_bsp/\libhal_bsp.a(alt_irq_entry.o)
                                         0xd7 (size before relaxing)
 .debug_str     0x0000000000005d6a       0x3a c:/Users/Robin/Documents/NHLStenden/FPGA/QuartusPrimeProjects/DE2-115_V.1.0.6_SystemCD/DE2_115_demonstrations/DE2_115_SD_Card_Audio_Player_Copy/Software/Audio_Player_test1_bsp/\libhal_bsp.a(alt_irq_handler.o)
                                        0x20b (size before relaxing)
 .debug_str     0x0000000000005da4       0x31 c:/Users/Robin/Documents/NHLStenden/FPGA/QuartusPrimeProjects/DE2-115_V.1.0.6_SystemCD/DE2_115_demonstrations/DE2_115_SD_Card_Audio_Player_Copy/Software/Audio_Player_test1_bsp/\libhal_bsp.a(altera_nios2_irq.o)
                                        0x1c6 (size before relaxing)
 .debug_str     0x0000000000005dd5       0x93 c:/Users/Robin/Documents/NHLStenden/FPGA/QuartusPrimeProjects/DE2-115_V.1.0.6_SystemCD/DE2_115_demonstrations/DE2_115_SD_Card_Audio_Player_Copy/Software/Audio_Player_test1_bsp/\libhal_bsp.a(altera_avalon_cfi_flash_amd.o)
                                        0x4a4 (size before relaxing)
 .debug_str     0x0000000000005e68       0x80 c:/Users/Robin/Documents/NHLStenden/FPGA/QuartusPrimeProjects/DE2-115_V.1.0.6_SystemCD/DE2_115_demonstrations/DE2_115_SD_Card_Audio_Player_Copy/Software/Audio_Player_test1_bsp/\libhal_bsp.a(altera_avalon_cfi_flash_intel.o)
                                        0x4a1 (size before relaxing)
 .debug_str     0x0000000000005ee8       0x1e c:/Users/Robin/Documents/NHLStenden/FPGA/QuartusPrimeProjects/DE2-115_V.1.0.6_SystemCD/DE2_115_demonstrations/DE2_115_SD_Card_Audio_Player_Copy/Software/Audio_Player_test1_bsp/\libhal_bsp.a(alt_exception_entry.o)
                                         0xdd (size before relaxing)
 .debug_str     0x0000000000005f06       0x2c c:/Users/Robin/Documents/NHLStenden/FPGA/QuartusPrimeProjects/DE2-115_V.1.0.6_SystemCD/DE2_115_demonstrations/DE2_115_SD_Card_Audio_Player_Copy/Software/Audio_Player_test1_bsp/\libhal_bsp.a(alt_icache_flush.o)
                                        0x1cf (size before relaxing)
 .debug_str     0x0000000000005f32       0x80 c:/intelfpga_lite/21.1/nios2eds/bin/gnu/h-x86_64-mingw32/bin/../lib/gcc/nios2-elf/10.3.1/../../../../../H-x86_64-mingw32/nios2-elf/lib\libc.a(lib_a-atexit.o)
                                        0x1fe (size before relaxing)
 .debug_str     0x0000000000005fb2       0x4b c:/intelfpga_lite/21.1/nios2eds/bin/gnu/h-x86_64-mingw32/bin/../lib/gcc/nios2-elf/10.3.1/../../../../../H-x86_64-mingw32/nios2-elf/lib\libc.a(lib_a-exit.o)
                                        0x5a5 (size before relaxing)
 .debug_str     0x0000000000005ffd       0x43 c:/intelfpga_lite/21.1/nios2eds/bin/gnu/h-x86_64-mingw32/bin/../lib/gcc/nios2-elf/10.3.1/../../../../../H-x86_64-mingw32/nios2-elf/lib\libc.a(lib_a-memcmp.o)
                                        0x1c1 (size before relaxing)
 .debug_str     0x0000000000006040       0x3e c:/intelfpga_lite/21.1/nios2eds/bin/gnu/h-x86_64-mingw32/bin/../lib/gcc/nios2-elf/10.3.1/../../../../../H-x86_64-mingw32/nios2-elf/lib\libc.a(lib_a-__atexit.o)
                                        0x5d6 (size before relaxing)
 .debug_str     0x000000000000607e       0x6a c:/intelfpga_lite/21.1/nios2eds/bin/gnu/h-x86_64-mingw32/bin/../lib/gcc/nios2-elf/10.3.1/../../../../../H-x86_64-mingw32/nios2-elf/lib\libc.a(lib_a-__call_atexit.o)
                                        0x5cf (size before relaxing)

.debug_loc      0x0000000000000000    0x260a1
 *(.debug_loc)
 .debug_loc     0x0000000000000000      0x5d0 c:/intelfpga_lite/21.1/nios2eds/bin/gnu/h-x86_64-mingw32/bin/../lib/gcc/nios2-elf/10.3.1\libgcc.a(lib2-divmod.o)
 .debug_loc     0x00000000000005d0      0x7a9 c:/intelfpga_lite/21.1/nios2eds/bin/gnu/h-x86_64-mingw32/bin/../lib/gcc/nios2-elf/10.3.1\libgcc.a(divsf3.o)
 .debug_loc     0x0000000000000d79      0x92a c:/intelfpga_lite/21.1/nios2eds/bin/gnu/h-x86_64-mingw32/bin/../lib/gcc/nios2-elf/10.3.1\libgcc.a(mulsf3.o)
 .debug_loc     0x00000000000016a3      0x2ab c:/intelfpga_lite/21.1/nios2eds/bin/gnu/h-x86_64-mingw32/bin/../lib/gcc/nios2-elf/10.3.1\libgcc.a(floatunsisf.o)
 .debug_loc     0x000000000000194e     0x22de c:/intelfpga_lite/21.1/nios2eds/bin/gnu/h-x86_64-mingw32/bin/../lib/gcc/nios2-elf/10.3.1\libgcc.a(divdf3.o)
 .debug_loc     0x0000000000003c2c      0x336 c:/intelfpga_lite/21.1/nios2eds/bin/gnu/h-x86_64-mingw32/bin/../lib/gcc/nios2-elf/10.3.1\libgcc.a(extendsfdf2.o)
 .debug_loc     0x0000000000003f62      0x41a c:/intelfpga_lite/21.1/nios2eds/bin/gnu/h-x86_64-mingw32/bin/../lib/gcc/nios2-elf/10.3.1\libgcc.a(truncdfsf2.o)
 .debug_loc     0x000000000000437c       0xbe c:/intelfpga_lite/21.1/nios2eds/bin/gnu/h-x86_64-mingw32/bin/../lib/gcc/nios2-elf/10.3.1\libgcc.a(_clzsi2.o)
 .debug_loc     0x000000000000443a      0x2fc c:/intelfpga_lite/21.1/nios2eds/bin/gnu/h-x86_64-mingw32/bin/../lib/gcc/nios2-elf/10.3.1/../../../../../H-x86_64-mingw32/nios2-elf/lib\libc.a(lib_a-fclose.o)
 .debug_loc     0x0000000000004736      0x4c6 c:/intelfpga_lite/21.1/nios2eds/bin/gnu/h-x86_64-mingw32/bin/../lib/gcc/nios2-elf/10.3.1/../../../../../H-x86_64-mingw32/nios2-elf/lib\libc.a(lib_a-fflush.o)
 .debug_loc     0x0000000000004bfc      0x32c c:/intelfpga_lite/21.1/nios2eds/bin/gnu/h-x86_64-mingw32/bin/../lib/gcc/nios2-elf/10.3.1/../../../../../H-x86_64-mingw32/nios2-elf/lib\libc.a(lib_a-findfp.o)
 .debug_loc     0x0000000000004f28      0x1ae c:/intelfpga_lite/21.1/nios2eds/bin/gnu/h-x86_64-mingw32/bin/../lib/gcc/nios2-elf/10.3.1/../../../../../H-x86_64-mingw32/nios2-elf/lib\libc.a(lib_a-fopen.o)
 .debug_loc     0x00000000000050d6      0x614 c:/intelfpga_lite/21.1/nios2eds/bin/gnu/h-x86_64-mingw32/bin/../lib/gcc/nios2-elf/10.3.1/../../../../../H-x86_64-mingw32/nios2-elf/lib\libc.a(lib_a-freer.o)
 .debug_loc     0x00000000000056ea      0x1c0 c:/intelfpga_lite/21.1/nios2eds/bin/gnu/h-x86_64-mingw32/bin/../lib/gcc/nios2-elf/10.3.1/../../../../../H-x86_64-mingw32/nios2-elf/lib\libc.a(lib_a-fseek.o)
 .debug_loc     0x00000000000058aa      0x3f3 c:/intelfpga_lite/21.1/nios2eds/bin/gnu/h-x86_64-mingw32/bin/../lib/gcc/nios2-elf/10.3.1/../../../../../H-x86_64-mingw32/nios2-elf/lib\libc.a(lib_a-fseeko.o)
 .debug_loc     0x0000000000005c9d       0xbb c:/intelfpga_lite/21.1/nios2eds/bin/gnu/h-x86_64-mingw32/bin/../lib/gcc/nios2-elf/10.3.1/../../../../../H-x86_64-mingw32/nios2-elf/lib\libc.a(lib_a-fstatr.o)
 .debug_loc     0x0000000000005d58      0x1eb c:/intelfpga_lite/21.1/nios2eds/bin/gnu/h-x86_64-mingw32/bin/../lib/gcc/nios2-elf/10.3.1/../../../../../H-x86_64-mingw32/nios2-elf/lib\libc.a(lib_a-fwalk.o)
 .debug_loc     0x0000000000005f43      0x4b9 c:/intelfpga_lite/21.1/nios2eds/bin/gnu/h-x86_64-mingw32/bin/../lib/gcc/nios2-elf/10.3.1/../../../../../H-x86_64-mingw32/nios2-elf/lib\libc.a(lib_a-fwrite.o)
 .debug_loc     0x00000000000063fc      0x449 c:/intelfpga_lite/21.1/nios2eds/bin/gnu/h-x86_64-mingw32/bin/../lib/gcc/nios2-elf/10.3.1/../../../../../H-x86_64-mingw32/nios2-elf/lib\libc.a(lib_a-makebuf.o)
 .debug_loc     0x0000000000006845       0x64 c:/intelfpga_lite/21.1/nios2eds/bin/gnu/h-x86_64-mingw32/bin/../lib/gcc/nios2-elf/10.3.1/../../../../../H-x86_64-mingw32/nios2-elf/lib\libc.a(lib_a-malloc.o)
 .debug_loc     0x00000000000068a9      0xd34 c:/intelfpga_lite/21.1/nios2eds/bin/gnu/h-x86_64-mingw32/bin/../lib/gcc/nios2-elf/10.3.1/../../../../../H-x86_64-mingw32/nios2-elf/lib\libc.a(lib_a-mallocr.o)
 .debug_loc     0x00000000000075dd      0x347 c:/intelfpga_lite/21.1/nios2eds/bin/gnu/h-x86_64-mingw32/bin/../lib/gcc/nios2-elf/10.3.1/../../../../../H-x86_64-mingw32/nios2-elf/lib\libc.a(lib_a-memcpy.o)
 .debug_loc     0x0000000000007924      0x1b5 c:/intelfpga_lite/21.1/nios2eds/bin/gnu/h-x86_64-mingw32/bin/../lib/gcc/nios2-elf/10.3.1/../../../../../H-x86_64-mingw32/nios2-elf/lib\libc.a(lib_a-memset.o)
 .debug_loc     0x0000000000007ad9       0xed c:/intelfpga_lite/21.1/nios2eds/bin/gnu/h-x86_64-mingw32/bin/../lib/gcc/nios2-elf/10.3.1/../../../../../H-x86_64-mingw32/nios2-elf/lib\libc.a(lib_a-openr.o)
 .debug_loc     0x0000000000007bc6       0xe1 c:/intelfpga_lite/21.1/nios2eds/bin/gnu/h-x86_64-mingw32/bin/../lib/gcc/nios2-elf/10.3.1/../../../../../H-x86_64-mingw32/nios2-elf/lib\libc.a(lib_a-printf.o)
 .debug_loc     0x0000000000007ca7       0x91 c:/intelfpga_lite/21.1/nios2eds/bin/gnu/h-x86_64-mingw32/bin/../lib/gcc/nios2-elf/10.3.1/../../../../../H-x86_64-mingw32/nios2-elf/lib\libc.a(lib_a-putchar.o)
 .debug_loc     0x0000000000007d38      0x143 c:/intelfpga_lite/21.1/nios2eds/bin/gnu/h-x86_64-mingw32/bin/../lib/gcc/nios2-elf/10.3.1/../../../../../H-x86_64-mingw32/nios2-elf/lib\libc.a(lib_a-puts.o)
 .debug_loc     0x0000000000007e7b      0x145 c:/intelfpga_lite/21.1/nios2eds/bin/gnu/h-x86_64-mingw32/bin/../lib/gcc/nios2-elf/10.3.1/../../../../../H-x86_64-mingw32/nios2-elf/lib\libc.a(lib_a-refill.o)
 .debug_loc     0x0000000000007fc0       0x89 c:/intelfpga_lite/21.1/nios2eds/bin/gnu/h-x86_64-mingw32/bin/../lib/gcc/nios2-elf/10.3.1/../../../../../H-x86_64-mingw32/nios2-elf/lib\libc.a(lib_a-sbrkr.o)
 .debug_loc     0x0000000000008049      0x11e c:/intelfpga_lite/21.1/nios2eds/bin/gnu/h-x86_64-mingw32/bin/../lib/gcc/nios2-elf/10.3.1/../../../../../H-x86_64-mingw32/nios2-elf/lib\libc.a(lib_a-sprintf.o)
 .debug_loc     0x0000000000008167      0x456 c:/intelfpga_lite/21.1/nios2eds/bin/gnu/h-x86_64-mingw32/bin/../lib/gcc/nios2-elf/10.3.1/../../../../../H-x86_64-mingw32/nios2-elf/lib\libc.a(lib_a-stdio.o)
 .debug_loc     0x00000000000085bd       0x8e c:/intelfpga_lite/21.1/nios2eds/bin/gnu/h-x86_64-mingw32/bin/../lib/gcc/nios2-elf/10.3.1/../../../../../H-x86_64-mingw32/nios2-elf/lib\libc.a(lib_a-strcmp.o)
 .debug_loc     0x000000000000864b      0x125 c:/intelfpga_lite/21.1/nios2eds/bin/gnu/h-x86_64-mingw32/bin/../lib/gcc/nios2-elf/10.3.1/../../../../../H-x86_64-mingw32/nios2-elf/lib\libc.a(lib_a-strcpy.o)
 .debug_loc     0x0000000000008770       0x73 c:/intelfpga_lite/21.1/nios2eds/bin/gnu/h-x86_64-mingw32/bin/../lib/gcc/nios2-elf/10.3.1/../../../../../H-x86_64-mingw32/nios2-elf/lib\libc.a(lib_a-strlen.o)
 .debug_loc     0x00000000000087e3     0x365d c:/intelfpga_lite/21.1/nios2eds/bin/gnu/h-x86_64-mingw32/bin/../lib/gcc/nios2-elf/10.3.1/../../../../../H-x86_64-mingw32/nios2-elf/lib\libc.a(lib_a-svfprintf.o)
 .debug_loc     0x000000000000be40     0x3a45 c:/intelfpga_lite/21.1/nios2eds/bin/gnu/h-x86_64-mingw32/bin/../lib/gcc/nios2-elf/10.3.1/../../../../../H-x86_64-mingw32/nios2-elf/lib\libc.a(lib_a-vfprintf.o)
 .debug_loc     0x000000000000f885      0x563 c:/intelfpga_lite/21.1/nios2eds/bin/gnu/h-x86_64-mingw32/bin/../lib/gcc/nios2-elf/10.3.1/../../../../../H-x86_64-mingw32/nios2-elf/lib\libc.a(lib_a-vsnprintf.o)
 .debug_loc     0x000000000000fde8       0xed c:/intelfpga_lite/21.1/nios2eds/bin/gnu/h-x86_64-mingw32/bin/../lib/gcc/nios2-elf/10.3.1/../../../../../H-x86_64-mingw32/nios2-elf/lib\libc.a(lib_a-writer.o)
 .debug_loc     0x000000000000fed5       0xd4 c:/intelfpga_lite/21.1/nios2eds/bin/gnu/h-x86_64-mingw32/bin/../lib/gcc/nios2-elf/10.3.1/../../../../../H-x86_64-mingw32/nios2-elf/lib\libc.a(lib_a-wsetup.o)
 .debug_loc     0x000000000000ffa9       0x89 c:/intelfpga_lite/21.1/nios2eds/bin/gnu/h-x86_64-mingw32/bin/../lib/gcc/nios2-elf/10.3.1/../../../../../H-x86_64-mingw32/nios2-elf/lib\libc.a(closer.o)
 .debug_loc     0x0000000000010032     0x30d1 c:/intelfpga_lite/21.1/nios2eds/bin/gnu/h-x86_64-mingw32/bin/../lib/gcc/nios2-elf/10.3.1/../../../../../H-x86_64-mingw32/nios2-elf/lib\libc.a(lib_a-dtoa.o)
 .debug_loc     0x0000000000013103       0xda c:/intelfpga_lite/21.1/nios2eds/bin/gnu/h-x86_64-mingw32/bin/../lib/gcc/nios2-elf/10.3.1/../../../../../H-x86_64-mingw32/nios2-elf/lib\libc.a(lib_a-flags.o)
 .debug_loc     0x00000000000131dd      0x6f4 c:/intelfpga_lite/21.1/nios2eds/bin/gnu/h-x86_64-mingw32/bin/../lib/gcc/nios2-elf/10.3.1/../../../../../H-x86_64-mingw32/nios2-elf/lib\libc.a(lib_a-fvwrite.o)
 .debug_loc     0x00000000000138d1       0x89 c:/intelfpga_lite/21.1/nios2eds/bin/gnu/h-x86_64-mingw32/bin/../lib/gcc/nios2-elf/10.3.1/../../../../../H-x86_64-mingw32/nios2-elf/lib\libc.a(lib_a-isattyr.o)
 .debug_loc     0x000000000001395a       0x25 c:/intelfpga_lite/21.1/nios2eds/bin/gnu/h-x86_64-mingw32/bin/../lib/gcc/nios2-elf/10.3.1/../../../../../H-x86_64-mingw32/nios2-elf/lib\libc.a(lib_a-localeconv.o)
 .debug_loc     0x000000000001397f       0xed c:/intelfpga_lite/21.1/nios2eds/bin/gnu/h-x86_64-mingw32/bin/../lib/gcc/nios2-elf/10.3.1/../../../../../H-x86_64-mingw32/nios2-elf/lib\libc.a(lib_a-lseekr.o)
 .debug_loc     0x0000000000013a6c      0x240 c:/intelfpga_lite/21.1/nios2eds/bin/gnu/h-x86_64-mingw32/bin/../lib/gcc/nios2-elf/10.3.1/../../../../../H-x86_64-mingw32/nios2-elf/lib\libc.a(lib_a-memchr.o)
 .debug_loc     0x0000000000013cac      0x3ff c:/intelfpga_lite/21.1/nios2eds/bin/gnu/h-x86_64-mingw32/bin/../lib/gcc/nios2-elf/10.3.1/../../../../../H-x86_64-mingw32/nios2-elf/lib\libc.a(lib_a-memmove.o)
 .debug_loc     0x00000000000140ab     0x24b5 c:/intelfpga_lite/21.1/nios2eds/bin/gnu/h-x86_64-mingw32/bin/../lib/gcc/nios2-elf/10.3.1/../../../../../H-x86_64-mingw32/nios2-elf/lib\libc.a(lib_a-mprec.o)
 .debug_loc     0x0000000000016560      0x307 c:/intelfpga_lite/21.1/nios2eds/bin/gnu/h-x86_64-mingw32/bin/../lib/gcc/nios2-elf/10.3.1/../../../../../H-x86_64-mingw32/nios2-elf/lib\libc.a(lib_a-putc.o)
 .debug_loc     0x0000000000016867       0xed c:/intelfpga_lite/21.1/nios2eds/bin/gnu/h-x86_64-mingw32/bin/../lib/gcc/nios2-elf/10.3.1/../../../../../H-x86_64-mingw32/nios2-elf/lib\libc.a(lib_a-readr.o)
 .debug_loc     0x0000000000016954     0x11b9 c:/intelfpga_lite/21.1/nios2eds/bin/gnu/h-x86_64-mingw32/bin/../lib/gcc/nios2-elf/10.3.1/../../../../../H-x86_64-mingw32/nios2-elf/lib\libc.a(lib_a-reallocr.o)
 .debug_loc     0x0000000000017b0d     0x174b c:/intelfpga_lite/21.1/nios2eds/bin/gnu/h-x86_64-mingw32/bin/../lib/gcc/nios2-elf/10.3.1/../../../../../H-x86_64-mingw32/nios2-elf/lib\libc.a(lib_a-svfiprintf.o)
 .debug_loc     0x0000000000019258     0x2b95 c:/intelfpga_lite/21.1/nios2eds/bin/gnu/h-x86_64-mingw32/bin/../lib/gcc/nios2-elf/10.3.1/../../../../../H-x86_64-mingw32/nios2-elf/lib\libc.a(lib_a-vfiprintf.o)
 .debug_loc     0x000000000001bded      0x201 c:/intelfpga_lite/21.1/nios2eds/bin/gnu/h-x86_64-mingw32/bin/../lib/gcc/nios2-elf/10.3.1/../../../../../H-x86_64-mingw32/nios2-elf/lib\libc.a(lib_a-wbuf.o)
 .debug_loc     0x000000000001bfee      0x1a2 c:/intelfpga_lite/21.1/nios2eds/bin/gnu/h-x86_64-mingw32/bin/../lib/gcc/nios2-elf/10.3.1/../../../../../H-x86_64-mingw32/nios2-elf/lib\libc.a(lib_a-assert.o)
 .debug_loc     0x000000000001c190      0x374 c:/intelfpga_lite/21.1/nios2eds/bin/gnu/h-x86_64-mingw32/bin/../lib/gcc/nios2-elf/10.3.1/../../../../../H-x86_64-mingw32/nios2-elf/lib\libc.a(lib_a-callocr.o)
 .debug_loc     0x000000000001c504      0x12b c:/intelfpga_lite/21.1/nios2eds/bin/gnu/h-x86_64-mingw32/bin/../lib/gcc/nios2-elf/10.3.1/../../../../../H-x86_64-mingw32/nios2-elf/lib\libc.a(lib_a-fiprintf.o)
 .debug_loc     0x000000000001c62f      0x2eb c:/intelfpga_lite/21.1/nios2eds/bin/gnu/h-x86_64-mingw32/bin/../lib/gcc/nios2-elf/10.3.1/../../../../../H-x86_64-mingw32/nios2-elf/lib\libc.a(lib_a-fputwc.o)
 .debug_loc     0x000000000001c91a      0x2f1 c:/intelfpga_lite/21.1/nios2eds/bin/gnu/h-x86_64-mingw32/bin/../lib/gcc/nios2-elf/10.3.1/../../../../../H-x86_64-mingw32/nios2-elf/lib\libc.a(lib_a-locale.o)
 .debug_loc     0x000000000001cc0b      0x119 c:/intelfpga_lite/21.1/nios2eds/bin/gnu/h-x86_64-mingw32/bin/../lib/gcc/nios2-elf/10.3.1/../../../../../H-x86_64-mingw32/nios2-elf/lib\libc.a(lib_a-mbtowc_r.o)
 .debug_loc     0x000000000001cd24       0x94 c:/intelfpga_lite/21.1/nios2eds/bin/gnu/h-x86_64-mingw32/bin/../lib/gcc/nios2-elf/10.3.1/../../../../../H-x86_64-mingw32/nios2-elf/lib\libc.a(lib_a-vfiprintfr_1.o)
 .debug_loc     0x000000000001cdb8      0x2a4 c:/intelfpga_lite/21.1/nios2eds/bin/gnu/h-x86_64-mingw32/bin/../lib/gcc/nios2-elf/10.3.1/../../../../../H-x86_64-mingw32/nios2-elf/lib\libc.a(lib_a-wcrtomb.o)
 .debug_loc     0x000000000001d05c       0xa9 c:/intelfpga_lite/21.1/nios2eds/bin/gnu/h-x86_64-mingw32/bin/../lib/gcc/nios2-elf/10.3.1/../../../../../H-x86_64-mingw32/nios2-elf/lib\libc.a(lib_a-wctomb_r.o)
 .debug_loc     0x000000000001d105      0x8e7 c:/intelfpga_lite/21.1/nios2eds/bin/gnu/h-x86_64-mingw32/bin/../lib/gcc/nios2-elf/10.3.1/../../../../../H-x86_64-mingw32/nios2-elf/lib\libc.a(lib_a-signal.o)
 .debug_loc     0x000000000001d9ec       0xe0 c:/intelfpga_lite/21.1/nios2eds/bin/gnu/h-x86_64-mingw32/bin/../lib/gcc/nios2-elf/10.3.1/../../../../../H-x86_64-mingw32/nios2-elf/lib\libc.a(lib_a-signalr.o)
 .debug_loc     0x000000000001dacc     0x14a5 c:/intelfpga_lite/21.1/nios2eds/bin/gnu/h-x86_64-mingw32/bin/../lib/gcc/nios2-elf/10.3.1\libgcc.a(_udivdi3.o)
 .debug_loc     0x000000000001ef71     0x1185 c:/intelfpga_lite/21.1/nios2eds/bin/gnu/h-x86_64-mingw32/bin/../lib/gcc/nios2-elf/10.3.1\libgcc.a(_umoddi3.o)
 .debug_loc     0x00000000000200f6     0x1ecb c:/intelfpga_lite/21.1/nios2eds/bin/gnu/h-x86_64-mingw32/bin/../lib/gcc/nios2-elf/10.3.1\libgcc.a(adddf3.o)
 .debug_loc     0x0000000000021fc1      0x113 c:/intelfpga_lite/21.1/nios2eds/bin/gnu/h-x86_64-mingw32/bin/../lib/gcc/nios2-elf/10.3.1\libgcc.a(eqdf2.o)
 .debug_loc     0x00000000000220d4      0x185 c:/intelfpga_lite/21.1/nios2eds/bin/gnu/h-x86_64-mingw32/bin/../lib/gcc/nios2-elf/10.3.1\libgcc.a(gedf2.o)
 .debug_loc     0x0000000000022259      0x177 c:/intelfpga_lite/21.1/nios2eds/bin/gnu/h-x86_64-mingw32/bin/../lib/gcc/nios2-elf/10.3.1\libgcc.a(ledf2.o)
 .debug_loc     0x00000000000223d0     0x12d0 c:/intelfpga_lite/21.1/nios2eds/bin/gnu/h-x86_64-mingw32/bin/../lib/gcc/nios2-elf/10.3.1\libgcc.a(muldf3.o)
 .debug_loc     0x00000000000236a0     0x1eb1 c:/intelfpga_lite/21.1/nios2eds/bin/gnu/h-x86_64-mingw32/bin/../lib/gcc/nios2-elf/10.3.1\libgcc.a(subdf3.o)
 .debug_loc     0x0000000000025551       0x9e c:/intelfpga_lite/21.1/nios2eds/bin/gnu/h-x86_64-mingw32/bin/../lib/gcc/nios2-elf/10.3.1\libgcc.a(unorddf2.o)
 .debug_loc     0x00000000000255ef      0x1bf c:/intelfpga_lite/21.1/nios2eds/bin/gnu/h-x86_64-mingw32/bin/../lib/gcc/nios2-elf/10.3.1\libgcc.a(fixdfsi.o)
 .debug_loc     0x00000000000257ae      0x239 c:/intelfpga_lite/21.1/nios2eds/bin/gnu/h-x86_64-mingw32/bin/../lib/gcc/nios2-elf/10.3.1\libgcc.a(floatsidf.o)
 .debug_loc     0x00000000000259e7      0x24d c:/intelfpga_lite/21.1/nios2eds/bin/gnu/h-x86_64-mingw32/bin/../lib/gcc/nios2-elf/10.3.1\libgcc.a(floatunsidf.o)
 .debug_loc     0x0000000000025c34       0x32 c:/intelfpga_lite/21.1/nios2eds/bin/gnu/h-x86_64-mingw32/bin/../lib/gcc/nios2-elf/10.3.1/../../../../../H-x86_64-mingw32/nios2-elf/lib\libc.a(lib_a-atexit.o)
 .debug_loc     0x0000000000025c66       0x22 c:/intelfpga_lite/21.1/nios2eds/bin/gnu/h-x86_64-mingw32/bin/../lib/gcc/nios2-elf/10.3.1/../../../../../H-x86_64-mingw32/nios2-elf/lib\libc.a(lib_a-exit.o)
 .debug_loc     0x0000000000025c88      0x158 c:/intelfpga_lite/21.1/nios2eds/bin/gnu/h-x86_64-mingw32/bin/../lib/gcc/nios2-elf/10.3.1/../../../../../H-x86_64-mingw32/nios2-elf/lib\libc.a(lib_a-memcmp.o)
 .debug_loc     0x0000000000025de0       0xf7 c:/intelfpga_lite/21.1/nios2eds/bin/gnu/h-x86_64-mingw32/bin/../lib/gcc/nios2-elf/10.3.1/../../../../../H-x86_64-mingw32/nios2-elf/lib\libc.a(lib_a-__atexit.o)
 .debug_loc     0x0000000000025ed7      0x1ca c:/intelfpga_lite/21.1/nios2eds/bin/gnu/h-x86_64-mingw32/bin/../lib/gcc/nios2-elf/10.3.1/../../../../../H-x86_64-mingw32/nios2-elf/lib\libc.a(lib_a-__call_atexit.o)

.debug_macinfo
 *(.debug_macinfo)

.debug_weaknames
 *(.debug_weaknames)

.debug_funcnames
 *(.debug_funcnames)

.debug_typenames
 *(.debug_typenames)

.debug_varnames
 *(.debug_varnames)

.debug_alt_sim_info
                0x0000000000000000       0x60
 *(.debug_alt_sim_info)
 .debug_alt_sim_info
                0x0000000000000000       0x30 c:/Users/Robin/Documents/NHLStenden/FPGA/QuartusPrimeProjects/DE2-115_V.1.0.6_SystemCD/DE2_115_demonstrations/DE2_115_SD_Card_Audio_Player_Copy/Software/Audio_Player_test1_bsp//obj/HAL/src/crt0.o
 .debug_alt_sim_info
                0x0000000000000030       0x30 c:/Users/Robin/Documents/NHLStenden/FPGA/QuartusPrimeProjects/DE2-115_V.1.0.6_SystemCD/DE2_115_demonstrations/DE2_115_SD_Card_Audio_Player_Copy/Software/Audio_Player_test1_bsp/\libhal_bsp.a(alt_busy_sleep.o)
                0x0000000003080000                __alt_data_end = 0x3080000
                0x0000000003080000                PROVIDE (__alt_stack_pointer = __alt_data_end)
                [!provide]                        PROVIDE (__alt_stack_limit = __alt_stack_base)
                0x0000000003065d30                PROVIDE (__alt_heap_start = end)
                0x0000000003080000                PROVIDE (__alt_heap_limit = 0x3080000)
OUTPUT(Audio_Player_test1.elf elf32-littlenios2)
LOAD linker stubs

.debug_ranges   0x0000000000000000     0x2c50
 .debug_ranges  0x0000000000000000       0x20 c:/Users/Robin/Documents/NHLStenden/FPGA/QuartusPrimeProjects/DE2-115_V.1.0.6_SystemCD/DE2_115_demonstrations/DE2_115_SD_Card_Audio_Player_Copy/Software/Audio_Player_test1_bsp//obj/HAL/src/crt0.o
 .debug_ranges  0x0000000000000020       0x70 c:/intelfpga_lite/21.1/nios2eds/bin/gnu/h-x86_64-mingw32/bin/../lib/gcc/nios2-elf/10.3.1\libgcc.a(lib2-divmod.o)
 .debug_ranges  0x0000000000000090       0xe0 c:/intelfpga_lite/21.1/nios2eds/bin/gnu/h-x86_64-mingw32/bin/../lib/gcc/nios2-elf/10.3.1\libgcc.a(divsf3.o)
 .debug_ranges  0x0000000000000170      0x108 c:/intelfpga_lite/21.1/nios2eds/bin/gnu/h-x86_64-mingw32/bin/../lib/gcc/nios2-elf/10.3.1\libgcc.a(mulsf3.o)
 .debug_ranges  0x0000000000000278       0x88 c:/intelfpga_lite/21.1/nios2eds/bin/gnu/h-x86_64-mingw32/bin/../lib/gcc/nios2-elf/10.3.1\libgcc.a(floatunsisf.o)
 .debug_ranges  0x0000000000000300      0x250 c:/intelfpga_lite/21.1/nios2eds/bin/gnu/h-x86_64-mingw32/bin/../lib/gcc/nios2-elf/10.3.1\libgcc.a(divdf3.o)
 .debug_ranges  0x0000000000000550       0x98 c:/intelfpga_lite/21.1/nios2eds/bin/gnu/h-x86_64-mingw32/bin/../lib/gcc/nios2-elf/10.3.1\libgcc.a(extendsfdf2.o)
 .debug_ranges  0x00000000000005e8       0x78 c:/intelfpga_lite/21.1/nios2eds/bin/gnu/h-x86_64-mingw32/bin/../lib/gcc/nios2-elf/10.3.1\libgcc.a(truncdfsf2.o)
 .debug_ranges  0x0000000000000660       0x20 c:/intelfpga_lite/21.1/nios2eds/bin/gnu/h-x86_64-mingw32/bin/../lib/gcc/nios2-elf/10.3.1\libgcc.a(_clzsi2.o)
 .debug_ranges  0x0000000000000680       0x90 c:/intelfpga_lite/21.1/nios2eds/bin/gnu/h-x86_64-mingw32/bin/../lib/gcc/nios2-elf/10.3.1/../../../../../H-x86_64-mingw32/nios2-elf/lib\libc.a(lib_a-fclose.o)
 .debug_ranges  0x0000000000000710       0xc8 c:/intelfpga_lite/21.1/nios2eds/bin/gnu/h-x86_64-mingw32/bin/../lib/gcc/nios2-elf/10.3.1/../../../../../H-x86_64-mingw32/nios2-elf/lib\libc.a(lib_a-fflush.o)
 .debug_ranges  0x00000000000007d8      0x148 c:/intelfpga_lite/21.1/nios2eds/bin/gnu/h-x86_64-mingw32/bin/../lib/gcc/nios2-elf/10.3.1/../../../../../H-x86_64-mingw32/nios2-elf/lib\libc.a(lib_a-findfp.o)
 .debug_ranges  0x0000000000000920       0x18 c:/intelfpga_lite/21.1/nios2eds/bin/gnu/h-x86_64-mingw32/bin/../lib/gcc/nios2-elf/10.3.1/../../../../../H-x86_64-mingw32/nios2-elf/lib\libc.a(lib_a-fopen.o)
 .debug_ranges  0x0000000000000938       0x18 c:/intelfpga_lite/21.1/nios2eds/bin/gnu/h-x86_64-mingw32/bin/../lib/gcc/nios2-elf/10.3.1/../../../../../H-x86_64-mingw32/nios2-elf/lib\libc.a(lib_a-freer.o)
 .debug_ranges  0x0000000000000950       0x38 c:/intelfpga_lite/21.1/nios2eds/bin/gnu/h-x86_64-mingw32/bin/../lib/gcc/nios2-elf/10.3.1/../../../../../H-x86_64-mingw32/nios2-elf/lib\libc.a(lib_a-fseek.o)
 .debug_ranges  0x0000000000000988       0x40 c:/intelfpga_lite/21.1/nios2eds/bin/gnu/h-x86_64-mingw32/bin/../lib/gcc/nios2-elf/10.3.1/../../../../../H-x86_64-mingw32/nios2-elf/lib\libc.a(lib_a-fseeko.o)
 .debug_ranges  0x00000000000009c8       0x10 c:/intelfpga_lite/21.1/nios2eds/bin/gnu/h-x86_64-mingw32/bin/../lib/gcc/nios2-elf/10.3.1/../../../../../H-x86_64-mingw32/nios2-elf/lib\libc.a(lib_a-fstatr.o)
 .debug_ranges  0x00000000000009d8       0x18 c:/intelfpga_lite/21.1/nios2eds/bin/gnu/h-x86_64-mingw32/bin/../lib/gcc/nios2-elf/10.3.1/../../../../../H-x86_64-mingw32/nios2-elf/lib\libc.a(lib_a-fwalk.o)
 .debug_ranges  0x00000000000009f0       0x80 c:/intelfpga_lite/21.1/nios2eds/bin/gnu/h-x86_64-mingw32/bin/../lib/gcc/nios2-elf/10.3.1/../../../../../H-x86_64-mingw32/nios2-elf/lib\libc.a(lib_a-fwrite.o)
 .debug_ranges  0x0000000000000a70       0xc0 c:/intelfpga_lite/21.1/nios2eds/bin/gnu/h-x86_64-mingw32/bin/../lib/gcc/nios2-elf/10.3.1/../../../../../H-x86_64-mingw32/nios2-elf/lib\libc.a(lib_a-makebuf.o)
 .debug_ranges  0x0000000000000b30       0x18 c:/intelfpga_lite/21.1/nios2eds/bin/gnu/h-x86_64-mingw32/bin/../lib/gcc/nios2-elf/10.3.1/../../../../../H-x86_64-mingw32/nios2-elf/lib\libc.a(lib_a-malloc.o)
 .debug_ranges  0x0000000000000b48       0x60 c:/intelfpga_lite/21.1/nios2eds/bin/gnu/h-x86_64-mingw32/bin/../lib/gcc/nios2-elf/10.3.1/../../../../../H-x86_64-mingw32/nios2-elf/lib\libc.a(lib_a-mallocr.o)
 .debug_ranges  0x0000000000000ba8       0x10 c:/intelfpga_lite/21.1/nios2eds/bin/gnu/h-x86_64-mingw32/bin/../lib/gcc/nios2-elf/10.3.1/../../../../../H-x86_64-mingw32/nios2-elf/lib\libc.a(lib_a-memcpy.o)
 .debug_ranges  0x0000000000000bb8       0x10 c:/intelfpga_lite/21.1/nios2eds/bin/gnu/h-x86_64-mingw32/bin/../lib/gcc/nios2-elf/10.3.1/../../../../../H-x86_64-mingw32/nios2-elf/lib\libc.a(lib_a-memset.o)
 .debug_ranges  0x0000000000000bc8       0x10 c:/intelfpga_lite/21.1/nios2eds/bin/gnu/h-x86_64-mingw32/bin/../lib/gcc/nios2-elf/10.3.1/../../../../../H-x86_64-mingw32/nios2-elf/lib\libc.a(lib_a-openr.o)
 .debug_ranges  0x0000000000000bd8       0x18 c:/intelfpga_lite/21.1/nios2eds/bin/gnu/h-x86_64-mingw32/bin/../lib/gcc/nios2-elf/10.3.1/../../../../../H-x86_64-mingw32/nios2-elf/lib\libc.a(lib_a-printf.o)
 .debug_ranges  0x0000000000000bf0       0x18 c:/intelfpga_lite/21.1/nios2eds/bin/gnu/h-x86_64-mingw32/bin/../lib/gcc/nios2-elf/10.3.1/../../../../../H-x86_64-mingw32/nios2-elf/lib\libc.a(lib_a-putchar.o)
 .debug_ranges  0x0000000000000c08       0x30 c:/intelfpga_lite/21.1/nios2eds/bin/gnu/h-x86_64-mingw32/bin/../lib/gcc/nios2-elf/10.3.1/../../../../../H-x86_64-mingw32/nios2-elf/lib\libc.a(lib_a-puts.o)
 .debug_ranges  0x0000000000000c38       0x40 c:/intelfpga_lite/21.1/nios2eds/bin/gnu/h-x86_64-mingw32/bin/../lib/gcc/nios2-elf/10.3.1/../../../../../H-x86_64-mingw32/nios2-elf/lib\libc.a(lib_a-refill.o)
 .debug_ranges  0x0000000000000c78       0x10 c:/intelfpga_lite/21.1/nios2eds/bin/gnu/h-x86_64-mingw32/bin/../lib/gcc/nios2-elf/10.3.1/../../../../../H-x86_64-mingw32/nios2-elf/lib\libc.a(lib_a-sbrkr.o)
 .debug_ranges  0x0000000000000c88       0x18 c:/intelfpga_lite/21.1/nios2eds/bin/gnu/h-x86_64-mingw32/bin/../lib/gcc/nios2-elf/10.3.1/../../../../../H-x86_64-mingw32/nios2-elf/lib\libc.a(lib_a-sprintf.o)
 .debug_ranges  0x0000000000000ca0       0x30 c:/intelfpga_lite/21.1/nios2eds/bin/gnu/h-x86_64-mingw32/bin/../lib/gcc/nios2-elf/10.3.1/../../../../../H-x86_64-mingw32/nios2-elf/lib\libc.a(lib_a-stdio.o)
 .debug_ranges  0x0000000000000cd0       0x10 c:/intelfpga_lite/21.1/nios2eds/bin/gnu/h-x86_64-mingw32/bin/../lib/gcc/nios2-elf/10.3.1/../../../../../H-x86_64-mingw32/nios2-elf/lib\libc.a(lib_a-strcmp.o)
 .debug_ranges  0x0000000000000ce0       0x10 c:/intelfpga_lite/21.1/nios2eds/bin/gnu/h-x86_64-mingw32/bin/../lib/gcc/nios2-elf/10.3.1/../../../../../H-x86_64-mingw32/nios2-elf/lib\libc.a(lib_a-strcpy.o)
 .debug_ranges  0x0000000000000cf0       0x10 c:/intelfpga_lite/21.1/nios2eds/bin/gnu/h-x86_64-mingw32/bin/../lib/gcc/nios2-elf/10.3.1/../../../../../H-x86_64-mingw32/nios2-elf/lib\libc.a(lib_a-strlen.o)
 .debug_ranges  0x0000000000000d00      0x1a8 c:/intelfpga_lite/21.1/nios2eds/bin/gnu/h-x86_64-mingw32/bin/../lib/gcc/nios2-elf/10.3.1/../../../../../H-x86_64-mingw32/nios2-elf/lib\libc.a(lib_a-svfprintf.o)
 .debug_ranges  0x0000000000000ea8      0x1c8 c:/intelfpga_lite/21.1/nios2eds/bin/gnu/h-x86_64-mingw32/bin/../lib/gcc/nios2-elf/10.3.1/../../../../../H-x86_64-mingw32/nios2-elf/lib\libc.a(lib_a-vfprintf.o)
 .debug_ranges  0x0000000000001070       0x38 c:/intelfpga_lite/21.1/nios2eds/bin/gnu/h-x86_64-mingw32/bin/../lib/gcc/nios2-elf/10.3.1/../../../../../H-x86_64-mingw32/nios2-elf/lib\libc.a(lib_a-vsnprintf.o)
 .debug_ranges  0x00000000000010a8       0x10 c:/intelfpga_lite/21.1/nios2eds/bin/gnu/h-x86_64-mingw32/bin/../lib/gcc/nios2-elf/10.3.1/../../../../../H-x86_64-mingw32/nios2-elf/lib\libc.a(lib_a-writer.o)
 .debug_ranges  0x00000000000010b8       0x30 c:/intelfpga_lite/21.1/nios2eds/bin/gnu/h-x86_64-mingw32/bin/../lib/gcc/nios2-elf/10.3.1/../../../../../H-x86_64-mingw32/nios2-elf/lib\libc.a(lib_a-wsetup.o)
 .debug_ranges  0x00000000000010e8       0x10 c:/intelfpga_lite/21.1/nios2eds/bin/gnu/h-x86_64-mingw32/bin/../lib/gcc/nios2-elf/10.3.1/../../../../../H-x86_64-mingw32/nios2-elf/lib\libc.a(closer.o)
 .debug_ranges  0x00000000000010f8       0x50 c:/intelfpga_lite/21.1/nios2eds/bin/gnu/h-x86_64-mingw32/bin/../lib/gcc/nios2-elf/10.3.1/../../../../../H-x86_64-mingw32/nios2-elf/lib\libc.a(lib_a-dtoa.o)
 .debug_ranges  0x0000000000001148       0x10 c:/intelfpga_lite/21.1/nios2eds/bin/gnu/h-x86_64-mingw32/bin/../lib/gcc/nios2-elf/10.3.1/../../../../../H-x86_64-mingw32/nios2-elf/lib\libc.a(lib_a-flags.o)
 .debug_ranges  0x0000000000001158       0x38 c:/intelfpga_lite/21.1/nios2eds/bin/gnu/h-x86_64-mingw32/bin/../lib/gcc/nios2-elf/10.3.1/../../../../../H-x86_64-mingw32/nios2-elf/lib\libc.a(lib_a-fvwrite.o)
 .debug_ranges  0x0000000000001190       0x10 c:/intelfpga_lite/21.1/nios2eds/bin/gnu/h-x86_64-mingw32/bin/../lib/gcc/nios2-elf/10.3.1/../../../../../H-x86_64-mingw32/nios2-elf/lib\libc.a(lib_a-isattyr.o)
 .debug_ranges  0x00000000000011a0       0x20 c:/intelfpga_lite/21.1/nios2eds/bin/gnu/h-x86_64-mingw32/bin/../lib/gcc/nios2-elf/10.3.1/../../../../../H-x86_64-mingw32/nios2-elf/lib\libc.a(lib_a-localeconv.o)
 .debug_ranges  0x00000000000011c0       0x10 c:/intelfpga_lite/21.1/nios2eds/bin/gnu/h-x86_64-mingw32/bin/../lib/gcc/nios2-elf/10.3.1/../../../../../H-x86_64-mingw32/nios2-elf/lib\libc.a(lib_a-lseekr.o)
 .debug_ranges  0x00000000000011d0       0x10 c:/intelfpga_lite/21.1/nios2eds/bin/gnu/h-x86_64-mingw32/bin/../lib/gcc/nios2-elf/10.3.1/../../../../../H-x86_64-mingw32/nios2-elf/lib\libc.a(lib_a-memchr.o)
 .debug_ranges  0x00000000000011e0       0x10 c:/intelfpga_lite/21.1/nios2eds/bin/gnu/h-x86_64-mingw32/bin/../lib/gcc/nios2-elf/10.3.1/../../../../../H-x86_64-mingw32/nios2-elf/lib\libc.a(lib_a-memmove.o)
 .debug_ranges  0x00000000000011f0      0x1e0 c:/intelfpga_lite/21.1/nios2eds/bin/gnu/h-x86_64-mingw32/bin/../lib/gcc/nios2-elf/10.3.1/../../../../../H-x86_64-mingw32/nios2-elf/lib\libc.a(lib_a-mprec.o)
 .debug_ranges  0x00000000000013d0       0x58 c:/intelfpga_lite/21.1/nios2eds/bin/gnu/h-x86_64-mingw32/bin/../lib/gcc/nios2-elf/10.3.1/../../../../../H-x86_64-mingw32/nios2-elf/lib\libc.a(lib_a-putc.o)
 .debug_ranges  0x0000000000001428       0x10 c:/intelfpga_lite/21.1/nios2eds/bin/gnu/h-x86_64-mingw32/bin/../lib/gcc/nios2-elf/10.3.1/../../../../../H-x86_64-mingw32/nios2-elf/lib\libc.a(lib_a-readr.o)
 .debug_ranges  0x0000000000001438      0x158 c:/intelfpga_lite/21.1/nios2eds/bin/gnu/h-x86_64-mingw32/bin/../lib/gcc/nios2-elf/10.3.1/../../../../../H-x86_64-mingw32/nios2-elf/lib\libc.a(lib_a-reallocr.o)
 .debug_ranges  0x0000000000001590       0x70 c:/intelfpga_lite/21.1/nios2eds/bin/gnu/h-x86_64-mingw32/bin/../lib/gcc/nios2-elf/10.3.1/../../../../../H-x86_64-mingw32/nios2-elf/lib\libc.a(lib_a-svfiprintf.o)
 .debug_ranges  0x0000000000001600      0x1c8 c:/intelfpga_lite/21.1/nios2eds/bin/gnu/h-x86_64-mingw32/bin/../lib/gcc/nios2-elf/10.3.1/../../../../../H-x86_64-mingw32/nios2-elf/lib\libc.a(lib_a-vfiprintf.o)
 .debug_ranges  0x00000000000017c8       0x40 c:/intelfpga_lite/21.1/nios2eds/bin/gnu/h-x86_64-mingw32/bin/../lib/gcc/nios2-elf/10.3.1/../../../../../H-x86_64-mingw32/nios2-elf/lib\libc.a(lib_a-wbuf.o)
 .debug_ranges  0x0000000000001808       0x18 c:/intelfpga_lite/21.1/nios2eds/bin/gnu/h-x86_64-mingw32/bin/../lib/gcc/nios2-elf/10.3.1/../../../../../H-x86_64-mingw32/nios2-elf/lib\libc.a(lib_a-assert.o)
 .debug_ranges  0x0000000000001820       0x60 c:/intelfpga_lite/21.1/nios2eds/bin/gnu/h-x86_64-mingw32/bin/../lib/gcc/nios2-elf/10.3.1/../../../../../H-x86_64-mingw32/nios2-elf/lib\libc.a(lib_a-callocr.o)
 .debug_ranges  0x0000000000001880       0x10 c:/intelfpga_lite/21.1/nios2eds/bin/gnu/h-x86_64-mingw32/bin/../lib/gcc/nios2-elf/10.3.1/../../../../../H-x86_64-mingw32/nios2-elf/lib\libc.a(lib_a-errno.o)
 .debug_ranges  0x0000000000001890       0x18 c:/intelfpga_lite/21.1/nios2eds/bin/gnu/h-x86_64-mingw32/bin/../lib/gcc/nios2-elf/10.3.1/../../../../../H-x86_64-mingw32/nios2-elf/lib\libc.a(lib_a-fiprintf.o)
 .debug_ranges  0x00000000000018a8       0x58 c:/intelfpga_lite/21.1/nios2eds/bin/gnu/h-x86_64-mingw32/bin/../lib/gcc/nios2-elf/10.3.1/../../../../../H-x86_64-mingw32/nios2-elf/lib\libc.a(lib_a-fputwc.o)
 .debug_ranges  0x0000000000001900       0x80 c:/intelfpga_lite/21.1/nios2eds/bin/gnu/h-x86_64-mingw32/bin/../lib/gcc/nios2-elf/10.3.1/../../../../../H-x86_64-mingw32/nios2-elf/lib\libc.a(lib_a-locale.o)
 .debug_ranges  0x0000000000001980       0x18 c:/intelfpga_lite/21.1/nios2eds/bin/gnu/h-x86_64-mingw32/bin/../lib/gcc/nios2-elf/10.3.1/../../../../../H-x86_64-mingw32/nios2-elf/lib\libc.a(lib_a-mbtowc_r.o)
 .debug_ranges  0x0000000000001998       0x10 c:/intelfpga_lite/21.1/nios2eds/bin/gnu/h-x86_64-mingw32/bin/../lib/gcc/nios2-elf/10.3.1/../../../../../H-x86_64-mingw32/nios2-elf/lib\libc.a(lib_a-vfiprintfr_1.o)
 .debug_ranges  0x00000000000019a8       0x18 c:/intelfpga_lite/21.1/nios2eds/bin/gnu/h-x86_64-mingw32/bin/../lib/gcc/nios2-elf/10.3.1/../../../../../H-x86_64-mingw32/nios2-elf/lib\libc.a(lib_a-wcrtomb.o)
 .debug_ranges  0x00000000000019c0       0x18 c:/intelfpga_lite/21.1/nios2eds/bin/gnu/h-x86_64-mingw32/bin/../lib/gcc/nios2-elf/10.3.1/../../../../../H-x86_64-mingw32/nios2-elf/lib\libc.a(lib_a-wctomb_r.o)
 .debug_ranges  0x00000000000019d8       0x10 c:/intelfpga_lite/21.1/nios2eds/bin/gnu/h-x86_64-mingw32/bin/../lib/gcc/nios2-elf/10.3.1/../../../../../H-x86_64-mingw32/nios2-elf/lib\libc.a(lib_a-abort.o)
 .debug_ranges  0x00000000000019e8      0x100 c:/intelfpga_lite/21.1/nios2eds/bin/gnu/h-x86_64-mingw32/bin/../lib/gcc/nios2-elf/10.3.1/../../../../../H-x86_64-mingw32/nios2-elf/lib\libc.a(lib_a-signal.o)
 .debug_ranges  0x0000000000001ae8       0x18 c:/intelfpga_lite/21.1/nios2eds/bin/gnu/h-x86_64-mingw32/bin/../lib/gcc/nios2-elf/10.3.1/../../../../../H-x86_64-mingw32/nios2-elf/lib\libc.a(lib_a-signalr.o)
 .debug_ranges  0x0000000000001b00      0x1d0 c:/intelfpga_lite/21.1/nios2eds/bin/gnu/h-x86_64-mingw32/bin/../lib/gcc/nios2-elf/10.3.1\libgcc.a(_udivdi3.o)
 .debug_ranges  0x0000000000001cd0      0x180 c:/intelfpga_lite/21.1/nios2eds/bin/gnu/h-x86_64-mingw32/bin/../lib/gcc/nios2-elf/10.3.1\libgcc.a(_umoddi3.o)
 .debug_ranges  0x0000000000001e50      0x328 c:/intelfpga_lite/21.1/nios2eds/bin/gnu/h-x86_64-mingw32/bin/../lib/gcc/nios2-elf/10.3.1\libgcc.a(adddf3.o)
 .debug_ranges  0x0000000000002178       0x48 c:/intelfpga_lite/21.1/nios2eds/bin/gnu/h-x86_64-mingw32/bin/../lib/gcc/nios2-elf/10.3.1\libgcc.a(eqdf2.o)
 .debug_ranges  0x00000000000021c0       0x70 c:/intelfpga_lite/21.1/nios2eds/bin/gnu/h-x86_64-mingw32/bin/../lib/gcc/nios2-elf/10.3.1\libgcc.a(gedf2.o)
 .debug_ranges  0x0000000000002230       0x70 c:/intelfpga_lite/21.1/nios2eds/bin/gnu/h-x86_64-mingw32/bin/../lib/gcc/nios2-elf/10.3.1\libgcc.a(ledf2.o)
 .debug_ranges  0x00000000000022a0      0x2d0 c:/intelfpga_lite/21.1/nios2eds/bin/gnu/h-x86_64-mingw32/bin/../lib/gcc/nios2-elf/10.3.1\libgcc.a(muldf3.o)
 .debug_ranges  0x0000000000002570      0x3a8 c:/intelfpga_lite/21.1/nios2eds/bin/gnu/h-x86_64-mingw32/bin/../lib/gcc/nios2-elf/10.3.1\libgcc.a(subdf3.o)
 .debug_ranges  0x0000000000002918       0x48 c:/intelfpga_lite/21.1/nios2eds/bin/gnu/h-x86_64-mingw32/bin/../lib/gcc/nios2-elf/10.3.1\libgcc.a(unorddf2.o)
 .debug_ranges  0x0000000000002960       0x18 c:/intelfpga_lite/21.1/nios2eds/bin/gnu/h-x86_64-mingw32/bin/../lib/gcc/nios2-elf/10.3.1\libgcc.a(fixdfsi.o)
 .debug_ranges  0x0000000000002978       0xd8 c:/intelfpga_lite/21.1/nios2eds/bin/gnu/h-x86_64-mingw32/bin/../lib/gcc/nios2-elf/10.3.1\libgcc.a(floatsidf.o)
 .debug_ranges  0x0000000000002a50       0xd8 c:/intelfpga_lite/21.1/nios2eds/bin/gnu/h-x86_64-mingw32/bin/../lib/gcc/nios2-elf/10.3.1\libgcc.a(floatunsidf.o)
 .debug_ranges  0x0000000000002b28       0x30 c:/Users/Robin/Documents/NHLStenden/FPGA/QuartusPrimeProjects/DE2-115_V.1.0.6_SystemCD/DE2_115_demonstrations/DE2_115_SD_Card_Audio_Player_Copy/Software/Audio_Player_test1_bsp/\libhal_bsp.a(altera_avalon_jtag_uart_init.o)
 .debug_ranges  0x0000000000002b58       0x18 c:/Users/Robin/Documents/NHLStenden/FPGA/QuartusPrimeProjects/DE2-115_V.1.0.6_SystemCD/DE2_115_demonstrations/DE2_115_SD_Card_Audio_Player_Copy/Software/Audio_Player_test1_bsp/\libhal_bsp.a(altera_avalon_jtag_uart_read.o)
 .debug_ranges  0x0000000000002b70       0x28 c:/Users/Robin/Documents/NHLStenden/FPGA/QuartusPrimeProjects/DE2-115_V.1.0.6_SystemCD/DE2_115_demonstrations/DE2_115_SD_Card_Audio_Player_Copy/Software/Audio_Player_test1_bsp/\libhal_bsp.a(alt_irq_entry.o)
 .debug_ranges  0x0000000000002b98       0x10 c:/Users/Robin/Documents/NHLStenden/FPGA/QuartusPrimeProjects/DE2-115_V.1.0.6_SystemCD/DE2_115_demonstrations/DE2_115_SD_Card_Audio_Player_Copy/Software/Audio_Player_test1_bsp/\libhal_bsp.a(alt_irq_handler.o)
 .debug_ranges  0x0000000000002ba8       0x30 c:/Users/Robin/Documents/NHLStenden/FPGA/QuartusPrimeProjects/DE2-115_V.1.0.6_SystemCD/DE2_115_demonstrations/DE2_115_SD_Card_Audio_Player_Copy/Software/Audio_Player_test1_bsp/\libhal_bsp.a(alt_exception_entry.o)
 .debug_ranges  0x0000000000002bd8       0x10 c:/intelfpga_lite/21.1/nios2eds/bin/gnu/h-x86_64-mingw32/bin/../lib/gcc/nios2-elf/10.3.1/../../../../../H-x86_64-mingw32/nios2-elf/lib\libc.a(lib_a-atexit.o)
 .debug_ranges  0x0000000000002be8       0x10 c:/intelfpga_lite/21.1/nios2eds/bin/gnu/h-x86_64-mingw32/bin/../lib/gcc/nios2-elf/10.3.1/../../../../../H-x86_64-mingw32/nios2-elf/lib\libc.a(lib_a-exit.o)
 .debug_ranges  0x0000000000002bf8       0x10 c:/intelfpga_lite/21.1/nios2eds/bin/gnu/h-x86_64-mingw32/bin/../lib/gcc/nios2-elf/10.3.1/../../../../../H-x86_64-mingw32/nios2-elf/lib\libc.a(lib_a-memcmp.o)
 .debug_ranges  0x0000000000002c08       0x10 c:/intelfpga_lite/21.1/nios2eds/bin/gnu/h-x86_64-mingw32/bin/../lib/gcc/nios2-elf/10.3.1/../../../../../H-x86_64-mingw32/nios2-elf/lib\libc.a(lib_a-__atexit.o)
 .debug_ranges  0x0000000000002c18       0x38 c:/intelfpga_lite/21.1/nios2eds/bin/gnu/h-x86_64-mingw32/bin/../lib/gcc/nios2-elf/10.3.1/../../../../../H-x86_64-mingw32/nios2-elf/lib\libc.a(lib_a-__call_atexit.o)
